
========================================================================

** ELF Header Information

    File Name: .\output\GSB750.axf

    Machine class: ELFCLASS32 (32-bit)
    Data encoding: ELFDATA2LSB (Little endian)
    Header version: EV_CURRENT (Current version)
    Operating System ABI: none
    ABI Version: 0
    File Type: ET_EXEC (Executable) (2)
    Machine: EM_ARM (ARM)

    Image Entry point: 0x000000d5
    Flags: EF_ARM_HASENTRY (0x05000002)

    ARM ELF revision: 5 (ABI version 2)

    Built with
    ARM C/C++ Compiler, 5.02 [Build 28]
    ARM Assembler, 5.02 [Build 28]
    ARM Linker, 5.02 [Build 28] 

    Header size: 52 bytes (0x34)
    Program header entry size: 32 bytes (0x20)
    Section header entry size: 40 bytes (0x28)

    Program header entries: 1
    Section header entries: 16

    Program header offset: 913144 (0x000deef8)
    Section header offset: 913176 (0x000def18)

    Section header string table index: 15

========================================================================

** Program header #0 (PT_LOAD) [PF_X + PF_W + PF_R + PF_ARM_ENTRY]
    Size : 27168 bytes (20544 bytes in file)
    Virtual address: 0x00000000 (Alignment 8)


========================================================================

** Section #1 'ER_RO' (SHT_PROGBITS) [SHF_ALLOC + SHF_EXECINSTR]
    Size   : 18768 bytes (alignment 4)
    Address: 0x00000000

    $d.realdata
    RESET
    __Vectors
        0x00000000:    200020d0    . .     DCD    536879312
        0x00000004:    000000d5    ....    DCD    213
        0x00000008:    000000f9    ....    DCD    249
        0x0000000c:    00000df9    ....    DCD    3577
        0x00000010:    00000000    ....    DCD    0
        0x00000014:    00000000    ....    DCD    0
        0x00000018:    00000000    ....    DCD    0
        0x0000001c:    00000000    ....    DCD    0
        0x00000020:    00000000    ....    DCD    0
        0x00000024:    00000000    ....    DCD    0
        0x00000028:    00000000    ....    DCD    0
        0x0000002c:    0000010d    ....    DCD    269
        0x00000030:    00000000    ....    DCD    0
        0x00000034:    00000000    ....    DCD    0
        0x00000038:    0000010f    ....    DCD    271
        0x0000003c:    00001329    )...    DCD    4905
        0x00000040:    00000113    ....    DCD    275
        0x00000044:    0000167d    }...    DCD    5757
        0x00000048:    00000113    ....    DCD    275
        0x0000004c:    00000113    ....    DCD    275
        0x00000050:    00000d3d    =...    DCD    3389
        0x00000054:    00000d49    I...    DCD    3401
        0x00000058:    00000113    ....    DCD    275
        0x0000005c:    00000113    ....    DCD    275
        0x00000060:    00001481    ....    DCD    5249
        0x00000064:    00000113    ....    DCD    275
        0x00000068:    00000113    ....    DCD    275
        0x0000006c:    00000113    ....    DCD    275
        0x00000070:    000014ed    ....    DCD    5357
        0x00000074:    00000113    ....    DCD    275
        0x00000078:    00000113    ....    DCD    275
        0x0000007c:    00000113    ....    DCD    275
        0x00000080:    00001239    9...    DCD    4665
        0x00000084:    00000113    ....    DCD    275
        0x00000088:    00000e0d    ....    DCD    3597
        0x0000008c:    00000113    ....    DCD    275
        0x00000090:    00000113    ....    DCD    275
        0x00000094:    00000113    ....    DCD    275
        0x00000098:    00000113    ....    DCD    275
        0x0000009c:    00000113    ....    DCD    275
        0x000000a0:    00000113    ....    DCD    275
        0x000000a4:    00000113    ....    DCD    275
        0x000000a8:    00000113    ....    DCD    275
        0x000000ac:    00001051    Q...    DCD    4177
        0x000000b0:    00001219    ....    DCD    4633
        0x000000b4:    000001d9    ....    DCD    473
        0x000000b8:    00000113    ....    DCD    275
        0x000000bc:    00000113    ....    DCD    275
    $t
    .ARM.Collect$$$$00000000
    .ARM.Collect$$$$00000001
    __main
    _main_stk
        0x000000c0:    4803        .H      LDR      r0,__lit__00000000 ; [0xd0] = 0x200020d0
        0x000000c2:    4685        .F      MOV      sp,r0
    .ARM.Collect$$$$00000004
    _main_scatterload
        0x000000c4:    f000f86c    ..l.    BL       __scatterload ; 0x1a0
    .ARM.Collect$$$$00000008
    .ARM.Collect$$$$00000009
    __main_after_scatterload
    _main_clock
    _main_init
        0x000000c8:    4800        .H      LDR      r0,[pc,#0] ; [0xcc] = 0x3981
        0x000000ca:    4700        .G      BX       r0
    $d
        0x000000cc:    00003981    .9..    DCD    14721
    .ARM.Collect$$$$00002712
    __lit__00000000
        0x000000d0:    200020d0    . .     DCD    536879312
    $t
    .text
    Reset_Handler
        0x000000d4:    4814        .H      LDR      r0,[pc,#80] ; [0x128] = 0x50000100
        0x000000d6:    4915        .I      LDR      r1,[pc,#84] ; [0x12c] = 0x59
        0x000000d8:    6001        .`      STR      r1,[r0,#0]
        0x000000da:    4915        .I      LDR      r1,[pc,#84] ; [0x130] = 0x16
        0x000000dc:    6001        .`      STR      r1,[r0,#0]
        0x000000de:    4915        .I      LDR      r1,[pc,#84] ; [0x134] = 0x88
        0x000000e0:    6001        .`      STR      r1,[r0,#0]
        0x000000e2:    4a15        .J      LDR      r2,[pc,#84] ; [0x138] = 0x50000024
        0x000000e4:    4915        .I      LDR      r1,[pc,#84] ; [0x13c] = 0x5aa5
        0x000000e6:    6011        .`      STR      r1,[r2,#0]
        0x000000e8:    2100        .!      MOVS     r1,#0
        0x000000ea:    6001        .`      STR      r1,[r0,#0]
        0x000000ec:    4814        .H      LDR      r0,[pc,#80] ; [0x140] = 0x147d
        0x000000ee:    4780        .G      BLX      r0
        0x000000f0:    4814        .H      LDR      r0,[pc,#80] ; [0x144] = 0x41bd
        0x000000f2:    4780        .G      BLX      r0
        0x000000f4:    4814        .H      LDR      r0,[pc,#80] ; [0x148] = 0xc1
        0x000000f6:    4700        .G      BX       r0
    NMI_Handler
        0x000000f8:    e7fe        ..      B        NMI_Handler ; 0xf8
        0x000000fa:    9806        ..      LDR      r0,[sp,#0x18]
        0x000000fc:    8801        ..      LDRH     r1,[r0,#0]
        0x000000fe:    4a13        .J      LDR      r2,[pc,#76] ; [0x14c] = 0xbeab
        0x00000100:    4291        .B      CMP      r1,r2
        0x00000102:    d102        ..      BNE      0x10a ; NMI_Handler + 18
        0x00000104:    3004        .0      ADDS     r0,#4
        0x00000106:    9006        ..      STR      r0,[sp,#0x18]
        0x00000108:    4770        pG      BX       lr
        0x0000010a:    e7fe        ..      B        0x10a ; NMI_Handler + 18
    SVC_Handler
        0x0000010c:    e7fe        ..      B        SVC_Handler ; 0x10c
    PendSV_Handler
        0x0000010e:    e7fe        ..      B        PendSV_Handler ; 0x10e
        0x00000110:    e7fe        ..      B        0x110 ; PendSV_Handler + 2
    Default_Handler
    BOD_IRQHandler
    EINT0_IRQHandler
    EINT1_IRQHandler
    I2C1_IRQHandler
    PDMA_IRQHandler
    PS2_IRQHandler
    PWMA_IRQHandler
    SPI0_IRQHandler
    SPI1_IRQHandler
    TMR1_IRQHandler
    TMR2_IRQHandler
    TMR3_IRQHandler
    UART1_IRQHandler
    USBD_IRQHandler
        0x00000112:    4770        pG      BX       lr
    SH_DoCommand
        0x00000114:    beab        ..      BKPT     #0xab
        0x00000116:    e001        ..      B        0x11c ; SH_DoCommand + 8
        0x00000118:    2000        .       MOVS     r0,#0
        0x0000011a:    4770        pG      BX       lr
        0x0000011c:    2a00        .*      CMP      r2,#0
        0x0000011e:    d000        ..      BEQ      0x122 ; SH_DoCommand + 14
        0x00000120:    6010        .`      STR      r0,[r2,#0]
        0x00000122:    2001        .       MOVS     r0,#1
        0x00000124:    4770        pG      BX       lr
    $d
        0x00000126:    0000        ..      DCW    0
        0x00000128:    50000100    ...P    DCD    1342177536
        0x0000012c:    00000059    Y...    DCD    89
        0x00000130:    00000016    ....    DCD    22
        0x00000134:    00000088    ....    DCD    136
        0x00000138:    50000024    $..P    DCD    1342177316
        0x0000013c:    00005aa5    .Z..    DCD    23205
        0x00000140:    0000147d    }...    DCD    5245
        0x00000144:    000041bd    .A..    DCD    16829
        0x00000148:    000000c1    ....    DCD    193
        0x0000014c:    0000beab    ....    DCD    48811
    $t
    .text
    __aeabi_uidiv
    __aeabi_uidivmod
        0x00000150:    b530        0.      PUSH     {r4,r5,lr}
        0x00000152:    460b        .F      MOV      r3,r1
        0x00000154:    4601        .F      MOV      r1,r0
        0x00000156:    2000        .       MOVS     r0,#0
        0x00000158:    2220         "      MOVS     r2,#0x20
        0x0000015a:    2401        .$      MOVS     r4,#1
        0x0000015c:    e009        ..      B        0x172 ; __aeabi_uidiv + 34
        0x0000015e:    460d        .F      MOV      r5,r1
        0x00000160:    40d5        .@      LSRS     r5,r5,r2
        0x00000162:    429d        .B      CMP      r5,r3
        0x00000164:    d305        ..      BCC      0x172 ; __aeabi_uidiv + 34
        0x00000166:    461d        .F      MOV      r5,r3
        0x00000168:    4095        .@      LSLS     r5,r5,r2
        0x0000016a:    1b49        I.      SUBS     r1,r1,r5
        0x0000016c:    4625        %F      MOV      r5,r4
        0x0000016e:    4095        .@      LSLS     r5,r5,r2
        0x00000170:    1940        @.      ADDS     r0,r0,r5
        0x00000172:    4615        .F      MOV      r5,r2
        0x00000174:    1e52        R.      SUBS     r2,r2,#1
        0x00000176:    2d00        .-      CMP      r5,#0
        0x00000178:    dcf1        ..      BGT      0x15e ; __aeabi_uidiv + 14
        0x0000017a:    bd30        0.      POP      {r4,r5,pc}
    .text
    __aeabi_memset
    __aeabi_memset4
    __aeabi_memset8
        0x0000017c:    b2d2        ..      UXTB     r2,r2
        0x0000017e:    e001        ..      B        0x184 ; __aeabi_memset + 8
        0x00000180:    7002        .p      STRB     r2,[r0,#0]
        0x00000182:    1c40        @.      ADDS     r0,r0,#1
        0x00000184:    1e49        I.      SUBS     r1,r1,#1
        0x00000186:    d2fb        ..      BCS      0x180 ; __aeabi_memset + 4
        0x00000188:    4770        pG      BX       lr
    __aeabi_memclr
    __aeabi_memclr4
    __aeabi_memclr8
        0x0000018a:    2200        ."      MOVS     r2,#0
        0x0000018c:    e7f6        ..      B        __aeabi_memset ; 0x17c
    _memset$wrapper
        0x0000018e:    b510        ..      PUSH     {r4,lr}
        0x00000190:    4613        .F      MOV      r3,r2
        0x00000192:    460a        .F      MOV      r2,r1
        0x00000194:    4604        .F      MOV      r4,r0
        0x00000196:    4619        .F      MOV      r1,r3
        0x00000198:    f7fffff0    ....    BL       __aeabi_memset ; 0x17c
        0x0000019c:    4620         F      MOV      r0,r4
        0x0000019e:    bd10        ..      POP      {r4,pc}
    .text
    __scatterload
    __scatterload_rt2
        0x000001a0:    4c06        .L      LDR      r4,[pc,#24] ; [0x1bc] = 0x4930
        0x000001a2:    2501        .%      MOVS     r5,#1
        0x000001a4:    4e06        .N      LDR      r6,[pc,#24] ; [0x1c0] = 0x4950
        0x000001a6:    e005        ..      B        0x1b4 ; __scatterload + 20
        0x000001a8:    4620         F      MOV      r0,r4
        0x000001aa:    68e3        .h      LDR      r3,[r4,#0xc]
        0x000001ac:    c807        ..      LDM      r0,{r0-r2}
        0x000001ae:    432b        +C      ORRS     r3,r3,r5
        0x000001b0:    4798        .G      BLX      r3
        0x000001b2:    3410        .4      ADDS     r4,r4,#0x10
        0x000001b4:    42b4        .B      CMP      r4,r6
        0x000001b6:    d3f7        ..      BCC      0x1a8 ; __scatterload + 8
        0x000001b8:    f7ffff86    ....    BL       __main_after_scatterload ; 0xc8
    $d
        0x000001bc:    00004930    0I..    DCD    18736
        0x000001c0:    00004950    PI..    DCD    18768
    $t
    i.ADC_GET_RSLT
    ADC_GET_RSLT
        0x000001c4:    4903        .I      LDR      r1,[pc,#12] ; [0x1d4] = 0x400e0000
        0x000001c6:    0080        ..      LSLS     r0,r0,#2
        0x000001c8:    1840        @.      ADDS     r0,r0,r1
        0x000001ca:    6800        .h      LDR      r0,[r0,#0]
        0x000001cc:    0580        ..      LSLS     r0,r0,#22
        0x000001ce:    0d80        ..      LSRS     r0,r0,#22
        0x000001d0:    4770        pG      BX       lr
    $d
        0x000001d2:    0000        ..      DCW    0
        0x000001d4:    400e0000    ...@    DCD    1074659328
    $t
    i.ADC_IRQHandler
    ADC_IRQHandler
        0x000001d8:    b510        ..      PUSH     {r4,lr}
        0x000001da:    4909        .I      LDR      r1,[pc,#36] ; [0x200] = 0x400e0000
        0x000001dc:    2001        .       MOVS     r0,#1
        0x000001de:    6308        .c      STR      r0,[r1,#0x30]
        0x000001e0:    2000        .       MOVS     r0,#0
        0x000001e2:    f7ffffef    ....    BL       ADC_GET_RSLT ; 0x1c4
        0x000001e6:    4604        .F      MOV      r4,r0
        0x000001e8:    2004        .       MOVS     r0,#4
        0x000001ea:    f7ffffeb    ....    BL       ADC_GET_RSLT ; 0x1c4
        0x000001ee:    4905        .I      LDR      r1,[pc,#20] ; [0x204] = 0x2000001c
        0x000001f0:    6388        .c      STR      r0,[r1,#0x38]
        0x000001f2:    2000        .       MOVS     r0,#0
        0x000001f4:    81c8        ..      STRH     r0,[r1,#0xe]
        0x000001f6:    4620         F      MOV      r0,r4
        0x000001f8:    f001fba4    ....    BL       adcKeyRemap ; 0x1944
        0x000001fc:    bd10        ..      POP      {r4,pc}
    $d
        0x000001fe:    0000        ..      DCW    0
        0x00000200:    400e0000    ...@    DCD    1074659328
        0x00000204:    2000001c    ...     DCD    536870940
    $t
    i.APBCLK_ENABLE
    APBCLK_ENABLE
        0x00000208:    4902        .I      LDR      r1,[pc,#8] ; [0x214] = 0x50000200
        0x0000020a:    688a        .h      LDR      r2,[r1,#8]
        0x0000020c:    4302        .C      ORRS     r2,r2,r0
        0x0000020e:    608a        .`      STR      r2,[r1,#8]
        0x00000210:    4770        pG      BX       lr
    $d
        0x00000212:    0000        ..      DCW    0
        0x00000214:    50000200    ...P    DCD    1342177792
    $t
    i.AUX_DETECT
    AUX_DETECT
        0x00000218:    4803        .H      LDR      r0,[pc,#12] ; [0x228] = 0x50004268
        0x0000021a:    6800        .h      LDR      r0,[r0,#0]
        0x0000021c:    2800        .(      CMP      r0,#0
        0x0000021e:    d001        ..      BEQ      0x224 ; AUX_DETECT + 12
        0x00000220:    2000        .       MOVS     r0,#0
        0x00000222:    4770        pG      BX       lr
        0x00000224:    2001        .       MOVS     r0,#1
        0x00000226:    4770        pG      BX       lr
    $d
        0x00000228:    50004268    hB.P    DCD    1342194280
    $t
    i.BT_POWER_ON
    BT_POWER_ON
        0x0000022c:    4902        .I      LDR      r1,[pc,#8] ; [0x238] = 0x2000037c
        0x0000022e:    2001        .       MOVS     r0,#1
        0x00000230:    6008        .`      STR      r0,[r1,#0]
        0x00000232:    4902        .I      LDR      r1,[pc,#8] ; [0x23c] = 0x50004278
        0x00000234:    6008        .`      STR      r0,[r1,#0]
        0x00000236:    4770        pG      BX       lr
    $d
        0x00000238:    2000037c    |..     DCD    536871804
        0x0000023c:    50004278    xB.P    DCD    1342194296
    $t
    i.CLK_GetAPBClockFreq
    CLK_GetAPBClockFreq
        0x00000240:    b510        ..      PUSH     {r4,lr}
        0x00000242:    f000f809    ....    BL       CLK_GetHCLKFreq ; 0x258
        0x00000246:    4903        .I      LDR      r1,[pc,#12] ; [0x254] = 0x50000200
        0x00000248:    6ac9        .j      LDR      r1,[r1,#0x2c]
        0x0000024a:    1c49        I.      ADDS     r1,r1,#1
        0x0000024c:    f7ffff80    ....    BL       __aeabi_uidiv ; 0x150
        0x00000250:    bd10        ..      POP      {r4,pc}
    $d
        0x00000252:    0000        ..      DCW    0
        0x00000254:    50000200    ...P    DCD    1342177792
    $t
    i.CLK_GetHCLKFreq
    CLK_GetHCLKFreq
        0x00000258:    b5f8        ..      PUSH     {r3-r7,lr}
        0x0000025a:    4d1e        .M      LDR      r5,[pc,#120] ; [0x2d4] = 0x50000200
        0x0000025c:    6928        (i      LDR      r0,[r5,#0x10]
        0x0000025e:    4a1e        .J      LDR      r2,[pc,#120] ; [0x2d8] = 0xb71b00
        0x00000260:    0744        D.      LSLS     r4,r0,#29
        0x00000262:    0f64        d.      LSRS     r4,r4,#29
        0x00000264:    d00e        ..      BEQ      0x284 ; CLK_GetHCLKFreq + 44
        0x00000266:    4b1d        .K      LDR      r3,[pc,#116] ; [0x2dc] = 0x1518000
        0x00000268:    2c02        .,      CMP      r4,#2
        0x0000026a:    d00d        ..      BEQ      0x288 ; CLK_GetHCLKFreq + 48
        0x0000026c:    2c01        .,      CMP      r4,#1
        0x0000026e:    d00b        ..      BEQ      0x288 ; CLK_GetHCLKFreq + 48
        0x00000270:    2c03        .,      CMP      r4,#3
        0x00000272:    d02c        ,.      BEQ      0x2ce ; CLK_GetHCLKFreq + 118
        0x00000274:    4618        .F      MOV      r0,r3
        0x00000276:    69a9        .i      LDR      r1,[r5,#0x18]
        0x00000278:    0709        ..      LSLS     r1,r1,#28
        0x0000027a:    0f09        ..      LSRS     r1,r1,#28
        0x0000027c:    1c49        I.      ADDS     r1,r1,#1
        0x0000027e:    f7ffff67    ..g.    BL       __aeabi_uidiv ; 0x150
        0x00000282:    bdf8        ..      POP      {r3-r7,pc}
        0x00000284:    4610        .F      MOV      r0,r2
        0x00000286:    e7f6        ..      B        0x276 ; CLK_GetHCLKFreq + 30
        0x00000288:    a015        ..      ADR      r0,{pc}+0x58 ; 0x2e0
        0x0000028a:    6800        .h      LDR      r0,[r0,#0]
        0x0000028c:    9000        ..      STR      r0,[sp,#0]
        0x0000028e:    6a29        )j      LDR      r1,[r5,#0x20]
        0x00000290:    2000        .       MOVS     r0,#0
        0x00000292:    2605        .&      MOVS     r6,#5
        0x00000294:    0436        6.      LSLS     r6,r6,#16
        0x00000296:    4231        1B      TST      r1,r6
        0x00000298:    d115        ..      BNE      0x2c6 ; CLK_GetHCLKFreq + 110
        0x0000029a:    0308        ..      LSLS     r0,r1,#12
        0x0000029c:    d500        ..      BPL      0x2a0 ; CLK_GetHCLKFreq + 72
        0x0000029e:    461a        .F      MOV      r2,r3
        0x000002a0:    4610        .F      MOV      r0,r2
        0x000002a2:    038a        ..      LSLS     r2,r1,#14
        0x000002a4:    d40f        ..      BMI      0x2c6 ; CLK_GetHCLKFreq + 110
        0x000002a6:    040a        ..      LSLS     r2,r1,#16
        0x000002a8:    0f92        ..      LSRS     r2,r2,#30
        0x000002aa:    466b        kF      MOV      r3,sp
        0x000002ac:    5c9b        .\      LDRB     r3,[r3,r2]
        0x000002ae:    05ca        ..      LSLS     r2,r1,#23
        0x000002b0:    0489        ..      LSLS     r1,r1,#18
        0x000002b2:    0dd2        ..      LSRS     r2,r2,#23
        0x000002b4:    0ec9        ..      LSRS     r1,r1,#27
        0x000002b6:    1c92        ..      ADDS     r2,r2,#2
        0x000002b8:    1c89        ..      ADDS     r1,r1,#2
        0x000002ba:    0880        ..      LSRS     r0,r0,#2
        0x000002bc:    4359        YC      MULS     r1,r3,r1
        0x000002be:    4350        PC      MULS     r0,r2,r0
        0x000002c0:    f7ffff46    ..F.    BL       __aeabi_uidiv ; 0x150
        0x000002c4:    0080        ..      LSLS     r0,r0,#2
        0x000002c6:    2c01        .,      CMP      r4,#1
        0x000002c8:    d1d5        ..      BNE      0x276 ; CLK_GetHCLKFreq + 30
        0x000002ca:    0840        @.      LSRS     r0,r0,#1
        0x000002cc:    e7d3        ..      B        0x276 ; CLK_GetHCLKFreq + 30
        0x000002ce:    4805        .H      LDR      r0,[pc,#20] ; [0x2e4] = 0x2710
        0x000002d0:    e7d1        ..      B        0x276 ; CLK_GetHCLKFreq + 30
    $d
        0x000002d2:    0000        ..      DCW    0
        0x000002d4:    50000200    ...P    DCD    1342177792
        0x000002d8:    00b71b00    ....    DCD    12000000
        0x000002dc:    01518000    ..Q.    DCD    22118400
        0x000002e0:    04020201    ....    DCD    67240449
        0x000002e4:    00002710    .'..    DCD    10000
    $t
    i.CLK_Init
    CLK_Init
        0x000002e8:    b510        ..      PUSH     {r4,lr}
        0x000002ea:    f000ffd5    ....    BL       SYS_UnlockReg ; 0x1298
        0x000002ee:    4826        &H      LDR      r0,[pc,#152] ; [0x388] = 0x50000040
        0x000002f0:    6841        Ah      LDR      r1,[r0,#4]
        0x000002f2:    2203        ."      MOVS     r2,#3
        0x000002f4:    4311        .C      ORRS     r1,r1,r2
        0x000002f6:    6041        A`      STR      r1,[r0,#4]
        0x000002f8:    4c24        $L      LDR      r4,[pc,#144] ; [0x38c] = 0x50000200
        0x000002fa:    6820         h      LDR      r0,[r4,#0]
        0x000002fc:    2101        .!      MOVS     r1,#1
        0x000002fe:    4308        .C      ORRS     r0,r0,r1
        0x00000300:    6020         `      STR      r0,[r4,#0]
        0x00000302:    68e0        .h      LDR      r0,[r4,#0xc]
        0x00000304:    07c0        ..      LSLS     r0,r0,#31
        0x00000306:    0fc0        ..      LSRS     r0,r0,#31
        0x00000308:    d0fb        ..      BEQ      0x302 ; CLK_Init + 26
        0x0000030a:    4821        !H      LDR      r0,[pc,#132] ; [0x390] = 0x4a54
        0x0000030c:    6220         b      STR      r0,[r4,#0x20]
        0x0000030e:    68e1        .h      LDR      r1,[r4,#0xc]
        0x00000310:    2004        .       MOVS     r0,#4
        0x00000312:    4201        .B      TST      r1,r0
        0x00000314:    d0fb        ..      BEQ      0x30e ; CLK_Init + 38
        0x00000316:    6921        !i      LDR      r1,[r4,#0x10]
        0x00000318:    2002        .       MOVS     r0,#2
        0x0000031a:    08c9        ..      LSRS     r1,r1,#3
        0x0000031c:    00c9        ..      LSLS     r1,r1,#3
        0x0000031e:    4301        .C      ORRS     r1,r1,r0
        0x00000320:    6121        !a      STR      r1,[r4,#0x10]
        0x00000322:    6ae1        .j      LDR      r1,[r4,#0x2c]
        0x00000324:    2001        .       MOVS     r0,#1
        0x00000326:    4381        .C      BICS     r1,r1,r0
        0x00000328:    4301        .C      ORRS     r1,r1,r0
        0x0000032a:    62e1        .b      STR      r1,[r4,#0x2c]
        0x0000032c:    f001f860    ..`.    BL       SystemCoreClockUpdate ; 0x13f0
        0x00000330:    4818        .H      LDR      r0,[pc,#96] ; [0x394] = 0x1770
        0x00000332:    f000ffd9    ....    BL       SysTickInit ; 0x12e8
        0x00000336:    6960        `i      LDR      r0,[r4,#0x14]
        0x00000338:    2103        .!      MOVS     r1,#3
        0x0000033a:    0709        ..      LSLS     r1,r1,#28
        0x0000033c:    4388        .C      BICS     r0,r0,r1
        0x0000033e:    6160        `a      STR      r0,[r4,#0x14]
        0x00000340:    69e0        .i      LDR      r0,[r4,#0x1c]
        0x00000342:    21ff        .!      MOVS     r1,#0xff
        0x00000344:    3101        .1      ADDS     r1,#1
        0x00000346:    4388        .C      BICS     r0,r0,r1
        0x00000348:    61e0        .a      STR      r0,[r4,#0x1c]
        0x0000034a:    6960        `i      LDR      r0,[r4,#0x14]
        0x0000034c:    0080        ..      LSLS     r0,r0,#2
        0x0000034e:    0880        ..      LSRS     r0,r0,#2
        0x00000350:    6160        `a      STR      r0,[r4,#0x14]
        0x00000352:    69e0        .i      LDR      r0,[r4,#0x1c]
        0x00000354:    0049        I.      LSLS     r1,r1,#1
        0x00000356:    4388        .C      BICS     r0,r0,r1
        0x00000358:    61e0        .a      STR      r0,[r4,#0x1c]
        0x0000035a:    2103        .!      MOVS     r1,#3
        0x0000035c:    68a0        .h      LDR      r0,[r4,#8]
        0x0000035e:    0509        ..      LSLS     r1,r1,#20
        0x00000360:    4308        .C      ORRS     r0,r0,r1
        0x00000362:    60a0        .`      STR      r0,[r4,#8]
        0x00000364:    2101        .!      MOVS     r1,#1
        0x00000366:    0509        ..      LSLS     r1,r1,#20
        0x00000368:    2005        .       MOVS     r0,#5
        0x0000036a:    0700        ..      LSLS     r0,r0,#28
        0x0000036c:    68c2        .h      LDR      r2,[r0,#0xc]
        0x0000036e:    430a        .C      ORRS     r2,r2,r1
        0x00000370:    60c2        .`      STR      r2,[r0,#0xc]
        0x00000372:    68c2        .h      LDR      r2,[r0,#0xc]
        0x00000374:    438a        .C      BICS     r2,r2,r1
        0x00000376:    60c2        .`      STR      r2,[r0,#0xc]
        0x00000378:    f001fa0e    ....    BL       adcKeyClkInit ; 0x1798
        0x0000037c:    4902        .I      LDR      r1,[pc,#8] ; [0x388] = 0x50000040
        0x0000037e:    2000        .       MOVS     r0,#0
        0x00000380:    31c0        .1      ADDS     r1,r1,#0xc0
        0x00000382:    6008        .`      STR      r0,[r1,#0]
        0x00000384:    bd10        ..      POP      {r4,pc}
    $d
        0x00000386:    0000        ..      DCW    0
        0x00000388:    50000040    @..P    DCD    1342177344
        0x0000038c:    50000200    ...P    DCD    1342177792
        0x00000390:    00004a54    TJ..    DCD    19028
        0x00000394:    00001770    p...    DCD    6000
    $t
    i.ChangInputVolumeCheck
    ChangInputVolumeCheck
        0x00000398:    b5f8        ..      PUSH     {r3-r7,lr}
        0x0000039a:    4862        bH      LDR      r0,[pc,#392] ; [0x524] = 0x200003c9
        0x0000039c:    7801        .x      LDRB     r1,[r0,#0]
        0x0000039e:    4862        bH      LDR      r0,[pc,#392] ; [0x528] = 0x2000039d
        0x000003a0:    4d60        `M      LDR      r5,[pc,#384] ; [0x524] = 0x200003c9
        0x000003a2:    7800        .x      LDRB     r0,[r0,#0]
        0x000003a4:    2400        .$      MOVS     r4,#0
        0x000003a6:    1f6d        m.      SUBS     r5,r5,#5
        0x000003a8:    29a0        .)      CMP      r1,#0xa0
        0x000003aa:    d008        ..      BEQ      0x3be ; ChangInputVolumeCheck + 38
        0x000003ac:    1d69        i.      ADDS     r1,r5,#5
        0x000003ae:    780a        .x      LDRB     r2,[r1,#0]
        0x000003b0:    2aa2        .*      CMP      r2,#0xa2
        0x000003b2:    d06e        n.      BEQ      0x492 ; ChangInputVolumeCheck + 250
        0x000003b4:    20a0        .       MOVS     r0,#0xa0
        0x000003b6:    7008        .p      STRB     r0,[r1,#0]
        0x000003b8:    702c        ,p      STRB     r4,[r5,#0]
        0x000003ba:    706c        lp      STRB     r4,[r5,#1]
        0x000003bc:    e096        ..      B        0x4ec ; ChangInputVolumeCheck + 340
        0x000003be:    4b59        YK      LDR      r3,[pc,#356] ; [0x524] = 0x200003c9
        0x000003c0:    4958        XI      LDR      r1,[pc,#352] ; [0x524] = 0x200003c9
        0x000003c2:    4a58        XJ      LDR      r2,[pc,#352] ; [0x524] = 0x200003c9
        0x000003c4:    78ae        .x      LDRB     r6,[r5,#2]
        0x000003c6:    333b        ;3      ADDS     r3,r3,#0x3b
        0x000003c8:    1f49        I.      SUBS     r1,r1,#5
        0x000003ca:    1cd2        ..      ADDS     r2,r2,#3
        0x000003cc:    781f        .x      LDRB     r7,[r3,#0]
        0x000003ce:    6989        .i      LDR      r1,[r1,#0x18]
        0x000003d0:    7892        .x      LDRB     r2,[r2,#2]
        0x000003d2:    0033        3.      MOVS     r3,r6
        0x000003d4:    f001f9a8    ....    BL       __ARM_common_switch8 ; 0x1728
    $d
        0x000003d8:    0e070d0b    ....    DCD    235343115
        0x000003dc:    8c6f4b2f    /Ko.    DCD    2356103983
        0x000003e0:    5e2f1a22    "./^    DCD    1580145186
        0x000003e4:    000d        ..      DCW    13
    $t
        0x000003e6:    484f        OH      LDR      r0,[pc,#316] ; [0x524] = 0x200003c9
        0x000003e8:    1cc0        ..      ADDS     r0,r0,#3
        0x000003ea:    7087        .p      STRB     r7,[r0,#2]
        0x000003ec:    702c        ,p      STRB     r4,[r5,#0]
        0x000003ee:    f002f899    ....    BL       changeInputChannel ; 0x2524
        0x000003f2:    bdf8        ..      POP      {r3-r7,pc}
        0x000003f4:    4f4b        KO      LDR      r7,[pc,#300] ; [0x524] = 0x200003c9
        0x000003f6:    1cff        ..      ADDS     r7,r7,#3
        0x000003f8:    463e        >F      MOV      r6,r7
        0x000003fa:    3638        86      ADDS     r6,r6,#0x38
        0x000003fc:    5c71        q\      LDRB     r1,[r6,r1]
        0x000003fe:    428a        .B      CMP      r2,r1
        0x00000400:    d869        i.      BHI      0x4d6 ; ChangInputVolumeCheck + 318
        0x00000402:    f004f8a5    ....    BL       stopATask ; 0x4550
        0x00000406:    7831        1x      LDRB     r1,[r6,#0]
        0x00000408:    70b9        .p      STRB     r1,[r7,#2]
        0x0000040a:    e02e        ..      B        0x46a ; ChangInputVolumeCheck + 210
        0x0000040c:    4f45        EO      LDR      r7,[pc,#276] ; [0x524] = 0x200003c9
        0x0000040e:    1cff        ..      ADDS     r7,r7,#3
        0x00000410:    463e        >F      MOV      r6,r7
        0x00000412:    3638        86      ADDS     r6,r6,#0x38
        0x00000414:    5c71        q\      LDRB     r1,[r6,r1]
        0x00000416:    428a        .B      CMP      r2,r1
        0x00000418:    d34a        J.      BCC      0x4b0 ; ChangInputVolumeCheck + 280
        0x0000041a:    e7f2        ..      B        0x402 ; ChangInputVolumeCheck + 106
        0x0000041c:    4941        AI      LDR      r1,[pc,#260] ; [0x524] = 0x200003c9
        0x0000041e:    6928        (i      LDR      r0,[r5,#0x10]
        0x00000420:    313b        ;1      ADDS     r1,r1,#0x3b
        0x00000422:    5c09        .\      LDRB     r1,[r1,r0]
        0x00000424:    61a8        .a      STR      r0,[r5,#0x18]
        0x00000426:    428a        .B      CMP      r2,r1
        0x00000428:    d902        ..      BLS      0x430 ; ChangInputVolumeCheck + 152
        0x0000042a:    2002        .       MOVS     r0,#2
        0x0000042c:    70a8        .p      STRB     r0,[r5,#2]
        0x0000042e:    e052        R.      B        0x4d6 ; ChangInputVolumeCheck + 318
        0x00000430:    2008        .       MOVS     r0,#8
        0x00000432:    70a8        .p      STRB     r0,[r5,#2]
        0x00000434:    e03c        <.      B        0x4b0 ; ChangInputVolumeCheck + 280
        0x00000436:    42ba        .B      CMP      r2,r7
        0x00000438:    d13a        :.      BNE      0x4b0 ; ChangInputVolumeCheck + 280
        0x0000043a:    2e03        ..      CMP      r6,#3
        0x0000043c:    d004        ..      BEQ      0x448 ; ChangInputVolumeCheck + 176
        0x0000043e:    483b        ;H      LDR      r0,[pc,#236] ; [0x52c] = 0x2000012d
        0x00000440:    7801        .x      LDRB     r1,[r0,#0]
        0x00000442:    2901        .)      CMP      r1,#1
        0x00000444:    d005        ..      BEQ      0x452 ; ChangInputVolumeCheck + 186
        0x00000446:    e00c        ..      B        0x462 ; ChangInputVolumeCheck + 202
        0x00000448:    f001fd1a    ....    BL       ampMute ; 0x1e80
        0x0000044c:    f003fce8    ....    BL       powerOff ; 0x3e20
        0x00000450:    e00b        ..      B        0x46a ; ChangInputVolumeCheck + 210
        0x00000452:    7004        .p      STRB     r4,[r0,#0]
        0x00000454:    4836        6H      LDR      r0,[pc,#216] ; [0x530] = 0x40130000
        0x00000456:    6881        .h      LDR      r1,[r0,#8]
        0x00000458:    0849        I.      LSRS     r1,r1,#1
        0x0000045a:    0049        I.      LSLS     r1,r1,#1
        0x0000045c:    6081        .`      STR      r1,[r0,#8]
        0x0000045e:    4835        5H      LDR      r0,[pc,#212] ; [0x534] = 0x20000110
        0x00000460:    6004        .`      STR      r4,[r0,#0]
        0x00000462:    2002        .       MOVS     r0,#2
        0x00000464:    70a8        .p      STRB     r0,[r5,#2]
        0x00000466:    f004f931    ..1.    BL       turnUpVolume ; 0x46cc
        0x0000046a:    702c        ,p      STRB     r4,[r5,#0]
        0x0000046c:    bdf8        ..      POP      {r3-r7,pc}
        0x0000046e:    42ba        .B      CMP      r2,r7
        0x00000470:    d10c        ..      BNE      0x48c ; ChangInputVolumeCheck + 244
        0x00000472:    706c        lp      STRB     r4,[r5,#1]
        0x00000474:    f001fd04    ....    BL       ampMute ; 0x1e80
        0x00000478:    702c        ,p      STRB     r4,[r5,#0]
        0x0000047a:    4b2f        /K      LDR      r3,[pc,#188] ; [0x538] = 0x1d11
        0x0000047c:    2200        ."      MOVS     r2,#0
        0x0000047e:    2102        .!      MOVS     r1,#2
        0x00000480:    7928        (y      LDRB     r0,[r5,#4]
        0x00000482:    f004f841    ..A.    BL       startATask ; 0x4508
        0x00000486:    2001        .       MOVS     r0,#1
        0x00000488:    6168        ha      STR      r0,[r5,#0x14]
        0x0000048a:    e02f        /.      B        0x4ec ; ChangInputVolumeCheck + 340
        0x0000048c:    2001        .       MOVS     r0,#1
        0x0000048e:    7068        hp      STRB     r0,[r5,#1]
        0x00000490:    e00e        ..      B        0x4b0 ; ChangInputVolumeCheck + 280
        0x00000492:    e041        A.      B        0x518 ; ChangInputVolumeCheck + 384
        0x00000494:    42ba        .B      CMP      r2,r7
        0x00000496:    d108        ..      BNE      0x4aa ; ChangInputVolumeCheck + 274
        0x00000498:    616c        la      STR      r4,[r5,#0x14]
        0x0000049a:    706c        lp      STRB     r4,[r5,#1]
        0x0000049c:    f001fcf0    ....    BL       ampMute ; 0x1e80
        0x000004a0:    69a8        .i      LDR      r0,[r5,#0x18]
        0x000004a2:    f001ff23    ..#.    BL       ampSetVolume ; 0x22ec
        0x000004a6:    702c        ,p      STRB     r4,[r5,#0]
        0x000004a8:    e020         .      B        0x4ec ; ChangInputVolumeCheck + 340
        0x000004aa:    2001        .       MOVS     r0,#1
        0x000004ac:    7068        hp      STRB     r0,[r5,#1]
        0x000004ae:    6168        ha      STR      r0,[r5,#0x14]
        0x000004b0:    f004f8be    ....    BL       turnDownVolume ; 0x4630
        0x000004b4:    bdf8        ..      POP      {r3-r7,pc}
        0x000004b6:    4e1b        .N      LDR      r6,[pc,#108] ; [0x524] = 0x200003c9
        0x000004b8:    363b        ;6      ADDS     r6,r6,#0x3b
        0x000004ba:    42ba        .B      CMP      r2,r7
        0x000004bc:    d108        ..      BNE      0x4d0 ; ChangInputVolumeCheck + 312
        0x000004be:    706c        lp      STRB     r4,[r5,#1]
        0x000004c0:    f004f9da    ....    BL       unMute ; 0x4878
        0x000004c4:    2001        .       MOVS     r0,#1
        0x000004c6:    7068        hp      STRB     r0,[r5,#1]
        0x000004c8:    2002        .       MOVS     r0,#2
        0x000004ca:    f004f853    ..S.    BL       sysDelayMs ; 0x4574
        0x000004ce:    e002        ..      B        0x4d6 ; ChangInputVolumeCheck + 318
        0x000004d0:    5c70        p\      LDRB     r0,[r6,r1]
        0x000004d2:    4282        .B      CMP      r2,r0
        0x000004d4:    d902        ..      BLS      0x4dc ; ChangInputVolumeCheck + 324
        0x000004d6:    f004f8f9    ....    BL       turnUpVolume ; 0x46cc
        0x000004da:    bdf8        ..      POP      {r3-r7,pc}
        0x000004dc:    f004f842    ..B.    BL       stopFlashLed ; 0x4564
        0x000004e0:    706c        lp      STRB     r4,[r5,#1]
        0x000004e2:    4810        .H      LDR      r0,[pc,#64] ; [0x524] = 0x200003c9
        0x000004e4:    7831        1x      LDRB     r1,[r6,#0]
        0x000004e6:    7081        .p      STRB     r1,[r0,#2]
        0x000004e8:    702c        ,p      STRB     r4,[r5,#0]
        0x000004ea:    616c        la      STR      r4,[r5,#0x14]
        0x000004ec:    70ac        .p      STRB     r4,[r5,#2]
        0x000004ee:    bdf8        ..      POP      {r3-r7,pc}
        0x000004f0:    480c        .H      LDR      r0,[pc,#48] ; [0x524] = 0x200003c9
        0x000004f2:    1cc0        ..      ADDS     r0,r0,#3
        0x000004f4:    42ba        .B      CMP      r2,r7
        0x000004f6:    d002        ..      BEQ      0x4fe ; ChangInputVolumeCheck + 358
        0x000004f8:    6969        ii      LDR      r1,[r5,#0x14]
        0x000004fa:    2901        .)      CMP      r1,#1
        0x000004fc:    d1c6        ..      BNE      0x48c ; ChangInputVolumeCheck + 244
        0x000004fe:    706c        lp      STRB     r4,[r5,#1]
        0x00000500:    7087        .p      STRB     r7,[r0,#2]
        0x00000502:    f004f9b9    ....    BL       unMute ; 0x4878
        0x00000506:    702c        ,p      STRB     r4,[r5,#0]
        0x00000508:    2002        .       MOVS     r0,#2
        0x0000050a:    70a8        .p      STRB     r0,[r5,#2]
        0x0000050c:    4806        .H      LDR      r0,[pc,#24] ; [0x528] = 0x2000039d
        0x0000050e:    2200        ."      MOVS     r2,#0
        0x00000510:    4b0a        .K      LDR      r3,[pc,#40] ; [0x53c] = 0x399
        0x00000512:    2103        .!      MOVS     r1,#3
        0x00000514:    7800        .x      LDRB     r0,[r0,#0]
        0x00000516:    e002        ..      B        0x51e ; ChangInputVolumeCheck + 390
        0x00000518:    4b08        .K      LDR      r3,[pc,#32] ; [0x53c] = 0x399
        0x0000051a:    2200        ."      MOVS     r2,#0
        0x0000051c:    2101        .!      MOVS     r1,#1
        0x0000051e:    f003fff3    ....    BL       startATask ; 0x4508
        0x00000522:    bdf8        ..      POP      {r3-r7,pc}
    $d
        0x00000524:    200003c9    ...     DCD    536871881
        0x00000528:    2000039d    ...     DCD    536871837
        0x0000052c:    2000012d    -..     DCD    536871213
        0x00000530:    40130000    ...@    DCD    1074987008
        0x00000534:    20000110    ...     DCD    536871184
        0x00000538:    00001d11    ....    DCD    7441
        0x0000053c:    00000399    ....    DCD    921
    $t
    i.DECT_DC
    DECT_DC
        0x00000540:    4803        .H      LDR      r0,[pc,#12] ; [0x550] = 0x500042a8
        0x00000542:    6800        .h      LDR      r0,[r0,#0]
        0x00000544:    2800        .(      CMP      r0,#0
        0x00000546:    d001        ..      BEQ      0x54c ; DECT_DC + 12
        0x00000548:    2000        .       MOVS     r0,#0
        0x0000054a:    4770        pG      BX       lr
        0x0000054c:    2001        .       MOVS     r0,#1
        0x0000054e:    4770        pG      BX       lr
    $d
        0x00000550:    500042a8    .B.P    DCD    1342194344
    $t
    i.DECT_DC
    DECT_DC
        0x00000554:    4803        .H      LDR      r0,[pc,#12] ; [0x564] = 0x500042a8
        0x00000556:    6800        .h      LDR      r0,[r0,#0]
        0x00000558:    2800        .(      CMP      r0,#0
        0x0000055a:    d001        ..      BEQ      0x560 ; DECT_DC + 12
        0x0000055c:    2000        .       MOVS     r0,#0
        0x0000055e:    4770        pG      BX       lr
        0x00000560:    2001        .       MOVS     r0,#1
        0x00000562:    4770        pG      BX       lr
    $d
        0x00000564:    500042a8    .B.P    DCD    1342194344
    $t
    i.DWHP83SendCmd
    DWHP83SendCmd
        0x00000568:    b5f8        ..      PUSH     {r3-r7,lr}
        0x0000056a:    4607        .F      MOV      r7,r0
        0x0000056c:    468c        .F      MOV      r12,r1
        0x0000056e:    481b        .H      LDR      r0,[pc,#108] ; [0x5dc] = 0x20000784
        0x00000570:    2102        .!      MOVS     r1,#2
        0x00000572:    7001        .p      STRB     r1,[r0,#0]
        0x00000574:    2500        .%      MOVS     r5,#0
        0x00000576:    7045        Ep      STRB     r5,[r0,#1]
        0x00000578:    7085        .p      STRB     r5,[r0,#2]
        0x0000057a:    70c5        .p      STRB     r5,[r0,#3]
        0x0000057c:    2310        .#      MOVS     r3,#0x10
        0x0000057e:    7103        .q      STRB     r3,[r0,#4]
        0x00000580:    23cf        .#      MOVS     r3,#0xcf
        0x00000582:    7143        Cq      STRB     r3,[r0,#5]
        0x00000584:    2313        .#      MOVS     r3,#0x13
        0x00000586:    4e16        .N      LDR      r6,[pc,#88] ; [0x5e0] = 0x200000a4
        0x00000588:    7183        .q      STRB     r3,[r0,#6]
        0x0000058a:    88b4        ..      LDRH     r4,[r6,#4]
        0x0000058c:    4603        .F      MOV      r3,r0
        0x0000058e:    1c64        d.      ADDS     r4,r4,#1
        0x00000590:    80b4        ..      STRH     r4,[r6,#4]
        0x00000592:    725c        \r      STRB     r4,[r3,#9]
        0x00000594:    0a24        $.      LSRS     r4,r4,#8
        0x00000596:    729c        .r      STRB     r4,[r3,#0xa]
        0x00000598:    71da        .q      STRB     r2,[r3,#7]
        0x0000059a:    0a12        ..      LSRS     r2,r2,#8
        0x0000059c:    721a        .r      STRB     r2,[r3,#8]
        0x0000059e:    72c7        .r      STRB     r7,[r0,#0xb]
        0x000005a0:    4662        bF      MOV      r2,r12
        0x000005a2:    7302        .s      STRB     r2,[r0,#0xc]
        0x000005a4:    4632        2F      MOV      r2,r6
        0x000005a6:    3230        02      ADDS     r2,r2,#0x30
        0x000005a8:    7993        .y      LDRB     r3,[r2,#6]
        0x000005aa:    7343        Cs      STRB     r3,[r0,#0xd]
        0x000005ac:    1dc2        ..      ADDS     r2,r0,#7
        0x000005ae:    6232        2b      STR      r2,[r6,#0x20]
        0x000005b0:    7385        .s      STRB     r5,[r0,#0xe]
        0x000005b2:    7814        .x      LDRB     r4,[r2,#0]
        0x000005b4:    7855        Ux      LDRB     r5,[r2,#1]
        0x000005b6:    78d6        .x      LDRB     r6,[r2,#3]
        0x000005b8:    1964        d.      ADDS     r4,r4,r5
        0x000005ba:    7895        .x      LDRB     r5,[r2,#2]
        0x000005bc:    19ad        ..      ADDS     r5,r5,r6
        0x000005be:    1964        d.      ADDS     r4,r4,r5
        0x000005c0:    7915        .y      LDRB     r5,[r2,#4]
        0x000005c2:    7952        Ry      LDRB     r2,[r2,#5]
        0x000005c4:    1964        d.      ADDS     r4,r4,r5
        0x000005c6:    18a2        ..      ADDS     r2,r4,r2
        0x000005c8:    18d2        ..      ADDS     r2,r2,r3
        0x000005ca:    7382        .s      STRB     r2,[r0,#0xe]
        0x000005cc:    220f        ."      MOVS     r2,#0xf
        0x000005ce:    1c40        @.      ADDS     r0,r0,#1
        0x000005d0:    f004f95e    ..^.    BL       writeDwhp83 ; 0x4890
        0x000005d4:    f002fcbe    ....    BL       exitGpioI2c ; 0x2f54
        0x000005d8:    bdf8        ..      POP      {r3-r7,pc}
    $d
        0x000005da:    0000        ..      DCW    0
        0x000005dc:    20000784    ...     DCD    536872836
        0x000005e0:    200000a4    ...     DCD    536871076
    $t
    i.DWHP83UnMute
    DWHP83UnMute
        0x000005e4:    b508        ..      PUSH     {r3,lr}
        0x000005e6:    2001        .       MOVS     r0,#1
        0x000005e8:    4669        iF      MOV      r1,sp
        0x000005ea:    7008        .p      STRB     r0,[r1,#0]
        0x000005ec:    4602        .F      MOV      r2,r0
        0x000005ee:    21c3        .!      MOVS     r1,#0xc3
        0x000005f0:    4668        hF      MOV      r0,sp
        0x000005f2:    f004f94d    ..M.    BL       writeDwhp83 ; 0x4890
        0x000005f6:    f002fcad    ....    BL       exitGpioI2c ; 0x2f54
        0x000005fa:    bd08        ..      POP      {r3,pc}
    i.DWP83CuCV
    DWP83CuCV
        0x000005fc:    b5f0        ..      PUSH     {r4-r7,lr}
        0x000005fe:    480e        .H      LDR      r0,[pc,#56] ; [0x638] = 0x200000a4
        0x00000600:    7884        .x      LDRB     r4,[r0,#2]
        0x00000602:    2ca0        .,      CMP      r4,#0xa0
        0x00000604:    d016        ..      BEQ      0x634 ; DWP83CuCV + 56
        0x00000606:    490e        .I      LDR      r1,[pc,#56] ; [0x640] = 0x200003dc
        0x00000608:    2000        .       MOVS     r0,#0
        0x0000060a:    7809        .x      LDRB     r1,[r1,#0]
        0x0000060c:    4d0b        .M      LDR      r5,[pc,#44] ; [0x63c] = 0x20000724
        0x0000060e:    2604        .&      MOVS     r6,#4
        0x00000610:    b2cb        ..      UXTB     r3,r1
        0x00000612:    0041        A.      LSLS     r1,r0,#1
        0x00000614:    1949        I.      ADDS     r1,r1,r5
        0x00000616:    8b09        ..      LDRH     r1,[r1,#0x18]
        0x00000618:    2900        .)      CMP      r1,#0
        0x0000061a:    d008        ..      BEQ      0x62e ; DWP83CuCV + 50
        0x0000061c:    182a        *.      ADDS     r2,r5,r0
        0x0000061e:    4611        .F      MOV      r1,r2
        0x00000620:    3140        @1      ADDS     r1,r1,#0x40
        0x00000622:    7a0f        .z      LDRB     r7,[r1,#8]
        0x00000624:    42a7        .B      CMP      r7,r4
        0x00000626:    d102        ..      BNE      0x62e ; DWP83CuCV + 50
        0x00000628:    3220         2      ADDS     r2,r2,#0x20
        0x0000062a:    7416        .t      STRB     r6,[r2,#0x10]
        0x0000062c:    750b        .u      STRB     r3,[r1,#0x14]
        0x0000062e:    1c40        @.      ADDS     r0,r0,#1
        0x00000630:    280c        .(      CMP      r0,#0xc
        0x00000632:    d3ee        ..      BCC      0x612 ; DWP83CuCV + 22
        0x00000634:    bdf0        ..      POP      {r4-r7,pc}
    $d
        0x00000636:    0000        ..      DCW    0
        0x00000638:    200000a4    ...     DCD    536871076
        0x0000063c:    20000724    $..     DCD    536872740
        0x00000640:    200003dc    ...     DCD    536871900
    $t
    i.DWP83CuPowerOn
    DWP83CuPowerOn
        0x00000644:    2000        .       MOVS     r0,#0
        0x00000646:    4a04        .J      LDR      r2,[pc,#16] ; [0x658] = 0x20000724
        0x00000648:    2105        .!      MOVS     r1,#5
        0x0000064a:    1813        ..      ADDS     r3,r2,r0
        0x0000064c:    3320         3      ADDS     r3,r3,#0x20
        0x0000064e:    1c40        @.      ADDS     r0,r0,#1
        0x00000650:    7719        .w      STRB     r1,[r3,#0x1c]
        0x00000652:    280c        .(      CMP      r0,#0xc
        0x00000654:    d3f9        ..      BCC      0x64a ; DWP83CuPowerOn + 6
        0x00000656:    4770        pG      BX       lr
    $d
        0x00000658:    20000724    $..     DCD    536872740
    $t
    i.DWP83MuPowerOn
    DWP83MuPowerOn
        0x0000065c:    4802        .H      LDR      r0,[pc,#8] ; [0x668] = 0x200000a4
        0x0000065e:    2204        ."      MOVS     r2,#4
        0x00000660:    6941        Ai      LDR      r1,[r0,#0x14]
        0x00000662:    4311        .C      ORRS     r1,r1,r2
        0x00000664:    6141        Aa      STR      r1,[r0,#0x14]
        0x00000666:    4770        pG      BX       lr
    $d
        0x00000668:    200000a4    ...     DCD    536871076
    $t
    i.DWP83SpiritTask
    DWP83SpiritTask
        0x0000066c:    b570        p.      PUSH     {r4-r6,lr}
        0x0000066e:    f000fa8d    ....    BL       Dwhp83CuMuDetect ; 0xb8c
        0x00000672:    4c35        5L      LDR      r4,[pc,#212] ; [0x748] = 0x200000a4
        0x00000674:    7860        `x      LDRB     r0,[r4,#1]
        0x00000676:    2800        .(      CMP      r0,#0
        0x00000678:    d001        ..      BEQ      0x67e ; DWP83SpiritTask + 18
        0x0000067a:    200a        .       MOVS     r0,#0xa
        0x0000067c:    e043        C.      B        0x706 ; DWP83SpiritTask + 154
        0x0000067e:    4d33        3M      LDR      r5,[pc,#204] ; [0x74c] = 0x200002f8
        0x00000680:    26ff        .&      MOVS     r6,#0xff
        0x00000682:    602e        .`      STR      r6,[r5,#0]
        0x00000684:    6920         i      LDR      r0,[r4,#0x10]
        0x00000686:    4932        2I      LDR      r1,[pc,#200] ; [0x750] = 0xaa55
        0x00000688:    4288        .B      CMP      r0,r1
        0x0000068a:    d13e        >.      BNE      0x70a ; DWP83SpiritTask + 158
        0x0000068c:    69a0        .i      LDR      r0,[r4,#0x18]
        0x0000068e:    1c40        @.      ADDS     r0,r0,#1
        0x00000690:    61a0        .a      STR      r0,[r4,#0x18]
        0x00000692:    f000fab5    ....    BL       Dwhp83GetStatus ; 0xc00
        0x00000696:    482c        ,H      LDR      r0,[pc,#176] ; [0x748] = 0x200000a4
        0x00000698:    302c        ,0      ADDS     r0,r0,#0x2c
        0x0000069a:    7800        .x      LDRB     r0,[r0,#0]
        0x0000069c:    2801        .(      CMP      r0,#1
        0x0000069e:    d12c        ,.      BNE      0x6fa ; DWP83SpiritTask + 142
        0x000006a0:    6aa0        .j      LDR      r0,[r4,#0x28]
        0x000006a2:    1c40        @.      ADDS     r0,r0,#1
        0x000006a4:    62a0        .b      STR      r0,[r4,#0x28]
        0x000006a6:    07c0        ..      LSLS     r0,r0,#31
        0x000006a8:    d004        ..      BEQ      0x6b4 ; DWP83SpiritTask + 72
        0x000006aa:    88e2        ..      LDRH     r2,[r4,#6]
        0x000006ac:    78a1        .x      LDRB     r1,[r4,#2]
        0x000006ae:    2001        .       MOVS     r0,#1
        0x000006b0:    f7ffff5a    ..Z.    BL       DWHP83SendCmd ; 0x568
        0x000006b4:    2003        .       MOVS     r0,#3
        0x000006b6:    f003ff5d    ..].    BL       sysDelayMs ; 0x4574
        0x000006ba:    7d20         }      LDRB     r0,[r4,#0x14]
        0x000006bc:    07c0        ..      LSLS     r0,r0,#31
        0x000006be:    d004        ..      BEQ      0x6ca ; DWP83SpiritTask + 94
        0x000006c0:    88e2        ..      LDRH     r2,[r4,#6]
        0x000006c2:    2100        .!      MOVS     r1,#0
        0x000006c4:    2002        .       MOVS     r0,#2
        0x000006c6:    f7ffff4f    ..O.    BL       DWHP83SendCmd ; 0x568
        0x000006ca:    2003        .       MOVS     r0,#3
        0x000006cc:    f003ff52    ..R.    BL       sysDelayMs ; 0x4574
        0x000006d0:    7d20         }      LDRB     r0,[r4,#0x14]
        0x000006d2:    0740        @.      LSLS     r0,r0,#29
        0x000006d4:    d504        ..      BPL      0x6e0 ; DWP83SpiritTask + 116
        0x000006d6:    88e2        ..      LDRH     r2,[r4,#6]
        0x000006d8:    2100        .!      MOVS     r1,#0
        0x000006da:    2005        .       MOVS     r0,#5
        0x000006dc:    f7ffff44    ..D.    BL       DWHP83SendCmd ; 0x568
        0x000006e0:    2003        .       MOVS     r0,#3
        0x000006e2:    f003ff47    ..G.    BL       sysDelayMs ; 0x4574
        0x000006e6:    7d20         }      LDRB     r0,[r4,#0x14]
        0x000006e8:    0780        ..      LSLS     r0,r0,#30
        0x000006ea:    d506        ..      BPL      0x6fa ; DWP83SpiritTask + 142
        0x000006ec:    4819        .H      LDR      r0,[pc,#100] ; [0x754] = 0x200003dc
        0x000006ee:    88e2        ..      LDRH     r2,[r4,#6]
        0x000006f0:    7800        .x      LDRB     r0,[r0,#0]
        0x000006f2:    b2c1        ..      UXTB     r1,r0
        0x000006f4:    78a0        .x      LDRB     r0,[r4,#2]
        0x000006f6:    f000f85d    ..].    BL       DWPH83VolumeChange ; 0x7b4
        0x000006fa:    69a0        .i      LDR      r0,[r4,#0x18]
        0x000006fc:    1c40        @.      ADDS     r0,r0,#1
        0x000006fe:    61a0        .a      STR      r0,[r4,#0x18]
        0x00000700:    280a        .(      CMP      r0,#0xa
        0x00000702:    d919        ..      BLS      0x738 ; DWP83SpiritTask + 204
        0x00000704:    2008        .       MOVS     r0,#8
        0x00000706:    61a0        .a      STR      r0,[r4,#0x18]
        0x00000708:    e016        ..      B        0x738 ; DWP83SpiritTask + 204
        0x0000070a:    f002f915    ....    BL       dealMuContainer ; 0x2938
        0x0000070e:    4812        .H      LDR      r0,[pc,#72] ; [0x758] = 0x20000074
        0x00000710:    7800        .x      LDRB     r0,[r0,#0]
        0x00000712:    2802        .(      CMP      r0,#2
        0x00000714:    d010        ..      BEQ      0x738 ; DWP83SpiritTask + 204
        0x00000716:    4811        .H      LDR      r0,[pc,#68] ; [0x75c] = 0x20000075
        0x00000718:    7800        .x      LDRB     r0,[r0,#0]
        0x0000071a:    2800        .(      CMP      r0,#0
        0x0000071c:    d002        ..      BEQ      0x724 ; DWP83SpiritTask + 184
        0x0000071e:    2801        .(      CMP      r0,#1
        0x00000720:    d006        ..      BEQ      0x730 ; DWP83SpiritTask + 196
        0x00000722:    e008        ..      B        0x736 ; DWP83SpiritTask + 202
        0x00000724:    480e        .H      LDR      r0,[pc,#56] ; [0x760] = 0x200002d0
        0x00000726:    7800        .x      LDRB     r0,[r0,#0]
        0x00000728:    2808        .(      CMP      r0,#8
        0x0000072a:    d004        ..      BEQ      0x736 ; DWP83SpiritTask + 202
        0x0000072c:    2001        .       MOVS     r0,#1
        0x0000072e:    e000        ..      B        0x732 ; DWP83SpiritTask + 198
        0x00000730:    2005        .       MOVS     r0,#5
        0x00000732:    6028        (`      STR      r0,[r5,#0]
        0x00000734:    e000        ..      B        0x738 ; DWP83SpiritTask + 204
        0x00000736:    602e        .`      STR      r6,[r5,#0]
        0x00000738:    4b0a        .K      LDR      r3,[pc,#40] ; [0x764] = 0x66d
        0x0000073a:    2200        ."      MOVS     r2,#0
        0x0000073c:    490a        .I      LDR      r1,[pc,#40] ; [0x768] = 0x5dc
        0x0000073e:    78e0        .x      LDRB     r0,[r4,#3]
        0x00000740:    f003fee2    ....    BL       startATask ; 0x4508
        0x00000744:    bd70        p.      POP      {r4-r6,pc}
    $d
        0x00000746:    0000        ..      DCW    0
        0x00000748:    200000a4    ...     DCD    536871076
        0x0000074c:    200002f8    ...     DCD    536871672
        0x00000750:    0000aa55    U...    DCD    43605
        0x00000754:    200003dc    ...     DCD    536871900
        0x00000758:    20000074    t..     DCD    536871028
        0x0000075c:    20000075    u..     DCD    536871029
        0x00000760:    200002d0    ...     DCD    536871632
        0x00000764:    0000066d    m...    DCD    1645
        0x00000768:    000005dc    ....    DCD    1500
    $t
    i.DWPH83Init
    DWPH83Init
        0x0000076c:    b570        p.      PUSH     {r4-r6,lr}
        0x0000076e:    2400        .$      MOVS     r4,#0
        0x00000770:    f002fc00    ....    BL       getATask ; 0x2f74
        0x00000774:    490c        .I      LDR      r1,[pc,#48] ; [0x7a8] = 0x200000a4
        0x00000776:    2200        ."      MOVS     r2,#0
        0x00000778:    70c8        .p      STRB     r0,[r1,#3]
        0x0000077a:    4b0c        .K      LDR      r3,[pc,#48] ; [0x7ac] = 0x20000724
        0x0000077c:    2505        .%      MOVS     r5,#5
        0x0000077e:    618a        .a      STR      r2,[r1,#0x18]
        0x00000780:    0061        a.      LSLS     r1,r4,#1
        0x00000782:    525a        ZR      STRH     r2,[r3,r1]
        0x00000784:    18c9        ..      ADDS     r1,r1,r3
        0x00000786:    1c64        d.      ADDS     r4,r4,#1
        0x00000788:    830d        ..      STRH     r5,[r1,#0x18]
        0x0000078a:    2c0a        .,      CMP      r4,#0xa
        0x0000078c:    d3f8        ..      BCC      0x780 ; DWPH83Init + 20
        0x0000078e:    4a06        .J      LDR      r2,[pc,#24] ; [0x7a8] = 0x200000a4
        0x00000790:    21ff        .!      MOVS     r1,#0xff
        0x00000792:    3208        .2      ADDS     r2,r2,#8
        0x00000794:    7091        .p      STRB     r1,[r2,#2]
        0x00000796:    7051        Qp      STRB     r1,[r2,#1]
        0x00000798:    7011        .p      STRB     r1,[r2,#0]
        0x0000079a:    217d        }!      MOVS     r1,#0x7d
        0x0000079c:    4b04        .K      LDR      r3,[pc,#16] ; [0x7b0] = 0x66d
        0x0000079e:    2200        ."      MOVS     r2,#0
        0x000007a0:    00c9        ..      LSLS     r1,r1,#3
        0x000007a2:    f003feb1    ....    BL       startATask ; 0x4508
        0x000007a6:    bd70        p.      POP      {r4-r6,pc}
    $d
        0x000007a8:    200000a4    ...     DCD    536871076
        0x000007ac:    20000724    $..     DCD    536872740
        0x000007b0:    0000066d    m...    DCD    1645
    $t
    i.DWPH83VolumeChange
    DWPH83VolumeChange
        0x000007b4:    b5f8        ..      PUSH     {r3-r7,lr}
        0x000007b6:    4606        .F      MOV      r6,r0
        0x000007b8:    460f        .F      MOV      r7,r1
        0x000007ba:    4818        .H      LDR      r0,[pc,#96] ; [0x81c] = 0x20000784
        0x000007bc:    2102        .!      MOVS     r1,#2
        0x000007be:    7001        .p      STRB     r1,[r0,#0]
        0x000007c0:    2500        .%      MOVS     r5,#0
        0x000007c2:    7045        Ep      STRB     r5,[r0,#1]
        0x000007c4:    7085        .p      STRB     r5,[r0,#2]
        0x000007c6:    70c5        .p      STRB     r5,[r0,#3]
        0x000007c8:    2310        .#      MOVS     r3,#0x10
        0x000007ca:    7103        .q      STRB     r3,[r0,#4]
        0x000007cc:    23cf        .#      MOVS     r3,#0xcf
        0x000007ce:    7143        Cq      STRB     r3,[r0,#5]
        0x000007d0:    2313        .#      MOVS     r3,#0x13
        0x000007d2:    7183        .q      STRB     r3,[r0,#6]
        0x000007d4:    4b12        .K      LDR      r3,[pc,#72] ; [0x820] = 0x200000a4
        0x000007d6:    889c        ..      LDRH     r4,[r3,#4]
        0x000007d8:    1c64        d.      ADDS     r4,r4,#1
        0x000007da:    809c        ..      STRH     r4,[r3,#4]
        0x000007dc:    4603        .F      MOV      r3,r0
        0x000007de:    725c        \r      STRB     r4,[r3,#9]
        0x000007e0:    0a24        $.      LSRS     r4,r4,#8
        0x000007e2:    729c        .r      STRB     r4,[r3,#0xa]
        0x000007e4:    71da        .q      STRB     r2,[r3,#7]
        0x000007e6:    0a12        ..      LSRS     r2,r2,#8
        0x000007e8:    721a        .r      STRB     r2,[r3,#8]
        0x000007ea:    2204        ."      MOVS     r2,#4
        0x000007ec:    72c2        .r      STRB     r2,[r0,#0xb]
        0x000007ee:    7306        .s      STRB     r6,[r0,#0xc]
        0x000007f0:    7347        Gs      STRB     r7,[r0,#0xd]
        0x000007f2:    79c3        .y      LDRB     r3,[r0,#7]
        0x000007f4:    7a04        .z      LDRB     r4,[r0,#8]
        0x000007f6:    7a85        .z      LDRB     r5,[r0,#0xa]
        0x000007f8:    191b        ..      ADDS     r3,r3,r4
        0x000007fa:    7a44        Dz      LDRB     r4,[r0,#9]
        0x000007fc:    b2fa        ..      UXTB     r2,r7
        0x000007fe:    1964        d.      ADDS     r4,r4,r5
        0x00000800:    191b        ..      ADDS     r3,r3,r4
        0x00000802:    1d1b        ..      ADDS     r3,r3,#4
        0x00000804:    b2f4        ..      UXTB     r4,r6
        0x00000806:    191b        ..      ADDS     r3,r3,r4
        0x00000808:    189a        ..      ADDS     r2,r3,r2
        0x0000080a:    7382        .s      STRB     r2,[r0,#0xe]
        0x0000080c:    220f        ."      MOVS     r2,#0xf
        0x0000080e:    1c40        @.      ADDS     r0,r0,#1
        0x00000810:    f004f83e    ..>.    BL       writeDwhp83 ; 0x4890
        0x00000814:    f002fb9e    ....    BL       exitGpioI2c ; 0x2f54
        0x00000818:    bdf8        ..      POP      {r3-r7,pc}
    $d
        0x0000081a:    0000        ..      DCW    0
        0x0000081c:    20000784    ...     DCD    536872836
        0x00000820:    200000a4    ...     DCD    536871076
    $t
    i.DrvADC_EnableInt
    DrvADC_EnableInt
        0x00000824:    4805        .H      LDR      r0,[pc,#20] ; [0x83c] = 0x400e0000
        0x00000826:    2107        .!      MOVS     r1,#7
        0x00000828:    6301        .c      STR      r1,[r0,#0x30]
        0x0000082a:    6a01        .j      LDR      r1,[r0,#0x20]
        0x0000082c:    2202        ."      MOVS     r2,#2
        0x0000082e:    4311        .C      ORRS     r1,r1,r2
        0x00000830:    6201        .b      STR      r1,[r0,#0x20]
        0x00000832:    4903        .I      LDR      r1,[pc,#12] ; [0x840] = 0xe000e100
        0x00000834:    0710        ..      LSLS     r0,r2,#28
        0x00000836:    6008        .`      STR      r0,[r1,#0]
        0x00000838:    4770        pG      BX       lr
    $d
        0x0000083a:    0000        ..      DCW    0
        0x0000083c:    400e0000    ...@    DCD    1074659328
        0x00000840:    e000e100    ....    DCD    3758153984
    $t
    i.DrvI2C_Init
    DrvI2C_Init
        0x00000844:    b5f7        ..      PUSH     {r0-r2,r4-r7,lr}
        0x00000846:    460d        .F      MOV      r5,r1
        0x00000848:    4604        .F      MOV      r4,r0
        0x0000084a:    f7fffcf9    ....    BL       CLK_GetAPBClockFreq ; 0x240
        0x0000084e:    210a        .!      MOVS     r1,#0xa
        0x00000850:    4348        HC      MULS     r0,r1,r0
        0x00000852:    00a9        ..      LSLS     r1,r5,#2
        0x00000854:    f7fffc7c    ..|.    BL       __aeabi_uidiv ; 0x150
        0x00000858:    1d40        @.      ADDS     r0,r0,#5
        0x0000085a:    210a        .!      MOVS     r1,#0xa
        0x0000085c:    f7fffc78    ..x.    BL       __aeabi_uidiv ; 0x150
        0x00000860:    4e16        .N      LDR      r6,[pc,#88] ; [0x8bc] = 0x40120000
        0x00000862:    1e45        E.      SUBS     r5,r0,#1
        0x00000864:    4f16        .O      LDR      r7,[pc,#88] ; [0x8c0] = 0x50000200
        0x00000866:    42b4        .B      CMP      r4,r6
        0x00000868:    d105        ..      BNE      0x876 ; DrvI2C_Init + 50
        0x0000086a:    1560        `.      ASRS     r0,r4,#21
        0x0000086c:    f000fcef    ....    BL       SYS_RESET_IP2 ; 0x124e
        0x00000870:    68b8        .h      LDR      r0,[r7,#8]
        0x00000872:    1561        a.      ASRS     r1,r4,#21
        0x00000874:    e006        ..      B        0x884 ; DrvI2C_Init + 64
        0x00000876:    20ff        .       MOVS     r0,#0xff
        0x00000878:    3001        .0      ADDS     r0,#1
        0x0000087a:    f000fce8    ....    BL       SYS_RESET_IP2 ; 0x124e
        0x0000087e:    68b8        .h      LDR      r0,[r7,#8]
        0x00000880:    21ff        .!      MOVS     r1,#0xff
        0x00000882:    3101        .1      ADDS     r1,#1
        0x00000884:    4308        .C      ORRS     r0,r0,r1
        0x00000886:    60b8        .`      STR      r0,[r7,#8]
        0x00000888:    6920         i      LDR      r0,[r4,#0x10]
        0x0000088a:    4328        (C      ORRS     r0,r0,r5
        0x0000088c:    6120         a      STR      r0,[r4,#0x10]
        0x0000088e:    9802        ..      LDR      r0,[sp,#8]
        0x00000890:    2800        .(      CMP      r0,#0
        0x00000892:    d00d        ..      BEQ      0x8b0 ; DrvI2C_Init + 108
        0x00000894:    6820         h      LDR      r0,[r4,#0]
        0x00000896:    2180        .!      MOVS     r1,#0x80
        0x00000898:    4308        .C      ORRS     r0,r0,r1
        0x0000089a:    6020         `      STR      r0,[r4,#0]
        0x0000089c:    4809        .H      LDR      r0,[pc,#36] ; [0x8c4] = 0x40020000
        0x0000089e:    4284        .B      CMP      r4,r0
        0x000008a0:    d101        ..      BNE      0x8a6 ; DrvI2C_Init + 98
        0x000008a2:    2012        .       MOVS     r0,#0x12
        0x000008a4:    e002        ..      B        0x8ac ; DrvI2C_Init + 104
        0x000008a6:    42b4        .B      CMP      r4,r6
        0x000008a8:    d102        ..      BNE      0x8b0 ; DrvI2C_Init + 108
        0x000008aa:    2013        .       MOVS     r0,#0x13
        0x000008ac:    f000fca0    ....    BL       NVIC_EnableIRQ ; 0x11f0
        0x000008b0:    6820         h      LDR      r0,[r4,#0]
        0x000008b2:    2140        @!      MOVS     r1,#0x40
        0x000008b4:    4308        .C      ORRS     r0,r0,r1
        0x000008b6:    6020         `      STR      r0,[r4,#0]
        0x000008b8:    bdfe        ..      POP      {r1-r7,pc}
    $d
        0x000008ba:    0000        ..      DCW    0
        0x000008bc:    40120000    ...@    DCD    1074921472
        0x000008c0:    50000200    ...P    DCD    1342177792
        0x000008c4:    40020000    ...@    DCD    1073872896
    $t
    i.DrvI2S_EnableInt
    DrvI2S_EnableInt
        0x000008c8:    4904        .I      LDR      r1,[pc,#16] ; [0x8dc] = 0x401a0000
        0x000008ca:    688a        .h      LDR      r2,[r1,#8]
        0x000008cc:    4302        .C      ORRS     r2,r2,r0
        0x000008ce:    608a        .`      STR      r2,[r1,#8]
        0x000008d0:    2001        .       MOVS     r0,#1
        0x000008d2:    4903        .I      LDR      r1,[pc,#12] ; [0x8e0] = 0xe000e100
        0x000008d4:    06c0        ..      LSLS     r0,r0,#27
        0x000008d6:    6008        .`      STR      r0,[r1,#0]
        0x000008d8:    4770        pG      BX       lr
    $d
        0x000008da:    0000        ..      DCW    0
        0x000008dc:    401a0000    ...@    DCD    1075445760
        0x000008e0:    e000e100    ....    DCD    3758153984
    $t
    i.DrvSPI_Init
    DrvSPI_Init
        0x000008e4:    b5ff        ..      PUSH     {r0-r7,lr}
        0x000008e6:    4924        $I      LDR      r1,[pc,#144] ; [0x978] = 0x50000200
        0x000008e8:    4f22        "O      LDR      r7,[pc,#136] ; [0x974] = 0x40030000
        0x000008ea:    461d        .F      MOV      r5,r3
        0x000008ec:    14ba        ..      ASRS     r2,r7,#18
        0x000008ee:    010b        ..      LSLS     r3,r1,#4
        0x000008f0:    014e        N.      LSLS     r6,r1,#5
        0x000008f2:    b081        ..      SUB      sp,sp,#4
        0x000008f4:    4604        .F      MOV      r4,r0
        0x000008f6:    42b8        .B      CMP      r0,r7
        0x000008f8:    d102        ..      BNE      0x900 ; DrvSPI_Init + 28
        0x000008fa:    6888        .h      LDR      r0,[r1,#8]
        0x000008fc:    4310        .C      ORRS     r0,r0,r2
        0x000008fe:    e00a        ..      B        0x916 ; DrvSPI_Init + 50
        0x00000900:    481e        .H      LDR      r0,[pc,#120] ; [0x97c] = 0x40034000
        0x00000902:    4284        .B      CMP      r4,r0
        0x00000904:    d102        ..      BNE      0x90c ; DrvSPI_Init + 40
        0x00000906:    6888        .h      LDR      r0,[r1,#8]
        0x00000908:    4318        .C      ORRS     r0,r0,r3
        0x0000090a:    e004        ..      B        0x916 ; DrvSPI_Init + 50
        0x0000090c:    481c        .H      LDR      r0,[pc,#112] ; [0x980] = 0x40130000
        0x0000090e:    4284        .B      CMP      r4,r0
        0x00000910:    d102        ..      BNE      0x918 ; DrvSPI_Init + 52
        0x00000912:    6888        .h      LDR      r0,[r1,#8]
        0x00000914:    4330        0C      ORRS     r0,r0,r6
        0x00000916:    6088        .`      STR      r0,[r1,#8]
        0x00000918:    42bc        .B      CMP      r4,r7
        0x0000091a:    d101        ..      BNE      0x920 ; DrvSPI_Init + 60
        0x0000091c:    4610        .F      MOV      r0,r2
        0x0000091e:    e008        ..      B        0x932 ; DrvSPI_Init + 78
        0x00000920:    4816        .H      LDR      r0,[pc,#88] ; [0x97c] = 0x40034000
        0x00000922:    4284        .B      CMP      r4,r0
        0x00000924:    d101        ..      BNE      0x92a ; DrvSPI_Init + 70
        0x00000926:    4618        .F      MOV      r0,r3
        0x00000928:    e003        ..      B        0x932 ; DrvSPI_Init + 78
        0x0000092a:    4815        .H      LDR      r0,[pc,#84] ; [0x980] = 0x40130000
        0x0000092c:    4284        .B      CMP      r4,r0
        0x0000092e:    d105        ..      BNE      0x93c ; DrvSPI_Init + 88
        0x00000930:    4630        0F      MOV      r0,r6
        0x00000932:    f000fc95    ....    BL       SYS_RESET_IP2 ; 0x1260
        0x00000936:    2d20         -      CMP      r5,#0x20
        0x00000938:    d003        ..      BEQ      0x942 ; DrvSPI_Init + 94
        0x0000093a:    e003        ..      B        0x944 ; DrvSPI_Init + 96
        0x0000093c:    2000        .       MOVS     r0,#0
        0x0000093e:    b005        ..      ADD      sp,sp,#0x14
        0x00000940:    bdf0        ..      POP      {r4-r7,pc}
        0x00000942:    2500        .%      MOVS     r5,#0
        0x00000944:    6820         h      LDR      r0,[r4,#0]
        0x00000946:    21f8        .!      MOVS     r1,#0xf8
        0x00000948:    4388        .C      BICS     r0,r0,r1
        0x0000094a:    2d20         -      CMP      r5,#0x20
        0x0000094c:    d100        ..      BNE      0x950 ; DrvSPI_Init + 108
        0x0000094e:    2500        .%      MOVS     r5,#0
        0x00000950:    00e9        ..      LSLS     r1,r5,#3
        0x00000952:    4308        .C      ORRS     r0,r0,r1
        0x00000954:    6020         `      STR      r0,[r4,#0]
        0x00000956:    9802        ..      LDR      r0,[sp,#8]
        0x00000958:    6821        !h      LDR      r1,[r4,#0]
        0x0000095a:    2201        ."      MOVS     r2,#1
        0x0000095c:    0492        ..      LSLS     r2,r2,#18
        0x0000095e:    4391        .C      BICS     r1,r1,r2
        0x00000960:    4301        .C      ORRS     r1,r1,r0
        0x00000962:    6021        !`      STR      r1,[r4,#0]
        0x00000964:    9803        ..      LDR      r0,[sp,#0xc]
        0x00000966:    6821        !h      LDR      r1,[r4,#0]
        0x00000968:    2206        ."      MOVS     r2,#6
        0x0000096a:    4391        .C      BICS     r1,r1,r2
        0x0000096c:    4301        .C      ORRS     r1,r1,r0
        0x0000096e:    6021        !`      STR      r1,[r4,#0]
        0x00000970:    2001        .       MOVS     r0,#1
        0x00000972:    e7e4        ..      B        0x93e ; DrvSPI_Init + 90
    $d
        0x00000974:    40030000    ...@    DCD    1073938432
        0x00000978:    50000200    ...P    DCD    1342177792
        0x0000097c:    40034000    .@.@    DCD    1073954816
        0x00000980:    40130000    ...@    DCD    1074987008
    $t
    i.DrvTIMER_EnableInt
    DrvTIMER_EnableInt
        0x00000984:    b510        ..      PUSH     {r4,lr}
        0x00000986:    6882        .h      LDR      r2,[r0,#8]
        0x00000988:    6082        .`      STR      r2,[r0,#8]
        0x0000098a:    008a        ..      LSLS     r2,r1,#2
        0x0000098c:    d504        ..      BPL      0x998 ; DrvTIMER_EnableInt + 20
        0x0000098e:    6802        .h      LDR      r2,[r0,#0]
        0x00000990:    2301        .#      MOVS     r3,#1
        0x00000992:    075b        [.      LSLS     r3,r3,#29
        0x00000994:    431a        .C      ORRS     r2,r2,r3
        0x00000996:    6002        .`      STR      r2,[r0,#0]
        0x00000998:    0689        ..      LSLS     r1,r1,#26
        0x0000099a:    d503        ..      BPL      0x9a4 ; DrvTIMER_EnableInt + 32
        0x0000099c:    6941        Ai      LDR      r1,[r0,#0x14]
        0x0000099e:    2220         "      MOVS     r2,#0x20
        0x000009a0:    4311        .C      ORRS     r1,r1,r2
        0x000009a2:    6141        Aa      STR      r1,[r0,#0x14]
        0x000009a4:    4909        .I      LDR      r1,[pc,#36] ; [0x9cc] = 0x40010000
        0x000009a6:    4288        .B      CMP      r0,r1
        0x000009a8:    d101        ..      BNE      0x9ae ; DrvTIMER_EnableInt + 42
        0x000009aa:    2008        .       MOVS     r0,#8
        0x000009ac:    e004        ..      B        0x9b8 ; DrvTIMER_EnableInt + 52
        0x000009ae:    4907        .I      LDR      r1,[pc,#28] ; [0x9cc] = 0x40010000
        0x000009b0:    3120         1      ADDS     r1,r1,#0x20
        0x000009b2:    4288        .B      CMP      r0,r1
        0x000009b4:    d103        ..      BNE      0x9be ; DrvTIMER_EnableInt + 58
        0x000009b6:    2009        .       MOVS     r0,#9
        0x000009b8:    f000fc24    ..$.    BL       NVIC_EnableIRQ ; 0x1204
        0x000009bc:    bd10        ..      POP      {r4,pc}
        0x000009be:    4904        .I      LDR      r1,[pc,#16] ; [0x9d0] = 0x40110000
        0x000009c0:    4288        .B      CMP      r0,r1
        0x000009c2:    d101        ..      BNE      0x9c8 ; DrvTIMER_EnableInt + 68
        0x000009c4:    200a        .       MOVS     r0,#0xa
        0x000009c6:    e7f7        ..      B        0x9b8 ; DrvTIMER_EnableInt + 52
        0x000009c8:    200b        .       MOVS     r0,#0xb
        0x000009ca:    e7f5        ..      B        0x9b8 ; DrvTIMER_EnableInt + 52
    $d
        0x000009cc:    40010000    ...@    DCD    1073807360
        0x000009d0:    40110000    ...@    DCD    1074855936
    $t
    i.DrvTIMER_Init
    DrvTIMER_Init
        0x000009d4:    b5f8        ..      PUSH     {r3-r7,lr}
        0x000009d6:    4604        .F      MOV      r4,r0
        0x000009d8:    4811        .H      LDR      r0,[pc,#68] ; [0xa20] = 0x40010000
        0x000009da:    461d        .F      MOV      r5,r3
        0x000009dc:    4616        .F      MOV      r6,r2
        0x000009de:    460f        .F      MOV      r7,r1
        0x000009e0:    4284        .B      CMP      r4,r0
        0x000009e2:    d101        ..      BNE      0x9e8 ; DrvTIMER_Init + 20
        0x000009e4:    2004        .       MOVS     r0,#4
        0x000009e6:    e00b        ..      B        0xa00 ; DrvTIMER_Init + 44
        0x000009e8:    480d        .H      LDR      r0,[pc,#52] ; [0xa20] = 0x40010000
        0x000009ea:    3020         0      ADDS     r0,r0,#0x20
        0x000009ec:    4284        .B      CMP      r4,r0
        0x000009ee:    d101        ..      BNE      0x9f4 ; DrvTIMER_Init + 32
        0x000009f0:    2008        .       MOVS     r0,#8
        0x000009f2:    e005        ..      B        0xa00 ; DrvTIMER_Init + 44
        0x000009f4:    480b        .H      LDR      r0,[pc,#44] ; [0xa24] = 0x40110000
        0x000009f6:    4284        .B      CMP      r4,r0
        0x000009f8:    d101        ..      BNE      0x9fe ; DrvTIMER_Init + 42
        0x000009fa:    2010        .       MOVS     r0,#0x10
        0x000009fc:    e000        ..      B        0xa00 ; DrvTIMER_Init + 44
        0x000009fe:    2020                MOVS     r0,#0x20
        0x00000a00:    f7fffc02    ....    BL       APBCLK_ENABLE ; 0x208
        0x00000a04:    68a0        .h      LDR      r0,[r4,#8]
        0x00000a06:    2103        .!      MOVS     r1,#3
        0x00000a08:    4308        .C      ORRS     r0,r0,r1
        0x00000a0a:    60a0        .`      STR      r0,[r4,#8]
        0x00000a0c:    69a0        .i      LDR      r0,[r4,#0x18]
        0x00000a0e:    2101        .!      MOVS     r1,#1
        0x00000a10:    4308        .C      ORRS     r0,r0,r1
        0x00000a12:    61a0        .a      STR      r0,[r4,#0x18]
        0x00000a14:    6066        f`      STR      r6,[r4,#4]
        0x00000a16:    4904        .I      LDR      r1,[pc,#16] ; [0xa28] = 0x2010000
        0x00000a18:    19e8        ..      ADDS     r0,r5,r7
        0x00000a1a:    1840        @.      ADDS     r0,r0,r1
        0x00000a1c:    6020         `      STR      r0,[r4,#0]
        0x00000a1e:    bdf8        ..      POP      {r3-r7,pc}
    $d
        0x00000a20:    40010000    ...@    DCD    1073807360
        0x00000a24:    40110000    ...@    DCD    1074855936
        0x00000a28:    02010000    ....    DCD    33619968
    $t
    i.DrvUART_EnableInt
    DrvUART_EnableInt
        0x00000a2c:    6842        Bh      LDR      r2,[r0,#4]
        0x00000a2e:    430a        .C      ORRS     r2,r2,r1
        0x00000a30:    6042        B`      STR      r2,[r0,#4]
        0x00000a32:    4a05        .J      LDR      r2,[pc,#20] ; [0xa48] = 0x40050000
        0x00000a34:    4905        .I      LDR      r1,[pc,#20] ; [0xa4c] = 0xe000e100
        0x00000a36:    4290        .B      CMP      r0,r2
        0x00000a38:    d102        ..      BNE      0xa40 ; DrvUART_EnableInt + 20
        0x00000a3a:    2001        .       MOVS     r0,#1
        0x00000a3c:    0300        ..      LSLS     r0,r0,#12
        0x00000a3e:    e001        ..      B        0xa44 ; DrvUART_EnableInt + 24
        0x00000a40:    2001        .       MOVS     r0,#1
        0x00000a42:    0340        @.      LSLS     r0,r0,#13
        0x00000a44:    6008        .`      STR      r0,[r1,#0]
        0x00000a46:    4770        pG      BX       lr
    $d
        0x00000a48:    40050000    ...@    DCD    1074069504
        0x00000a4c:    e000e100    ....    DCD    3758153984
    $t
    i.DrvUART_Init
    DrvUART_Init
        0x00000a50:    b5f8        ..      PUSH     {r3-r7,lr}
        0x00000a52:    4605        .F      MOV      r5,r0
        0x00000a54:    4e26        &N      LDR      r6,[pc,#152] ; [0xaf0] = 0x50000200
        0x00000a56:    460c        .F      MOV      r4,r1
        0x00000a58:    6808        .h      LDR      r0,[r1,#0]
        0x00000a5a:    6971        qi      LDR      r1,[r6,#0x14]
        0x00000a5c:    2203        ."      MOVS     r2,#3
        0x00000a5e:    0612        ..      LSLS     r2,r2,#24
        0x00000a60:    4391        .C      BICS     r1,r1,r2
        0x00000a62:    4301        .C      ORRS     r1,r1,r0
        0x00000a64:    6171        qa      STR      r1,[r6,#0x14]
        0x00000a66:    6860        `h      LDR      r0,[r4,#4]
        0x00000a68:    69b1        .i      LDR      r1,[r6,#0x18]
        0x00000a6a:    220f        ."      MOVS     r2,#0xf
        0x00000a6c:    0212        ..      LSLS     r2,r2,#8
        0x00000a6e:    0200        ..      LSLS     r0,r0,#8
        0x00000a70:    38ff        .8      SUBS     r0,r0,#0xff
        0x00000a72:    4391        .C      BICS     r1,r1,r2
        0x00000a74:    3801        .8      SUBS     r0,#1
        0x00000a76:    4301        .C      ORRS     r1,r1,r0
        0x00000a78:    61b1        .a      STR      r1,[r6,#0x18]
        0x00000a7a:    481e        .H      LDR      r0,[pc,#120] ; [0xaf4] = 0x40050000
        0x00000a7c:    4285        .B      CMP      r5,r0
        0x00000a7e:    d101        ..      BNE      0xa84 ; DrvUART_Init + 52
        0x00000a80:    01f7        ..      LSLS     r7,r6,#7
        0x00000a82:    e001        ..      B        0xa88 ; DrvUART_Init + 56
        0x00000a84:    2701        .'      MOVS     r7,#1
        0x00000a86:    047f        ..      LSLS     r7,r7,#17
        0x00000a88:    4638        8F      MOV      r0,r7
        0x00000a8a:    f000fbf2    ....    BL       SYS_RESET_IP2 ; 0x1272
        0x00000a8e:    68b0        .h      LDR      r0,[r6,#8]
        0x00000a90:    4338        8C      ORRS     r0,r0,r7
        0x00000a92:    60b0        .`      STR      r0,[r6,#8]
        0x00000a94:    68a9        .h      LDR      r1,[r5,#8]
        0x00000a96:    2006        .       MOVS     r0,#6
        0x00000a98:    4301        .C      ORRS     r1,r1,r0
        0x00000a9a:    60a9        .`      STR      r1,[r5,#8]
        0x00000a9c:    69e0        .i      LDR      r0,[r4,#0x1c]
        0x00000a9e:    68a9        .h      LDR      r1,[r5,#8]
        0x00000aa0:    22f0        ."      MOVS     r2,#0xf0
        0x00000aa2:    4391        .C      BICS     r1,r1,r2
        0x00000aa4:    4301        .C      ORRS     r1,r1,r0
        0x00000aa6:    60a9        .`      STR      r1,[r5,#8]
        0x00000aa8:    69a1        .i      LDR      r1,[r4,#0x18]
        0x00000aaa:    6920         i      LDR      r0,[r4,#0x10]
        0x00000aac:    4308        .C      ORRS     r0,r0,r1
        0x00000aae:    6961        ai      LDR      r1,[r4,#0x14]
        0x00000ab0:    4308        .C      ORRS     r0,r0,r1
        0x00000ab2:    68e9        .h      LDR      r1,[r5,#0xc]
        0x00000ab4:    2240        @"      MOVS     r2,#0x40
        0x00000ab6:    4011        .@      ANDS     r1,r1,r2
        0x00000ab8:    4301        .C      ORRS     r1,r1,r0
        0x00000aba:    60e9        .`      STR      r1,[r5,#0xc]
        0x00000abc:    2024        $       MOVS     r0,#0x24
        0x00000abe:    5d00        .]      LDRB     r0,[r0,r4]
        0x00000ac0:    6a29        )j      LDR      r1,[r5,#0x20]
        0x00000ac2:    0a09        ..      LSRS     r1,r1,#8
        0x00000ac4:    0209        ..      LSLS     r1,r1,#8
        0x00000ac6:    4301        .C      ORRS     r1,r1,r0
        0x00000ac8:    6229        )b      STR      r1,[r5,#0x20]
        0x00000aca:    2603        .&      MOVS     r6,#3
        0x00000acc:    6a20         j      LDR      r0,[r4,#0x20]
        0x00000ace:    0736        6.      LSLS     r6,r6,#28
        0x00000ad0:    42b0        .B      CMP      r0,r6
        0x00000ad2:    68e1        .h      LDR      r1,[r4,#0xc]
        0x00000ad4:    68a0        .h      LDR      r0,[r4,#8]
        0x00000ad6:    d104        ..      BNE      0xae2 ; DrvUART_Init + 146
        0x00000ad8:    f7fffb3a    ..:.    BL       __aeabi_uidiv ; 0x150
        0x00000adc:    1e80        ..      SUBS     r0,r0,#2
        0x00000ade:    4330        0C      ORRS     r0,r0,r6
        0x00000ae0:    e003        ..      B        0xaea ; DrvUART_Init + 154
        0x00000ae2:    f7fffb35    ..5.    BL       __aeabi_uidiv ; 0x150
        0x00000ae6:    0900        ..      LSRS     r0,r0,#4
        0x00000ae8:    1e80        ..      SUBS     r0,r0,#2
        0x00000aea:    6268        hb      STR      r0,[r5,#0x24]
        0x00000aec:    2001        .       MOVS     r0,#1
        0x00000aee:    bdf8        ..      POP      {r3-r7,pc}
    $d
        0x00000af0:    50000200    ...P    DCD    1342177792
        0x00000af4:    40050000    ...@    DCD    1074069504
    $t
    i.DrvWDT_DisableInt
    DrvWDT_DisableInt
        0x00000af8:    b510        ..      PUSH     {r4,lr}
        0x00000afa:    f000fbc3    ....    BL       SYS_UnlockReg ; 0x1284
        0x00000afe:    f000fdad    ....    BL       WDT_DISABLE_INT ; 0x165c
        0x00000b02:    2001        .       MOVS     r0,#1
        0x00000b04:    f000fb6a    ..j.    BL       NVIC_DisableIRQ ; 0x11dc
        0x00000b08:    4901        .I      LDR      r1,[pc,#4] ; [0xb10] = 0x50000100
        0x00000b0a:    2000        .       MOVS     r0,#0
        0x00000b0c:    6008        .`      STR      r0,[r1,#0]
        0x00000b0e:    bd10        ..      POP      {r4,pc}
    $d
        0x00000b10:    50000100    ...P    DCD    1342177536
    $t
    i.DrvWDT_EnableInt
    DrvWDT_EnableInt
        0x00000b14:    b510        ..      PUSH     {r4,lr}
        0x00000b16:    f000fbb5    ....    BL       SYS_UnlockReg ; 0x1284
        0x00000b1a:    4808        .H      LDR      r0,[pc,#32] ; [0xb3c] = 0x40004000
        0x00000b1c:    6801        .h      LDR      r1,[r0,#0]
        0x00000b1e:    2208        ."      MOVS     r2,#8
        0x00000b20:    4311        .C      ORRS     r1,r1,r2
        0x00000b22:    6001        .`      STR      r1,[r0,#0]
        0x00000b24:    6801        .h      LDR      r1,[r0,#0]
        0x00000b26:    2240        @"      MOVS     r2,#0x40
        0x00000b28:    4311        .C      ORRS     r1,r1,r2
        0x00000b2a:    6001        .`      STR      r1,[r0,#0]
        0x00000b2c:    2001        .       MOVS     r0,#1
        0x00000b2e:    f000fb69    ..i.    BL       NVIC_EnableIRQ ; 0x1204
        0x00000b32:    4903        .I      LDR      r1,[pc,#12] ; [0xb40] = 0x50000100
        0x00000b34:    2000        .       MOVS     r0,#0
        0x00000b36:    6008        .`      STR      r0,[r1,#0]
        0x00000b38:    bd10        ..      POP      {r4,pc}
    $d
        0x00000b3a:    0000        ..      DCW    0
        0x00000b3c:    40004000    .@.@    DCD    1073758208
        0x00000b40:    50000100    ...P    DCD    1342177536
    $t
    i.DrvWDT_Init
    DrvWDT_Init
        0x00000b44:    b570        p.      PUSH     {r4-r6,lr}
        0x00000b46:    4615        .F      MOV      r5,r2
        0x00000b48:    460c        .F      MOV      r4,r1
        0x00000b4a:    4606        .F      MOV      r6,r0
        0x00000b4c:    f000fb9a    ....    BL       SYS_UnlockReg ; 0x1284
        0x00000b50:    2001        .       MOVS     r0,#1
        0x00000b52:    f7fffb59    ..Y.    BL       APBCLK_ENABLE ; 0x208
        0x00000b56:    480a        .H      LDR      r0,[pc,#40] ; [0xb80] = 0x50000200
        0x00000b58:    6941        Ai      LDR      r1,[r0,#0x14]
        0x00000b5a:    0889        ..      LSRS     r1,r1,#2
        0x00000b5c:    0089        ..      LSLS     r1,r1,#2
        0x00000b5e:    4321        !C      ORRS     r1,r1,r4
        0x00000b60:    6141        Aa      STR      r1,[r0,#0x14]
        0x00000b62:    4808        .H      LDR      r0,[pc,#32] ; [0xb84] = 0x40004000
        0x00000b64:    0631        1.      LSLS     r1,r6,#24
        0x00000b66:    6802        .h      LDR      r2,[r0,#0]
        0x00000b68:    2307        .#      MOVS     r3,#7
        0x00000b6a:    021b        ..      LSLS     r3,r3,#8
        0x00000b6c:    439a        .C      BICS     r2,r2,r3
        0x00000b6e:    0c09        ..      LSRS     r1,r1,#16
        0x00000b70:    430a        .C      ORRS     r2,r2,r1
        0x00000b72:    6002        .`      STR      r2,[r0,#0]
        0x00000b74:    b2e9        ..      UXTB     r1,r5
        0x00000b76:    6041        A`      STR      r1,[r0,#4]
        0x00000b78:    4903        .I      LDR      r1,[pc,#12] ; [0xb88] = 0x50000100
        0x00000b7a:    2000        .       MOVS     r0,#0
        0x00000b7c:    6008        .`      STR      r0,[r1,#0]
        0x00000b7e:    bd70        p.      POP      {r4-r6,pc}
    $d
        0x00000b80:    50000200    ...P    DCD    1342177792
        0x00000b84:    40004000    .@.@    DCD    1073758208
        0x00000b88:    50000100    ...P    DCD    1342177536
    $t
    i.Dwhp83CuMuDetect
    Dwhp83CuMuDetect
        0x00000b8c:    b510        ..      PUSH     {r4,lr}
        0x00000b8e:    2101        .!      MOVS     r1,#1
        0x00000b90:    2021        !       MOVS     r0,#0x21
        0x00000b92:    f003faa3    ....    BL       readDwhp83 ; 0x40dc
        0x00000b96:    f002f9dd    ....    BL       exitGpioI2c ; 0x2f54
        0x00000b9a:    4909        .I      LDR      r1,[pc,#36] ; [0xbc0] = 0x200000a4
        0x00000b9c:    7848        Hx      LDRB     r0,[r1,#1]
        0x00000b9e:    2801        .(      CMP      r0,#1
        0x00000ba0:    d006        ..      BEQ      0xbb0 ; Dwhp83CuMuDetect + 36
        0x00000ba2:    4808        .H      LDR      r0,[pc,#32] ; [0xbc4] = 0x20000700
        0x00000ba4:    7800        .x      LDRB     r0,[r0,#0]
        0x00000ba6:    28cc        .(      CMP      r0,#0xcc
        0x00000ba8:    d004        ..      BEQ      0xbb4 ; Dwhp83CuMuDetect + 40
        0x00000baa:    2855        U(      CMP      r0,#0x55
        0x00000bac:    d004        ..      BEQ      0xbb8 ; Dwhp83CuMuDetect + 44
        0x00000bae:    e005        ..      B        0xbbc ; Dwhp83CuMuDetect + 48
        0x00000bb0:    2000        .       MOVS     r0,#0
        0x00000bb2:    bd10        ..      POP      {r4,pc}
        0x00000bb4:    4804        .H      LDR      r0,[pc,#16] ; [0xbc8] = 0x55aa
        0x00000bb6:    e000        ..      B        0xbba ; Dwhp83CuMuDetect + 46
        0x00000bb8:    4804        .H      LDR      r0,[pc,#16] ; [0xbcc] = 0xaa55
        0x00000bba:    6108        .a      STR      r0,[r1,#0x10]
        0x00000bbc:    2001        .       MOVS     r0,#1
        0x00000bbe:    bd10        ..      POP      {r4,pc}
    $d
        0x00000bc0:    200000a4    ...     DCD    536871076
        0x00000bc4:    20000700    ...     DCD    536872704
        0x00000bc8:    000055aa    .U..    DCD    21930
        0x00000bcc:    0000aa55    U...    DCD    43605
    $t
    i.Dwhp83FixedCoCo
    Dwhp83FixedCoCo
        0x00000bd0:    b508        ..      PUSH     {r3,lr}
        0x00000bd2:    a00a        ..      ADR      r0,{pc}+0x2a ; 0xbfc
        0x00000bd4:    6800        .h      LDR      r0,[r0,#0]
        0x00000bd6:    9000        ..      STR      r0,[sp,#0]
        0x00000bd8:    2037        7       MOVS     r0,#0x37
        0x00000bda:    4669        iF      MOV      r1,sp
        0x00000bdc:    7008        .p      STRB     r0,[r1,#0]
        0x00000bde:    2035        5       MOVS     r0,#0x35
        0x00000be0:    7048        Hp      STRB     r0,[r1,#1]
        0x00000be2:    2030        0       MOVS     r0,#0x30
        0x00000be4:    7088        .p      STRB     r0,[r1,#2]
        0x00000be6:    2203        ."      MOVS     r2,#3
        0x00000be8:    21c6        .!      MOVS     r1,#0xc6
        0x00000bea:    4668        hF      MOV      r0,sp
        0x00000bec:    f003fe50    ..P.    BL       writeDwhp83 ; 0x4890
        0x00000bf0:    2014        .       MOVS     r0,#0x14
        0x00000bf2:    f003fcbf    ....    BL       sysDelayMs ; 0x4574
        0x00000bf6:    f002f9ad    ....    BL       exitGpioI2c ; 0x2f54
        0x00000bfa:    bd08        ..      POP      {r3,pc}
    $d
        0x00000bfc:    00317250    Pr1.    DCD    3240528
    $t
    i.Dwhp83GetStatus
    Dwhp83GetStatus
        0x00000c00:    b510        ..      PUSH     {r4,lr}
        0x00000c02:    2103        .!      MOVS     r1,#3
        0x00000c04:    203f        ?       MOVS     r0,#0x3f
        0x00000c06:    f003fa69    ..i.    BL       readDwhp83 ; 0x40dc
        0x00000c0a:    4a0b        .J      LDR      r2,[pc,#44] ; [0xc38] = 0x20000700
        0x00000c0c:    7811        .x      LDRB     r1,[r2,#0]
        0x00000c0e:    7850        Px      LDRB     r0,[r2,#1]
        0x00000c10:    7892        .x      LDRB     r2,[r2,#2]
        0x00000c12:    180b        ..      ADDS     r3,r1,r0
        0x00000c14:    4293        .B      CMP      r3,r2
        0x00000c16:    d10c        ..      BNE      0xc32 ; Dwhp83GetStatus + 50
        0x00000c18:    07cb        ..      LSLS     r3,r1,#31
        0x00000c1a:    4908        .I      LDR      r1,[pc,#32] ; [0xc3c] = 0x200000d0
        0x00000c1c:    0fdb        ..      LSRS     r3,r3,#31
        0x00000c1e:    700b        .p      STRB     r3,[r1,#0]
        0x00000c20:    2304        .#      MOVS     r3,#4
        0x00000c22:    4003        .@      ANDS     r3,r3,r0
        0x00000c24:    708b        .p      STRB     r3,[r1,#2]
        0x00000c26:    2308        .#      MOVS     r3,#8
        0x00000c28:    4018        .@      ANDS     r0,r0,r3
        0x00000c2a:    7048        Hp      STRB     r0,[r1,#1]
        0x00000c2c:    07d0        ..      LSLS     r0,r2,#31
        0x00000c2e:    0fc0        ..      LSRS     r0,r0,#31
        0x00000c30:    70c8        .p      STRB     r0,[r1,#3]
        0x00000c32:    f002f98f    ....    BL       exitGpioI2c ; 0x2f54
        0x00000c36:    bd10        ..      POP      {r4,pc}
    $d
        0x00000c38:    20000700    ...     DCD    536872704
        0x00000c3c:    200000d0    ...     DCD    536871120
    $t
    i.Dwhp83Master
    Dwhp83Master
        0x00000c40:    b508        ..      PUSH     {r3,lr}
        0x00000c42:    2001        .       MOVS     r0,#1
        0x00000c44:    4669        iF      MOV      r1,sp
        0x00000c46:    7008        .p      STRB     r0,[r1,#0]
        0x00000c48:    4602        .F      MOV      r2,r0
        0x00000c4a:    21ca        .!      MOVS     r1,#0xca
        0x00000c4c:    4668        hF      MOV      r0,sp
        0x00000c4e:    f003fe1f    ....    BL       writeDwhp83 ; 0x4890
        0x00000c52:    f002f97f    ....    BL       exitGpioI2c ; 0x2f54
        0x00000c56:    f7fffcf5    ....    BL       DWP83CuPowerOn ; 0x644
        0x00000c5a:    bd08        ..      POP      {r3,pc}
    i.Dwhp83Slave
    Dwhp83Slave
        0x00000c5c:    b508        ..      PUSH     {r3,lr}
        0x00000c5e:    2000        .       MOVS     r0,#0
        0x00000c60:    4669        iF      MOV      r1,sp
        0x00000c62:    7008        .p      STRB     r0,[r1,#0]
        0x00000c64:    2201        ."      MOVS     r2,#1
        0x00000c66:    21ca        .!      MOVS     r1,#0xca
        0x00000c68:    4668        hF      MOV      r0,sp
        0x00000c6a:    f003fe11    ....    BL       writeDwhp83 ; 0x4890
        0x00000c6e:    f002f971    ..q.    BL       exitGpioI2c ; 0x2f54
        0x00000c72:    bd08        ..      POP      {r3,pc}
    i.Erase_Page_Data
    Erase_Page_Data
        0x00000c74:    b5f8        ..      PUSH     {r3-r7,lr}
        0x00000c76:    4c2f        /L      LDR      r4,[pc,#188] ; [0xd34] = 0x40130000
        0x00000c78:    4605        .F      MOV      r5,r0
        0x00000c7a:    68a0        .h      LDR      r0,[r4,#8]
        0x00000c7c:    0840        @.      LSRS     r0,r0,#1
        0x00000c7e:    0040        @.      LSLS     r0,r0,#1
        0x00000c80:    60a0        .`      STR      r0,[r4,#8]
        0x00000c82:    6820         h      LDR      r0,[r4,#0]
        0x00000c84:    2701        .'      MOVS     r7,#1
        0x00000c86:    04ff        ..      LSLS     r7,r7,#19
        0x00000c88:    43b8        .C      BICS     r0,r0,r7
        0x00000c8a:    6020         `      STR      r0,[r4,#0]
        0x00000c8c:    68a0        .h      LDR      r0,[r4,#8]
        0x00000c8e:    2601        .&      MOVS     r6,#1
        0x00000c90:    4330        0C      ORRS     r0,r0,r6
        0x00000c92:    60a0        .`      STR      r0,[r4,#8]
        0x00000c94:    2108        .!      MOVS     r1,#8
        0x00000c96:    2006        .       MOVS     r0,#6
        0x00000c98:    f003fc1e    ....    BL       spiSendWord ; 0x44d8
        0x00000c9c:    68a0        .h      LDR      r0,[r4,#8]
        0x00000c9e:    43b0        .C      BICS     r0,r0,r6
        0x00000ca0:    60a0        .`      STR      r0,[r4,#8]
        0x00000ca2:    68a0        .h      LDR      r0,[r4,#8]
        0x00000ca4:    4330        0C      ORRS     r0,r0,r6
        0x00000ca6:    60a0        .`      STR      r0,[r4,#8]
        0x00000ca8:    2108        .!      MOVS     r1,#8
        0x00000caa:    20d8        .       MOVS     r0,#0xd8
        0x00000cac:    f003fc14    ....    BL       spiSendWord ; 0x44d8
        0x00000cb0:    2118        .!      MOVS     r1,#0x18
        0x00000cb2:    4628        (F      MOV      r0,r5
        0x00000cb4:    f003fc10    ....    BL       spiSendWord ; 0x44d8
        0x00000cb8:    68a0        .h      LDR      r0,[r4,#8]
        0x00000cba:    43b0        .C      BICS     r0,r0,r6
        0x00000cbc:    60a0        .`      STR      r0,[r4,#8]
        0x00000cbe:    68a0        .h      LDR      r0,[r4,#8]
        0x00000cc0:    4330        0C      ORRS     r0,r0,r6
        0x00000cc2:    60a0        .`      STR      r0,[r4,#8]
        0x00000cc4:    2108        .!      MOVS     r1,#8
        0x00000cc6:    2004        .       MOVS     r0,#4
        0x00000cc8:    f003fc06    ....    BL       spiSendWord ; 0x44d8
        0x00000ccc:    68a0        .h      LDR      r0,[r4,#8]
        0x00000cce:    43b0        .C      BICS     r0,r0,r6
        0x00000cd0:    60a0        .`      STR      r0,[r4,#8]
        0x00000cd2:    68a0        .h      LDR      r0,[r4,#8]
        0x00000cd4:    43b0        .C      BICS     r0,r0,r6
        0x00000cd6:    60a0        .`      STR      r0,[r4,#8]
        0x00000cd8:    6820         h      LDR      r0,[r4,#0]
        0x00000cda:    43b8        .C      BICS     r0,r0,r7
        0x00000cdc:    6020         `      STR      r0,[r4,#0]
        0x00000cde:    68a0        .h      LDR      r0,[r4,#8]
        0x00000ce0:    4330        0C      ORRS     r0,r0,r6
        0x00000ce2:    60a0        .`      STR      r0,[r4,#8]
        0x00000ce4:    2108        .!      MOVS     r1,#8
        0x00000ce6:    2005        .       MOVS     r0,#5
        0x00000ce8:    f003fbf6    ....    BL       spiSendWord ; 0x44d8
        0x00000cec:    2108        .!      MOVS     r1,#8
        0x00000cee:    20ff        .       MOVS     r0,#0xff
        0x00000cf0:    f003fbf2    ....    BL       spiSendWord ; 0x44d8
        0x00000cf4:    6920         i      LDR      r0,[r4,#0x10]
        0x00000cf6:    4d10        .M      LDR      r5,[pc,#64] ; [0xd38] = 0x2000012e
        0x00000cf8:    e012        ..      B        0xd20 ; Erase_Page_Data + 172
        0x00000cfa:    68a0        .h      LDR      r0,[r4,#8]
        0x00000cfc:    0840        @.      LSRS     r0,r0,#1
        0x00000cfe:    0040        @.      LSLS     r0,r0,#1
        0x00000d00:    60a0        .`      STR      r0,[r4,#8]
        0x00000d02:    6820         h      LDR      r0,[r4,#0]
        0x00000d04:    43b8        .C      BICS     r0,r0,r7
        0x00000d06:    6020         `      STR      r0,[r4,#0]
        0x00000d08:    68a0        .h      LDR      r0,[r4,#8]
        0x00000d0a:    4330        0C      ORRS     r0,r0,r6
        0x00000d0c:    60a0        .`      STR      r0,[r4,#8]
        0x00000d0e:    2108        .!      MOVS     r1,#8
        0x00000d10:    2005        .       MOVS     r0,#5
        0x00000d12:    f003fbe1    ....    BL       spiSendWord ; 0x44d8
        0x00000d16:    2108        .!      MOVS     r1,#8
        0x00000d18:    20ff        .       MOVS     r0,#0xff
        0x00000d1a:    f003fbdd    ....    BL       spiSendWord ; 0x44d8
        0x00000d1e:    6920         i      LDR      r0,[r4,#0x10]
        0x00000d20:    7028        (p      STRB     r0,[r5,#0]
        0x00000d22:    68a0        .h      LDR      r0,[r4,#8]
        0x00000d24:    0840        @.      LSRS     r0,r0,#1
        0x00000d26:    0040        @.      LSLS     r0,r0,#1
        0x00000d28:    60a0        .`      STR      r0,[r4,#8]
        0x00000d2a:    7828        (x      LDRB     r0,[r5,#0]
        0x00000d2c:    07c0        ..      LSLS     r0,r0,#31
        0x00000d2e:    d1e4        ..      BNE      0xcfa ; Erase_Page_Data + 134
        0x00000d30:    bdf8        ..      POP      {r3-r7,pc}
    $d
        0x00000d32:    0000        ..      DCW    0
        0x00000d34:    40130000    ...@    DCD    1074987008
        0x00000d38:    2000012e    ...     DCD    536871214
    $t
    i.GPAB_IRQHandler
    GPAB_IRQHandler
        0x00000d3c:    4901        .I      LDR      r1,[pc,#4] ; [0xd44] = 0x2000038c
        0x00000d3e:    2001        .       MOVS     r0,#1
        0x00000d40:    6088        .`      STR      r0,[r1,#8]
        0x00000d42:    4770        pG      BX       lr
    $d
        0x00000d44:    2000038c    ...     DCD    536871820
    $t
    i.GPCDF_IRQHandler
    GPCDF_IRQHandler
        0x00000d48:    2301        .#      MOVS     r3,#1
        0x00000d4a:    4806        .H      LDR      r0,[pc,#24] ; [0xd64] = 0x50004080
        0x00000d4c:    0299        ..      LSLS     r1,r3,#10
        0x00000d4e:    6201        .b      STR      r1,[r0,#0x20]
        0x00000d50:    6982        .i      LDR      r2,[r0,#0x18]
        0x00000d52:    438a        .C      BICS     r2,r2,r1
        0x00000d54:    6182        .a      STR      r2,[r0,#0x18]
        0x00000d56:    69c1        .i      LDR      r1,[r0,#0x1c]
        0x00000d58:    4a03        .J      LDR      r2,[pc,#12] ; [0xd68] = 0x4000400
        0x00000d5a:    4391        .C      BICS     r1,r1,r2
        0x00000d5c:    61c1        .a      STR      r1,[r0,#0x1c]
        0x00000d5e:    4803        .H      LDR      r0,[pc,#12] ; [0xd6c] = 0x2000038c
        0x00000d60:    6083        .`      STR      r3,[r0,#8]
        0x00000d62:    4770        pG      BX       lr
    $d
        0x00000d64:    50004080    .@.P    DCD    1342193792
        0x00000d68:    04000400    ....    DCD    67109888
        0x00000d6c:    2000038c    ...     DCD    536871820
    $t
    i.GPIO_SET_MODE
    GPIO_SET_MODE
        0x00000d70:    b510        ..      PUSH     {r4,lr}
        0x00000d72:    6803        .h      LDR      r3,[r0,#0]
        0x00000d74:    0049        I.      LSLS     r1,r1,#1
        0x00000d76:    2403        .$      MOVS     r4,#3
        0x00000d78:    408c        .@      LSLS     r4,r4,r1
        0x00000d7a:    43a3        .C      BICS     r3,r3,r4
        0x00000d7c:    408a        .@      LSLS     r2,r2,r1
        0x00000d7e:    4313        .C      ORRS     r3,r3,r2
        0x00000d80:    6003        .`      STR      r3,[r0,#0]
        0x00000d82:    bd10        ..      POP      {r4,pc}
    i.GPIO_SET_MODE
    GPIO_SET_MODE
        0x00000d84:    b510        ..      PUSH     {r4,lr}
        0x00000d86:    6803        .h      LDR      r3,[r0,#0]
        0x00000d88:    0049        I.      LSLS     r1,r1,#1
        0x00000d8a:    2403        .$      MOVS     r4,#3
        0x00000d8c:    408c        .@      LSLS     r4,r4,r1
        0x00000d8e:    43a3        .C      BICS     r3,r3,r4
        0x00000d90:    408a        .@      LSLS     r2,r2,r1
        0x00000d92:    4313        .C      ORRS     r3,r3,r2
        0x00000d94:    6003        .`      STR      r3,[r0,#0]
        0x00000d96:    bd10        ..      POP      {r4,pc}
    i.GPIO_SET_MODE
    GPIO_SET_MODE
        0x00000d98:    b510        ..      PUSH     {r4,lr}
        0x00000d9a:    6803        .h      LDR      r3,[r0,#0]
        0x00000d9c:    0049        I.      LSLS     r1,r1,#1
        0x00000d9e:    2403        .$      MOVS     r4,#3
        0x00000da0:    408c        .@      LSLS     r4,r4,r1
        0x00000da2:    43a3        .C      BICS     r3,r3,r4
        0x00000da4:    408a        .@      LSLS     r2,r2,r1
        0x00000da6:    4313        .C      ORRS     r3,r3,r2
        0x00000da8:    6003        .`      STR      r3,[r0,#0]
        0x00000daa:    bd10        ..      POP      {r4,pc}
    i.GPIO_SET_MODE
    GPIO_SET_MODE
        0x00000dac:    b510        ..      PUSH     {r4,lr}
        0x00000dae:    6803        .h      LDR      r3,[r0,#0]
        0x00000db0:    0049        I.      LSLS     r1,r1,#1
        0x00000db2:    2403        .$      MOVS     r4,#3
        0x00000db4:    408c        .@      LSLS     r4,r4,r1
        0x00000db6:    43a3        .C      BICS     r3,r3,r4
        0x00000db8:    408a        .@      LSLS     r2,r2,r1
        0x00000dba:    4313        .C      ORRS     r3,r3,r2
        0x00000dbc:    6003        .`      STR      r3,[r0,#0]
        0x00000dbe:    bd10        ..      POP      {r4,pc}
    i.GPIO_SET_MODE
    GPIO_SET_MODE
        0x00000dc0:    b510        ..      PUSH     {r4,lr}
        0x00000dc2:    6803        .h      LDR      r3,[r0,#0]
        0x00000dc4:    0049        I.      LSLS     r1,r1,#1
        0x00000dc6:    2403        .$      MOVS     r4,#3
        0x00000dc8:    408c        .@      LSLS     r4,r4,r1
        0x00000dca:    43a3        .C      BICS     r3,r3,r4
        0x00000dcc:    408a        .@      LSLS     r2,r2,r1
        0x00000dce:    4313        .C      ORRS     r3,r3,r2
        0x00000dd0:    6003        .`      STR      r3,[r0,#0]
        0x00000dd2:    bd10        ..      POP      {r4,pc}
    i.Hal_Init
    Hal_Init
        0x00000dd4:    b510        ..      PUSH     {r4,lr}
        0x00000dd6:    f3ef8410    ....    MRS      r4,PRIMASK
        0x00000dda:    2001        .       MOVS     r0,#1
        0x00000ddc:    f3808810    ....    MSR      PRIMASK,r0
        0x00000de0:    f7fffa82    ....    BL       CLK_Init ; 0x2e8
        0x00000de4:    f3848810    ....    MSR      PRIMASK,r4
        0x00000de8:    f003fbec    ....    BL       sysTaskInit ; 0x45c4
        0x00000dec:    f001fdd8    ....    BL       dealPowerKey ; 0x29a0
        0x00000df0:    f002fb2c    ..,.    BL       ledInit ; 0x344c
        0x00000df4:    bd10        ..      POP      {r4,pc}
        0x00000df6:    0000        ..      MOVS     r0,r0
    i.HardFault_Handler
    HardFault_Handler
        0x00000df8:    4903        .I      LDR      r1,[pc,#12] ; [0xe08] = 0xe000ed00
        0x00000dfa:    4802        .H      LDR      r0,[pc,#8] ; [0xe04] = 0x5fa0004
        0x00000dfc:    60c8        .`      STR      r0,[r1,#0xc]
        0x00000dfe:    f3bf8f40    ..@.    DSB      #0x0
        0x00000e02:    e7fe        ..      B        0xe02 ; HardFault_Handler + 10
    $d
        0x00000e04:    05fa0004    ....    DCD    100270084
        0x00000e08:    e000ed00    ....    DCD    3758157056
    $t
    i.I2C0_IRQHandler
    I2C0_IRQHandler
        0x00000e0c:    b5f8        ..      PUSH     {r3-r7,lr}
        0x00000e0e:    484d        MH      LDR      r0,[pc,#308] ; [0xf44] = 0x40020000
        0x00000e10:    68c1        .h      LDR      r1,[r0,#0xc]
        0x00000e12:    468c        .F      MOV      r12,r1
        0x00000e14:    6941        Ai      LDR      r1,[r0,#0x14]
        0x00000e16:    2204        ."      MOVS     r2,#4
        0x00000e18:    07c9        ..      LSLS     r1,r1,#31
        0x00000e1a:    0fc9        ..      LSRS     r1,r1,#31
        0x00000e1c:    2518        .%      MOVS     r5,#0x18
        0x00000e1e:    26a3        .&      MOVS     r6,#0xa3
        0x00000e20:    4b49        IK      LDR      r3,[pc,#292] ; [0xf48] = 0x20000114
        0x00000e22:    2900        .)      CMP      r1,#0
        0x00000e24:    d007        ..      BEQ      0xe36 ; I2C0_IRQHandler + 42
        0x00000e26:    6941        Ai      LDR      r1,[r0,#0x14]
        0x00000e28:    4391        .C      BICS     r1,r1,r2
        0x00000e2a:    6141        Aa      STR      r1,[r0,#0x14]
        0x00000e2c:    6942        Bi      LDR      r2,[r0,#0x14]
        0x00000e2e:    2101        .!      MOVS     r1,#1
        0x00000e30:    430a        .C      ORRS     r2,r2,r1
        0x00000e32:    6142        Ba      STR      r2,[r0,#0x14]
        0x00000e34:    e051        Q.      B        0xeda ; I2C0_IRQHandler + 206
        0x00000e36:    68d9        .h      LDR      r1,[r3,#0xc]
        0x00000e38:    780c        .x      LDRB     r4,[r1,#0]
        0x00000e3a:    07e7        ..      LSLS     r7,r4,#31
        0x00000e3c:    4667        gF      MOV      r7,r12
        0x00000e3e:    d009        ..      BEQ      0xe54 ; I2C0_IRQHandler + 72
        0x00000e40:    2f48        H/      CMP      r7,#0x48
        0x00000e42:    d04a        J.      BEQ      0xeda ; I2C0_IRQHandler + 206
        0x00000e44:    dc45        E.      BGT      0xed2 ; I2C0_IRQHandler + 198
        0x00000e46:    2f08        ./      CMP      r7,#8
        0x00000e48:    d04c        L.      BEQ      0xee4 ; I2C0_IRQHandler + 216
        0x00000e4a:    2f10        ./      CMP      r7,#0x10
        0x00000e4c:    d04a        J.      BEQ      0xee4 ; I2C0_IRQHandler + 216
        0x00000e4e:    2f40        @/      CMP      r7,#0x40
        0x00000e50:    d143        C.      BNE      0xeda ; I2C0_IRQHandler + 206
        0x00000e52:    e04a        J.      B        0xeea ; I2C0_IRQHandler + 222
        0x00000e54:    2f08        ./      CMP      r7,#8
        0x00000e56:    d00c        ..      BEQ      0xe72 ; I2C0_IRQHandler + 102
        0x00000e58:    2f18        ./      CMP      r7,#0x18
        0x00000e5a:    d00c        ..      BEQ      0xe76 ; I2C0_IRQHandler + 106
        0x00000e5c:    2f28        (/      CMP      r7,#0x28
        0x00000e5e:    d010        ..      BEQ      0xe82 ; I2C0_IRQHandler + 118
        0x00000e60:    6801        .h      LDR      r1,[r0,#0]
        0x00000e62:    2f38        8/      CMP      r7,#0x38
        0x00000e64:    d02d        -.      BEQ      0xec2 ; I2C0_IRQHandler + 182
        0x00000e66:    4329        )C      ORRS     r1,r1,r5
        0x00000e68:    6001        .`      STR      r1,[r0,#0]
        0x00000e6a:    6941        Ai      LDR      r1,[r0,#0x14]
        0x00000e6c:    4391        .C      BICS     r1,r1,r2
        0x00000e6e:    6141        Aa      STR      r1,[r0,#0x14]
        0x00000e70:    e036        6.      B        0xee0 ; I2C0_IRQHandler + 212
        0x00000e72:    6084        .`      STR      r4,[r0,#8]
        0x00000e74:    e040        @.      B        0xef8 ; I2C0_IRQHandler + 236
        0x00000e76:    78ca        .x      LDRB     r2,[r1,#3]
        0x00000e78:    688c        .h      LDR      r4,[r1,#8]
        0x00000e7a:    1c53        S.      ADDS     r3,r2,#1
        0x00000e7c:    70cb        .p      STRB     r3,[r1,#3]
        0x00000e7e:    5ca1        .\      LDRB     r1,[r4,r2]
        0x00000e80:    e01d        ..      B        0xebe ; I2C0_IRQHandler + 178
        0x00000e82:    784e        Nx      LDRB     r6,[r1,#1]
        0x00000e84:    2e01        ..      CMP      r6,#1
        0x00000e86:    d010        ..      BEQ      0xeaa ; I2C0_IRQHandler + 158
        0x00000e88:    788e        .x      LDRB     r6,[r1,#2]
        0x00000e8a:    78cc        .x      LDRB     r4,[r1,#3]
        0x00000e8c:    42a6        .B      CMP      r6,r4
        0x00000e8e:    d212        ..      BCS      0xeb6 ; I2C0_IRQHandler + 170
        0x00000e90:    6804        .h      LDR      r4,[r0,#0]
        0x00000e92:    432c        ,C      ORRS     r4,r4,r5
        0x00000e94:    6004        .`      STR      r4,[r0,#0]
        0x00000e96:    6944        Di      LDR      r4,[r0,#0x14]
        0x00000e98:    4394        .C      BICS     r4,r4,r2
        0x00000e9a:    6144        Da      STR      r4,[r0,#0x14]
        0x00000e9c:    20a0        .       MOVS     r0,#0xa0
        0x00000e9e:    7018        .p      STRB     r0,[r3,#0]
        0x00000ea0:    6889        .h      LDR      r1,[r1,#8]
        0x00000ea2:    7008        .p      STRB     r0,[r1,#0]
        0x00000ea4:    2000        .       MOVS     r0,#0
        0x00000ea6:    60d8        .`      STR      r0,[r3,#0xc]
        0x00000ea8:    bdf8        ..      POP      {r3-r7,pc}
        0x00000eaa:    2201        ."      MOVS     r2,#1
        0x00000eac:    4314        .C      ORRS     r4,r4,r2
        0x00000eae:    700c        .p      STRB     r4,[r1,#0]
        0x00000eb0:    f000f853    ..S.    BL       I2C_START ; 0xf5a
        0x00000eb4:    bdf8        ..      POP      {r3-r7,pc}
        0x00000eb6:    1c62        b.      ADDS     r2,r4,#1
        0x00000eb8:    688b        .h      LDR      r3,[r1,#8]
        0x00000eba:    70ca        .p      STRB     r2,[r1,#3]
        0x00000ebc:    5d19        .]      LDRB     r1,[r3,r4]
        0x00000ebe:    6081        .`      STR      r1,[r0,#8]
        0x00000ec0:    e01a        ..      B        0xef8 ; I2C0_IRQHandler + 236
        0x00000ec2:    4329        )C      ORRS     r1,r1,r5
        0x00000ec4:    6001        .`      STR      r1,[r0,#0]
        0x00000ec6:    6941        Ai      LDR      r1,[r0,#0x14]
        0x00000ec8:    4391        .C      BICS     r1,r1,r2
        0x00000eca:    6141        Aa      STR      r1,[r0,#0x14]
        0x00000ecc:    20a1        .       MOVS     r0,#0xa1
        0x00000ece:    7018        .p      STRB     r0,[r3,#0]
        0x00000ed0:    bdf8        ..      POP      {r3-r7,pc}
        0x00000ed2:    2f50        P/      CMP      r7,#0x50
        0x00000ed4:    d02d        -.      BEQ      0xf32 ; I2C0_IRQHandler + 294
        0x00000ed6:    2f58        X/      CMP      r7,#0x58
        0x00000ed8:    d011        ..      BEQ      0xefe ; I2C0_IRQHandler + 242
        0x00000eda:    6801        .h      LDR      r1,[r0,#0]
        0x00000edc:    4329        )C      ORRS     r1,r1,r5
        0x00000ede:    6001        .`      STR      r1,[r0,#0]
        0x00000ee0:    701e        .p      STRB     r6,[r3,#0]
        0x00000ee2:    bdf8        ..      POP      {r3-r7,pc}
        0x00000ee4:    2101        .!      MOVS     r1,#1
        0x00000ee6:    430c        .C      ORRS     r4,r4,r1
        0x00000ee8:    e7c3        ..      B        0xe72 ; I2C0_IRQHandler + 102
        0x00000eea:    788b        .x      LDRB     r3,[r1,#2]
        0x00000eec:    78c9        .x      LDRB     r1,[r1,#3]
        0x00000eee:    428b        .B      CMP      r3,r1
        0x00000ef0:    6801        .h      LDR      r1,[r0,#0]
        0x00000ef2:    d925        %.      BLS      0xf40 ; I2C0_IRQHandler + 308
        0x00000ef4:    4311        .C      ORRS     r1,r1,r2
        0x00000ef6:    6001        .`      STR      r1,[r0,#0]
        0x00000ef8:    f000f828    ..(.    BL       I2C_CLEAR_SI ; 0xf4c
        0x00000efc:    bdf8        ..      POP      {r3-r7,pc}
        0x00000efe:    6884        .h      LDR      r4,[r0,#8]
        0x00000f00:    78ca        .x      LDRB     r2,[r1,#3]
        0x00000f02:    688b        .h      LDR      r3,[r1,#8]
        0x00000f04:    1c57        W.      ADDS     r7,r2,#1
        0x00000f06:    70cf        .p      STRB     r7,[r1,#3]
        0x00000f08:    549c        .T      STRB     r4,[r3,r2]
        0x00000f0a:    6802        .h      LDR      r2,[r0,#0]
        0x00000f0c:    432a        *C      ORRS     r2,r2,r5
        0x00000f0e:    6002        .`      STR      r2,[r0,#0]
        0x00000f10:    7888        .x      LDRB     r0,[r1,#2]
        0x00000f12:    78ca        .x      LDRB     r2,[r1,#3]
        0x00000f14:    4290        .B      CMP      r0,r2
        0x00000f16:    d207        ..      BCS      0xf28 ; I2C0_IRQHandler + 284
        0x00000f18:    4a0b        .J      LDR      r2,[pc,#44] ; [0xf48] = 0x20000114
        0x00000f1a:    20a0        .       MOVS     r0,#0xa0
        0x00000f1c:    7010        .p      STRB     r0,[r2,#0]
        0x00000f1e:    6889        .h      LDR      r1,[r1,#8]
        0x00000f20:    7008        .p      STRB     r0,[r1,#0]
        0x00000f22:    2000        .       MOVS     r0,#0
        0x00000f24:    60d0        .`      STR      r0,[r2,#0xc]
        0x00000f26:    bdf8        ..      POP      {r3-r7,pc}
        0x00000f28:    4807        .H      LDR      r0,[pc,#28] ; [0xf48] = 0x20000114
        0x00000f2a:    2100        .!      MOVS     r1,#0
        0x00000f2c:    7006        .p      STRB     r6,[r0,#0]
        0x00000f2e:    60c1        .`      STR      r1,[r0,#0xc]
        0x00000f30:    bdf8        ..      POP      {r3-r7,pc}
        0x00000f32:    6884        .h      LDR      r4,[r0,#8]
        0x00000f34:    78cb        .x      LDRB     r3,[r1,#3]
        0x00000f36:    688d        .h      LDR      r5,[r1,#8]
        0x00000f38:    1c5e        ^.      ADDS     r6,r3,#1
        0x00000f3a:    70ce        .p      STRB     r6,[r1,#3]
        0x00000f3c:    54ec        .T      STRB     r4,[r5,r3]
        0x00000f3e:    e7d4        ..      B        0xeea ; I2C0_IRQHandler + 222
        0x00000f40:    4391        .C      BICS     r1,r1,r2
        0x00000f42:    e7d8        ..      B        0xef6 ; I2C0_IRQHandler + 234
    $d
        0x00000f44:    40020000    ...@    DCD    1073872896
        0x00000f48:    20000114    ...     DCD    536871188
    $t
    i.I2C_CLEAR_SI
    I2C_CLEAR_SI
        0x00000f4c:    6801        .h      LDR      r1,[r0,#0]
        0x00000f4e:    2230        0"      MOVS     r2,#0x30
        0x00000f50:    4391        .C      BICS     r1,r1,r2
        0x00000f52:    2208        ."      MOVS     r2,#8
        0x00000f54:    4311        .C      ORRS     r1,r1,r2
        0x00000f56:    6001        .`      STR      r1,[r0,#0]
        0x00000f58:    4770        pG      BX       lr
    i.I2C_START
    I2C_START
        0x00000f5a:    6801        .h      LDR      r1,[r0,#0]
        0x00000f5c:    2210        ."      MOVS     r2,#0x10
        0x00000f5e:    4391        .C      BICS     r1,r1,r2
        0x00000f60:    2228        ("      MOVS     r2,#0x28
        0x00000f62:    4311        .C      ORRS     r1,r1,r2
        0x00000f64:    6001        .`      STR      r1,[r0,#0]
        0x00000f66:    4770        pG      BX       lr
    i.I2SClkInit
    I2SClkInit
        0x00000f68:    b510        ..      PUSH     {r4,lr}
        0x00000f6a:    2105        .!      MOVS     r1,#5
        0x00000f6c:    4604        .F      MOV      r4,r0
        0x00000f6e:    0709        ..      LSLS     r1,r1,#28
        0x00000f70:    6b88        .k      LDR      r0,[r1,#0x38]
        0x00000f72:    220f        ."      MOVS     r2,#0xf
        0x00000f74:    4310        .C      ORRS     r0,r0,r2
        0x00000f76:    6388        .c      STR      r0,[r1,#0x38]
        0x00000f78:    4823        #H      LDR      r0,[pc,#140] ; [0x1008] = 0x50000040
        0x00000f7a:    6902        .i      LDR      r2,[r0,#0x10]
        0x00000f7c:    23ff        .#      MOVS     r3,#0xff
        0x00000f7e:    33e1        .3      ADDS     r3,r3,#0xe1
        0x00000f80:    431a        .C      ORRS     r2,r2,r3
        0x00000f82:    6102        .a      STR      r2,[r0,#0x10]
        0x00000f84:    6b8a        .k      LDR      r2,[r1,#0x38]
        0x00000f86:    0183        ..      LSLS     r3,r0,#6
        0x00000f88:    439a        .C      BICS     r2,r2,r3
        0x00000f8a:    638a        .c      STR      r2,[r1,#0x38]
        0x00000f8c:    6902        .i      LDR      r2,[r0,#0x10]
        0x00000f8e:    0383        ..      LSLS     r3,r0,#14
        0x00000f90:    431a        .C      ORRS     r2,r2,r3
        0x00000f92:    6102        .a      STR      r2,[r0,#0x10]
        0x00000f94:    481d        .H      LDR      r0,[pc,#116] ; [0x100c] = 0x50000200
        0x00000f96:    2201        ."      MOVS     r2,#1
        0x00000f98:    69c3        .i      LDR      r3,[r0,#0x1c]
        0x00000f9a:    089b        ..      LSRS     r3,r3,#2
        0x00000f9c:    009b        ..      LSLS     r3,r3,#2
        0x00000f9e:    4313        .C      ORRS     r3,r3,r2
        0x00000fa0:    61c3        .a      STR      r3,[r0,#0x1c]
        0x00000fa2:    6883        .h      LDR      r3,[r0,#8]
        0x00000fa4:    0502        ..      LSLS     r2,r0,#20
        0x00000fa6:    4313        .C      ORRS     r3,r3,r2
        0x00000fa8:    6083        .`      STR      r3,[r0,#8]
        0x00000faa:    68c8        .h      LDR      r0,[r1,#0xc]
        0x00000fac:    4310        .C      ORRS     r0,r0,r2
        0x00000fae:    60c8        .`      STR      r0,[r1,#0xc]
        0x00000fb0:    68c8        .h      LDR      r0,[r1,#0xc]
        0x00000fb2:    4390        .C      BICS     r0,r0,r2
        0x00000fb4:    60c8        .`      STR      r0,[r1,#0xc]
        0x00000fb6:    f000f837    ..7.    BL       I2S_CLR_RXFIFO ; 0x1028
        0x00000fba:    f000f83f    ..?.    BL       I2S_CLR_TXFIFO ; 0x103c
        0x00000fbe:    4814        .H      LDR      r0,[pc,#80] ; [0x1010] = 0xbb80
        0x00000fc0:    4284        .B      CMP      r4,r0
        0x00000fc2:    d101        ..      BNE      0xfc8 ; I2SClkInit + 96
        0x00000fc4:    2003        .       MOVS     r0,#3
        0x00000fc6:    e008        ..      B        0xfda ; I2SClkInit + 114
        0x00000fc8:    4812        .H      LDR      r0,[pc,#72] ; [0x1014] = 0x5dc0
        0x00000fca:    4284        .B      CMP      r4,r0
        0x00000fcc:    d101        ..      BNE      0xfd2 ; I2SClkInit + 106
        0x00000fce:    2006        .       MOVS     r0,#6
        0x00000fd0:    e003        ..      B        0xfda ; I2SClkInit + 114
        0x00000fd2:    4811        .H      LDR      r0,[pc,#68] ; [0x1018] = 0x2ee0
        0x00000fd4:    4284        .B      CMP      r4,r0
        0x00000fd6:    d102        ..      BNE      0xfde ; I2SClkInit + 118
        0x00000fd8:    200c        .       MOVS     r0,#0xc
        0x00000fda:    f000f8f5    ....    BL       I2S_SET_MCK_DIV ; 0x11c8
        0x00000fde:    01e1        ..      LSLS     r1,r4,#7
        0x00000fe0:    480e        .H      LDR      r0,[pc,#56] ; [0x101c] = 0x2bf0bfb0
        0x00000fe2:    f7fff8b5    ....    BL       __aeabi_uidiv ; 0x150
        0x00000fe6:    1d40        @.      ADDS     r0,r0,#5
        0x00000fe8:    210a        .!      MOVS     r1,#0xa
        0x00000fea:    f7fff8b1    ....    BL       __aeabi_uidiv ; 0x150
        0x00000fee:    490c        .I      LDR      r1,[pc,#48] ; [0x1020] = 0x401a0000
        0x00000ff0:    1e40        @.      SUBS     r0,r0,#1
        0x00000ff2:    684a        Jh      LDR      r2,[r1,#4]
        0x00000ff4:    23ff        .#      MOVS     r3,#0xff
        0x00000ff6:    021b        ..      LSLS     r3,r3,#8
        0x00000ff8:    439a        .C      BICS     r2,r2,r3
        0x00000ffa:    0200        ..      LSLS     r0,r0,#8
        0x00000ffc:    4302        .C      ORRS     r2,r2,r0
        0x00000ffe:    604a        J`      STR      r2,[r1,#4]
        0x00001000:    4808        .H      LDR      r0,[pc,#32] ; [0x1024] = 0x9231
        0x00001002:    6008        .`      STR      r0,[r1,#0]
        0x00001004:    bd10        ..      POP      {r4,pc}
    $d
        0x00001006:    0000        ..      DCW    0
        0x00001008:    50000040    @..P    DCD    1342177344
        0x0000100c:    50000200    ...P    DCD    1342177792
        0x00001010:    0000bb80    ....    DCD    48000
        0x00001014:    00005dc0    .]..    DCD    24000
        0x00001018:    00002ee0    ....    DCD    12000
        0x0000101c:    2bf0bfb0    ...+    DCD    737198000
        0x00001020:    401a0000    ...@    DCD    1075445760
        0x00001024:    00009231    1...    DCD    37425
    $t
    i.I2S_CLR_RXFIFO
    I2S_CLR_RXFIFO
        0x00001028:    4803        .H      LDR      r0,[pc,#12] ; [0x1038] = 0x401a0000
        0x0000102a:    6801        .h      LDR      r1,[r0,#0]
        0x0000102c:    2201        ."      MOVS     r2,#1
        0x0000102e:    04d2        ..      LSLS     r2,r2,#19
        0x00001030:    4311        .C      ORRS     r1,r1,r2
        0x00001032:    6001        .`      STR      r1,[r0,#0]
        0x00001034:    4770        pG      BX       lr
    $d
        0x00001036:    0000        ..      DCW    0
        0x00001038:    401a0000    ...@    DCD    1075445760
    $t
    i.I2S_CLR_TXFIFO
    I2S_CLR_TXFIFO
        0x0000103c:    4803        .H      LDR      r0,[pc,#12] ; [0x104c] = 0x401a0000
        0x0000103e:    6801        .h      LDR      r1,[r0,#0]
        0x00001040:    2201        ."      MOVS     r2,#1
        0x00001042:    0492        ..      LSLS     r2,r2,#18
        0x00001044:    4311        .C      ORRS     r1,r1,r2
        0x00001046:    6001        .`      STR      r1,[r0,#0]
        0x00001048:    4770        pG      BX       lr
    $d
        0x0000104a:    0000        ..      DCW    0
        0x0000104c:    401a0000    ...@    DCD    1075445760
    $t
    i.I2S_IRQHandler
    I2S_IRQHandler
        0x00001050:    b5fe        ..      PUSH     {r1-r7,lr}
        0x00001052:    4850        PH      LDR      r0,[pc,#320] ; [0x1194] = 0xe000e000
        0x00001054:    6980        .i      LDR      r0,[r0,#0x18]
        0x00001056:    4c50        PL      LDR      r4,[pc,#320] ; [0x1198] = 0x200000dc
        0x00001058:    62e0        .b      STR      r0,[r4,#0x2c]
        0x0000105a:    4850        PH      LDR      r0,[pc,#320] ; [0x119c] = 0x401a0000
        0x0000105c:    68c2        .h      LDR      r2,[r0,#0xc]
        0x0000105e:    4621        !F      MOV      r1,r4
        0x00001060:    61a2        .a      STR      r2,[r4,#0x18]
        0x00001062:    628a        .b      STR      r2,[r1,#0x28]
        0x00001064:    6941        Ai      LDR      r1,[r0,#0x14]
        0x00001066:    9100        ..      STR      r1,[sp,#0]
        0x00001068:    6940        @i      LDR      r0,[r0,#0x14]
        0x0000106a:    4b4d        MK      LDR      r3,[pc,#308] ; [0x11a0] = 0xffff
        0x0000106c:    0c0e        ..      LSRS     r6,r1,#16
        0x0000106e:    2500        .%      MOVS     r5,#0
        0x00001070:    9001        ..      STR      r0,[sp,#4]
        0x00001072:    429e        .B      CMP      r6,r3
        0x00001074:    d001        ..      BEQ      0x107a ; I2S_IRQHandler + 42
        0x00001076:    0c0e        ..      LSRS     r6,r1,#16
        0x00001078:    d102        ..      BNE      0x1080 ; I2S_IRQHandler + 48
        0x0000107a:    0c06        ..      LSRS     r6,r0,#16
        0x0000107c:    429e        .B      CMP      r6,r3
        0x0000107e:    d01c        ..      BEQ      0x10ba ; I2S_IRQHandler + 106
        0x00001080:    0c03        ..      LSRS     r3,r0,#16
        0x00001082:    d01a        ..      BEQ      0x10ba ; I2S_IRQHandler + 106
        0x00001084:    7025        %p      STRB     r5,[r4,#0]
        0x00001086:    61e5        .a      STR      r5,[r4,#0x1c]
        0x00001088:    4e46        FN      LDR      r6,[pc,#280] ; [0x11a4] = 0x2000012d
        0x0000108a:    7833        3x      LDRB     r3,[r6,#0]
        0x0000108c:    2b01        .+      CMP      r3,#1
        0x0000108e:    d01e        ..      BEQ      0x10ce ; I2S_IRQHandler + 126
        0x00001090:    01d3        ..      LSLS     r3,r2,#7
        0x00001092:    00d7        ..      LSLS     r7,r2,#3
        0x00001094:    0fdb        ..      LSRS     r3,r3,#31
        0x00001096:    0fff        ..      LSRS     r7,r7,#31
        0x00001098:    42bb        .B      CMP      r3,r7
        0x0000109a:    d102        ..      BNE      0x10a2 ; I2S_IRQHandler + 82
        0x0000109c:    61a1        .a      STR      r1,[r4,#0x18]
        0x0000109e:    9101        ..      STR      r1,[sp,#4]
        0x000010a0:    9000        ..      STR      r0,[sp,#0]
        0x000010a2:    9800        ..      LDR      r0,[sp,#0]
        0x000010a4:    9b01        ..      LDR      r3,[sp,#4]
        0x000010a6:    0201        ..      LSLS     r1,r0,#8
        0x000010a8:    18c9        ..      ADDS     r1,r1,r3
        0x000010aa:    6321        !c      STR      r1,[r4,#0x30]
        0x000010ac:    493e        >I      LDR      r1,[pc,#248] ; [0x11a8] = 0x20000060
        0x000010ae:    7809        .x      LDRB     r1,[r1,#0]
        0x000010b0:    2900        .)      CMP      r1,#0
        0x000010b2:    d013        ..      BEQ      0x10dc ; I2S_IRQHandler + 140
        0x000010b4:    9500        ..      STR      r5,[sp,#0]
        0x000010b6:    9501        ..      STR      r5,[sp,#4]
        0x000010b8:    e012        ..      B        0x10e0 ; I2S_IRQHandler + 144
        0x000010ba:    69e3        .i      LDR      r3,[r4,#0x1c]
        0x000010bc:    4e3b        ;N      LDR      r6,[pc,#236] ; [0x11ac] = 0x5dc0
        0x000010be:    1c5b        [.      ADDS     r3,r3,#1
        0x000010c0:    61e3        .a      STR      r3,[r4,#0x1c]
        0x000010c2:    42b3        .B      CMP      r3,r6
        0x000010c4:    d9e0        ..      BLS      0x1088 ; I2S_IRQHandler + 56
        0x000010c6:    2301        .#      MOVS     r3,#1
        0x000010c8:    61e5        .a      STR      r5,[r4,#0x1c]
        0x000010ca:    7023        #p      STRB     r3,[r4,#0]
        0x000010cc:    e7dc        ..      B        0x1088 ; I2S_IRQHandler + 56
        0x000010ce:    9500        ..      STR      r5,[sp,#0]
        0x000010d0:    a901        ..      ADD      r1,sp,#4
        0x000010d2:    4668        hF      MOV      r0,sp
        0x000010d4:    9501        ..      STR      r5,[sp,#4]
        0x000010d6:    f001fb13    ....    BL       dealFlashEvent ; 0x2700
        0x000010da:    e022        ".      B        0x1122 ; I2S_IRQHandler + 210
        0x000010dc:    2800        .(      CMP      r0,#0
        0x000010de:    dc01        ..      BGT      0x10e4 ; I2S_IRQHandler + 148
        0x000010e0:    9800        ..      LDR      r0,[sp,#0]
        0x000010e2:    4240        @B      RSBS     r0,r0,#0
        0x000010e4:    1401        ..      ASRS     r1,r0,#16
        0x000010e6:    4832        2H      LDR      r0,[pc,#200] ; [0x11b0] = 0x200002c8
        0x000010e8:    6803        .h      LDR      r3,[r0,#0]
        0x000010ea:    18c9        ..      ADDS     r1,r1,r3
        0x000010ec:    6001        .`      STR      r1,[r0,#0]
        0x000010ee:    9801        ..      LDR      r0,[sp,#4]
        0x000010f0:    2800        .(      CMP      r0,#0
        0x000010f2:    dd01        ..      BLE      0x10f8 ; I2S_IRQHandler + 168
        0x000010f4:    4601        .F      MOV      r1,r0
        0x000010f6:    e000        ..      B        0x10fa ; I2S_IRQHandler + 170
        0x000010f8:    4241        AB      RSBS     r1,r0,#0
        0x000010fa:    4f2e        .O      LDR      r7,[pc,#184] ; [0x11b4] = 0x200002cc
        0x000010fc:    1409        ..      ASRS     r1,r1,#16
        0x000010fe:    683b        ;h      LDR      r3,[r7,#0]
        0x00001100:    18c9        ..      ADDS     r1,r1,r3
        0x00001102:    6039        9`      STR      r1,[r7,#0]
        0x00001104:    0711        ..      LSLS     r1,r2,#28
        0x00001106:    d506        ..      BPL      0x1116 ; I2S_IRQHandler + 198
        0x00001108:    0f11        ..      LSRS     r1,r2,#28
        0x0000110a:    07c9        ..      LSLS     r1,r1,#31
        0x0000110c:    d003        ..      BEQ      0x1116 ; I2S_IRQHandler + 198
        0x0000110e:    9900        ..      LDR      r1,[sp,#0]
        0x00001110:    61a1        .a      STR      r1,[r4,#0x18]
        0x00001112:    9101        ..      STR      r1,[sp,#4]
        0x00001114:    9000        ..      STR      r0,[sp,#0]
        0x00001116:    4828        (H      LDR      r0,[pc,#160] ; [0x11b8] = 0x20000063
        0x00001118:    7800        .x      LDRB     r0,[r0,#0]
        0x0000111a:    2800        .(      CMP      r0,#0
        0x0000111c:    d001        ..      BEQ      0x1122 ; I2S_IRQHandler + 210
        0x0000111e:    9500        ..      STR      r5,[sp,#0]
        0x00001120:    9501        ..      STR      r5,[sp,#4]
        0x00001122:    4826        &H      LDR      r0,[pc,#152] ; [0x11bc] = 0x20000075
        0x00001124:    4a26        &J      LDR      r2,[pc,#152] ; [0x11c0] = 0x20000854
        0x00001126:    7800        .x      LDRB     r0,[r0,#0]
        0x00001128:    4f26        &O      LDR      r7,[pc,#152] ; [0x11c4] = 0x386
        0x0000112a:    2802        .(      CMP      r0,#2
        0x0000112c:    7830        0x      LDRB     r0,[r6,#0]
        0x0000112e:    d01e        ..      BEQ      0x116e ; I2S_IRQHandler + 286
        0x00001130:    2801        .(      CMP      r0,#1
        0x00001132:    d01e        ..      BEQ      0x1172 ; I2S_IRQHandler + 290
        0x00001134:    9800        ..      LDR      r0,[sp,#0]
        0x00001136:    6a61        aj      LDR      r1,[r4,#0x24]
        0x00001138:    1403        ..      ASRS     r3,r0,#16
        0x0000113a:    0088        ..      LSLS     r0,r1,#2
        0x0000113c:    5213        .R      STRH     r3,[r2,r0]
        0x0000113e:    9b01        ..      LDR      r3,[sp,#4]
        0x00001140:    1880        ..      ADDS     r0,r0,r2
        0x00001142:    141b        ..      ASRS     r3,r3,#16
        0x00001144:    1c49        I.      ADDS     r1,r1,#1
        0x00001146:    8043        C.      STRH     r3,[r0,#2]
        0x00001148:    6261        ab      STR      r1,[r4,#0x24]
        0x0000114a:    42b9        .B      CMP      r1,r7
        0x0000114c:    d300        ..      BCC      0x1150 ; I2S_IRQHandler + 256
        0x0000114e:    6265        eb      STR      r5,[r4,#0x24]
        0x00001150:    6a20         j      LDR      r0,[r4,#0x20]
        0x00001152:    0081        ..      LSLS     r1,r0,#2
        0x00001154:    5a53        SZ      LDRH     r3,[r2,r1]
        0x00001156:    1889        ..      ADDS     r1,r1,r2
        0x00001158:    041b        ..      LSLS     r3,r3,#16
        0x0000115a:    9300        ..      STR      r3,[sp,#0]
        0x0000115c:    8849        I.      LDRH     r1,[r1,#2]
        0x0000115e:    1c40        @.      ADDS     r0,r0,#1
        0x00001160:    0409        ..      LSLS     r1,r1,#16
        0x00001162:    9101        ..      STR      r1,[sp,#4]
        0x00001164:    6220         b      STR      r0,[r4,#0x20]
        0x00001166:    42b8        .B      CMP      r0,r7
        0x00001168:    d30d        ..      BCC      0x1186 ; I2S_IRQHandler + 310
        0x0000116a:    6225        %b      STR      r5,[r4,#0x20]
        0x0000116c:    e00b        ..      B        0x1186 ; I2S_IRQHandler + 310
        0x0000116e:    2801        .(      CMP      r0,#1
        0x00001170:    d109        ..      BNE      0x1186 ; I2S_IRQHandler + 310
        0x00001172:    6a61        aj      LDR      r1,[r4,#0x24]
        0x00001174:    0088        ..      LSLS     r0,r1,#2
        0x00001176:    5215        .R      STRH     r5,[r2,r0]
        0x00001178:    1880        ..      ADDS     r0,r0,r2
        0x0000117a:    1c49        I.      ADDS     r1,r1,#1
        0x0000117c:    8045        E.      STRH     r5,[r0,#2]
        0x0000117e:    6261        ab      STR      r1,[r4,#0x24]
        0x00001180:    42b9        .B      CMP      r1,r7
        0x00001182:    d300        ..      BCC      0x1186 ; I2S_IRQHandler + 310
        0x00001184:    6265        eb      STR      r5,[r4,#0x24]
        0x00001186:    4905        .I      LDR      r1,[pc,#20] ; [0x119c] = 0x401a0000
        0x00001188:    9801        ..      LDR      r0,[sp,#4]
        0x0000118a:    6108        .a      STR      r0,[r1,#0x10]
        0x0000118c:    9800        ..      LDR      r0,[sp,#0]
        0x0000118e:    6108        .a      STR      r0,[r1,#0x10]
        0x00001190:    bdfe        ..      POP      {r1-r7,pc}
    $d
        0x00001192:    0000        ..      DCW    0
        0x00001194:    e000e000    ....    DCD    3758153728
        0x00001198:    200000dc    ...     DCD    536871132
        0x0000119c:    401a0000    ...@    DCD    1075445760
        0x000011a0:    0000ffff    ....    DCD    65535
        0x000011a4:    2000012d    -..     DCD    536871213
        0x000011a8:    20000060    `..     DCD    536871008
        0x000011ac:    00005dc0    .]..    DCD    24000
        0x000011b0:    200002c8    ...     DCD    536871624
        0x000011b4:    200002cc    ...     DCD    536871628
        0x000011b8:    20000063    c..     DCD    536871011
        0x000011bc:    20000075    u..     DCD    536871029
        0x000011c0:    20000854    T..     DCD    536873044
        0x000011c4:    00000386    ....    DCD    902
    $t
    i.I2S_SET_MCK_DIV
    I2S_SET_MCK_DIV
        0x000011c8:    4903        .I      LDR      r1,[pc,#12] ; [0x11d8] = 0x401a0000
        0x000011ca:    684a        Jh      LDR      r2,[r1,#4]
        0x000011cc:    08d2        ..      LSRS     r2,r2,#3
        0x000011ce:    00d2        ..      LSLS     r2,r2,#3
        0x000011d0:    4302        .C      ORRS     r2,r2,r0
        0x000011d2:    604a        J`      STR      r2,[r1,#4]
        0x000011d4:    4770        pG      BX       lr
    $d
        0x000011d6:    0000        ..      DCW    0
        0x000011d8:    401a0000    ...@    DCD    1075445760
    $t
    i.NVIC_DisableIRQ
    NVIC_DisableIRQ
        0x000011dc:    06c1        ..      LSLS     r1,r0,#27
        0x000011de:    0ec9        ..      LSRS     r1,r1,#27
        0x000011e0:    2001        .       MOVS     r0,#1
        0x000011e2:    4088        .@      LSLS     r0,r0,r1
        0x000011e4:    4901        .I      LDR      r1,[pc,#4] ; [0x11ec] = 0xe000e180
        0x000011e6:    6008        .`      STR      r0,[r1,#0]
        0x000011e8:    4770        pG      BX       lr
    $d
        0x000011ea:    0000        ..      DCW    0
        0x000011ec:    e000e180    ....    DCD    3758154112
    $t
    i.NVIC_EnableIRQ
    NVIC_EnableIRQ
        0x000011f0:    06c1        ..      LSLS     r1,r0,#27
        0x000011f2:    0ec9        ..      LSRS     r1,r1,#27
        0x000011f4:    2001        .       MOVS     r0,#1
        0x000011f6:    4088        .@      LSLS     r0,r0,r1
        0x000011f8:    4901        .I      LDR      r1,[pc,#4] ; [0x1200] = 0xe000e100
        0x000011fa:    6008        .`      STR      r0,[r1,#0]
        0x000011fc:    4770        pG      BX       lr
    $d
        0x000011fe:    0000        ..      DCW    0
        0x00001200:    e000e100    ....    DCD    3758153984
    $t
    i.NVIC_EnableIRQ
    NVIC_EnableIRQ
        0x00001204:    06c1        ..      LSLS     r1,r0,#27
        0x00001206:    0ec9        ..      LSRS     r1,r1,#27
        0x00001208:    2001        .       MOVS     r0,#1
        0x0000120a:    4088        .@      LSLS     r0,r0,r1
        0x0000120c:    4901        .I      LDR      r1,[pc,#4] ; [0x1214] = 0xe000e100
        0x0000120e:    6008        .`      STR      r0,[r1,#0]
        0x00001210:    4770        pG      BX       lr
    $d
        0x00001212:    0000        ..      DCW    0
        0x00001214:    e000e100    ....    DCD    3758153984
    $t
    i.PWRWU_IRQHandler
    PWRWU_IRQHandler
        0x00001218:    b510        ..      PUSH     {r4,lr}
        0x0000121a:    f000f847    ..G.    BL       SYS_UnlockReg ; 0x12ac
        0x0000121e:    2002        .       MOVS     r0,#2
        0x00001220:    f002f8e4    ....    BL       ledColorSet ; 0x33ec
        0x00001224:    207d        }       MOVS     r0,#0x7d
        0x00001226:    0100        ..      LSLS     r0,r0,#4
        0x00001228:    f003f9a4    ....    BL       sysDelayMs ; 0x4574
        0x0000122c:    4901        .I      LDR      r1,[pc,#4] ; [0x1234] = 0x50000100
        0x0000122e:    2000        .       MOVS     r0,#0
        0x00001230:    6008        .`      STR      r0,[r1,#0]
        0x00001232:    bd10        ..      POP      {r4,pc}
    $d
        0x00001234:    50000100    ...P    DCD    1342177536
    $t
    i.SPI2_IRQHandler
    SPI2_IRQHandler
        0x00001238:    4770        pG      BX       lr
    i.SPI_SET_TX_BIT_LEN
    SPI_SET_TX_BIT_LEN
        0x0000123a:    6802        .h      LDR      r2,[r0,#0]
        0x0000123c:    23f8        .#      MOVS     r3,#0xf8
        0x0000123e:    439a        .C      BICS     r2,r2,r3
        0x00001240:    2920         )      CMP      r1,#0x20
        0x00001242:    d100        ..      BNE      0x1246 ; SPI_SET_TX_BIT_LEN + 12
        0x00001244:    2100        .!      MOVS     r1,#0
        0x00001246:    00c9        ..      LSLS     r1,r1,#3
        0x00001248:    430a        .C      ORRS     r2,r2,r1
        0x0000124a:    6002        .`      STR      r2,[r0,#0]
        0x0000124c:    4770        pG      BX       lr
    i.SYS_RESET_IP2
    SYS_RESET_IP2
        0x0000124e:    2105        .!      MOVS     r1,#5
        0x00001250:    0709        ..      LSLS     r1,r1,#28
        0x00001252:    68ca        .h      LDR      r2,[r1,#0xc]
        0x00001254:    4302        .C      ORRS     r2,r2,r0
        0x00001256:    60ca        .`      STR      r2,[r1,#0xc]
        0x00001258:    68ca        .h      LDR      r2,[r1,#0xc]
        0x0000125a:    4382        .C      BICS     r2,r2,r0
        0x0000125c:    60ca        .`      STR      r2,[r1,#0xc]
        0x0000125e:    4770        pG      BX       lr
    i.SYS_RESET_IP2
    SYS_RESET_IP2
        0x00001260:    2105        .!      MOVS     r1,#5
        0x00001262:    0709        ..      LSLS     r1,r1,#28
        0x00001264:    68ca        .h      LDR      r2,[r1,#0xc]
        0x00001266:    4302        .C      ORRS     r2,r2,r0
        0x00001268:    60ca        .`      STR      r2,[r1,#0xc]
        0x0000126a:    68ca        .h      LDR      r2,[r1,#0xc]
        0x0000126c:    4382        .C      BICS     r2,r2,r0
        0x0000126e:    60ca        .`      STR      r2,[r1,#0xc]
        0x00001270:    4770        pG      BX       lr
    i.SYS_RESET_IP2
    SYS_RESET_IP2
        0x00001272:    2105        .!      MOVS     r1,#5
        0x00001274:    0709        ..      LSLS     r1,r1,#28
        0x00001276:    68ca        .h      LDR      r2,[r1,#0xc]
        0x00001278:    4302        .C      ORRS     r2,r2,r0
        0x0000127a:    60ca        .`      STR      r2,[r1,#0xc]
        0x0000127c:    68ca        .h      LDR      r2,[r1,#0xc]
        0x0000127e:    4382        .C      BICS     r2,r2,r0
        0x00001280:    60ca        .`      STR      r2,[r1,#0xc]
        0x00001282:    4770        pG      BX       lr
    i.SYS_UnlockReg
    SYS_UnlockReg
        0x00001284:    4803        .H      LDR      r0,[pc,#12] ; [0x1294] = 0x50000100
        0x00001286:    2159        Y!      MOVS     r1,#0x59
        0x00001288:    6001        .`      STR      r1,[r0,#0]
        0x0000128a:    2116        .!      MOVS     r1,#0x16
        0x0000128c:    6001        .`      STR      r1,[r0,#0]
        0x0000128e:    2188        .!      MOVS     r1,#0x88
        0x00001290:    6001        .`      STR      r1,[r0,#0]
        0x00001292:    4770        pG      BX       lr
    $d
        0x00001294:    50000100    ...P    DCD    1342177536
    $t
    i.SYS_UnlockReg
    SYS_UnlockReg
        0x00001298:    4803        .H      LDR      r0,[pc,#12] ; [0x12a8] = 0x50000100
        0x0000129a:    2159        Y!      MOVS     r1,#0x59
        0x0000129c:    6001        .`      STR      r1,[r0,#0]
        0x0000129e:    2116        .!      MOVS     r1,#0x16
        0x000012a0:    6001        .`      STR      r1,[r0,#0]
        0x000012a2:    2188        .!      MOVS     r1,#0x88
        0x000012a4:    6001        .`      STR      r1,[r0,#0]
        0x000012a6:    4770        pG      BX       lr
    $d
        0x000012a8:    50000100    ...P    DCD    1342177536
    $t
    i.SYS_UnlockReg
    SYS_UnlockReg
        0x000012ac:    4803        .H      LDR      r0,[pc,#12] ; [0x12bc] = 0x50000100
        0x000012ae:    2159        Y!      MOVS     r1,#0x59
        0x000012b0:    6001        .`      STR      r1,[r0,#0]
        0x000012b2:    2116        .!      MOVS     r1,#0x16
        0x000012b4:    6001        .`      STR      r1,[r0,#0]
        0x000012b6:    2188        .!      MOVS     r1,#0x88
        0x000012b8:    6001        .`      STR      r1,[r0,#0]
        0x000012ba:    4770        pG      BX       lr
    $d
        0x000012bc:    50000100    ...P    DCD    1342177536
    $t
    i.SYS_UnlockReg
    SYS_UnlockReg
        0x000012c0:    4803        .H      LDR      r0,[pc,#12] ; [0x12d0] = 0x50000100
        0x000012c2:    2159        Y!      MOVS     r1,#0x59
        0x000012c4:    6001        .`      STR      r1,[r0,#0]
        0x000012c6:    2116        .!      MOVS     r1,#0x16
        0x000012c8:    6001        .`      STR      r1,[r0,#0]
        0x000012ca:    2188        .!      MOVS     r1,#0x88
        0x000012cc:    6001        .`      STR      r1,[r0,#0]
        0x000012ce:    4770        pG      BX       lr
    $d
        0x000012d0:    50000100    ...P    DCD    1342177536
    $t
    i.SYS_UnlockReg
    SYS_UnlockReg
        0x000012d4:    4803        .H      LDR      r0,[pc,#12] ; [0x12e4] = 0x50000100
        0x000012d6:    2159        Y!      MOVS     r1,#0x59
        0x000012d8:    6001        .`      STR      r1,[r0,#0]
        0x000012da:    2116        .!      MOVS     r1,#0x16
        0x000012dc:    6001        .`      STR      r1,[r0,#0]
        0x000012de:    2188        .!      MOVS     r1,#0x88
        0x000012e0:    6001        .`      STR      r1,[r0,#0]
        0x000012e2:    4770        pG      BX       lr
    $d
        0x000012e4:    50000100    ...P    DCD    1342177536
    $t
    i.SysTickInit
    SysTickInit
        0x000012e8:    b530        0.      PUSH     {r4,r5,lr}
        0x000012ea:    0200        ..      LSLS     r0,r0,#8
        0x000012ec:    0a00        ..      LSRS     r0,r0,#8
        0x000012ee:    490b        .I      LDR      r1,[pc,#44] ; [0x131c] = 0xe000e000
        0x000012f0:    1e40        @.      SUBS     r0,r0,#1
        0x000012f2:    6148        Ha      STR      r0,[r1,#0x14]
        0x000012f4:    480a        .H      LDR      r0,[pc,#40] ; [0x1320] = 0xe000ed04
        0x000012f6:    69c2        .i      LDR      r2,[r0,#0x1c]
        0x000012f8:    2403        .$      MOVS     r4,#3
        0x000012fa:    0212        ..      LSLS     r2,r2,#8
        0x000012fc:    0a12        ..      LSRS     r2,r2,#8
        0x000012fe:    044b        K.      LSLS     r3,r1,#17
        0x00001300:    431a        .C      ORRS     r2,r2,r3
        0x00001302:    61c2        .a      STR      r2,[r0,#0x1c]
        0x00001304:    2000        .       MOVS     r0,#0
        0x00001306:    6188        .a      STR      r0,[r1,#0x18]
        0x00001308:    4b06        .K      LDR      r3,[pc,#24] ; [0x1324] = 0x50000200
        0x0000130a:    2010        .       MOVS     r0,#0x10
        0x0000130c:    691a        .i      LDR      r2,[r3,#0x10]
        0x0000130e:    2538        8%      MOVS     r5,#0x38
        0x00001310:    43aa        .C      BICS     r2,r2,r5
        0x00001312:    4302        .C      ORRS     r2,r2,r0
        0x00001314:    611a        .a      STR      r2,[r3,#0x10]
        0x00001316:    610c        .a      STR      r4,[r1,#0x10]
        0x00001318:    bd30        0.      POP      {r4,r5,pc}
    $d
        0x0000131a:    0000        ..      DCW    0
        0x0000131c:    e000e000    ....    DCD    3758153728
        0x00001320:    e000ed04    ....    DCD    3758157060
        0x00001324:    50000200    ...P    DCD    1342177792
    $t
    i.SysTick_Handler
    SysTick_Handler
        0x00001328:    b5f8        ..      PUSH     {r3-r7,lr}
        0x0000132a:    4d27        'M      LDR      r5,[pc,#156] ; [0x13c8] = 0x2000069c
        0x0000132c:    6828        (h      LDR      r0,[r5,#0]
        0x0000132e:    1c40        @.      ADDS     r0,r0,#1
        0x00001330:    6028        (`      STR      r0,[r5,#0]
        0x00001332:    4926        &I      LDR      r1,[pc,#152] ; [0x13cc] = 0x3fffffff
        0x00001334:    4288        .B      CMP      r0,r1
        0x00001336:    d904        ..      BLS      0x1342 ; SysTick_Handler + 26
        0x00001338:    4825        %H      LDR      r0,[pc,#148] ; [0x13d0] = 0x2710
        0x0000133a:    6028        (`      STR      r0,[r5,#0]
        0x0000133c:    2001        .       MOVS     r0,#1
        0x0000133e:    f002fb1e    ....    BL       logEvent ; 0x397e
        0x00001342:    4824        $H      LDR      r0,[pc,#144] ; [0x13d4] = 0x2000038c
        0x00001344:    2600        .&      MOVS     r6,#0
        0x00001346:    7800        .x      LDRB     r0,[r0,#0]
        0x00001348:    2800        .(      CMP      r0,#0
        0x0000134a:    d00d        ..      BEQ      0x1368 ; SysTick_Handler + 64
        0x0000134c:    4822        "H      LDR      r0,[pc,#136] ; [0x13d8] = 0x50004260
        0x0000134e:    6800        .h      LDR      r0,[r0,#0]
        0x00001350:    2800        .(      CMP      r0,#0
        0x00001352:    6968        hi      LDR      r0,[r5,#0x14]
        0x00001354:    d001        ..      BEQ      0x135a ; SysTick_Handler + 50
        0x00001356:    1c40        @.      ADDS     r0,r0,#1
        0x00001358:    6168        ha      STR      r0,[r5,#0x14]
        0x0000135a:    2864        d(      CMP      r0,#0x64
        0x0000135c:    d905        ..      BLS      0x136a ; SysTick_Handler + 66
        0x0000135e:    491f        .I      LDR      r1,[pc,#124] ; [0x13dc] = 0x2000038d
        0x00001360:    2001        .       MOVS     r0,#1
        0x00001362:    616e        na      STR      r6,[r5,#0x14]
        0x00001364:    7008        .p      STRB     r0,[r1,#0]
        0x00001366:    e000        ..      B        0x136a ; SysTick_Handler + 66
        0x00001368:    616e        na      STR      r6,[r5,#0x14]
        0x0000136a:    4f1d        .O      LDR      r7,[pc,#116] ; [0x13e0] = 0x20001948
        0x0000136c:    2400        .$      MOVS     r4,#0
        0x0000136e:    4622        "F      MOV      r2,r4
        0x00001370:    200c        .       MOVS     r0,#0xc
        0x00001372:    4342        BC      MULS     r2,r0,r2
        0x00001374:    19d0        ..      ADDS     r0,r2,r7
        0x00001376:    7841        Ax      LDRB     r1,[r0,#1]
        0x00001378:    2900        .)      CMP      r1,#0
        0x0000137a:    d00c        ..      BEQ      0x1396 ; SysTick_Handler + 110
        0x0000137c:    6841        Ah      LDR      r1,[r0,#4]
        0x0000137e:    2900        .)      CMP      r1,#0
        0x00001380:    d002        ..      BEQ      0x1388 ; SysTick_Handler + 96
        0x00001382:    1e49        I.      SUBS     r1,r1,#1
        0x00001384:    6041        A`      STR      r1,[r0,#4]
        0x00001386:    d106        ..      BNE      0x1396 ; SysTick_Handler + 110
        0x00001388:    5cb9        .\      LDRB     r1,[r7,r2]
        0x0000138a:    2900        .)      CMP      r1,#0
        0x0000138c:    d003        ..      BEQ      0x1396 ; SysTick_Handler + 110
        0x0000138e:    6880        .h      LDR      r0,[r0,#8]
        0x00001390:    2800        .(      CMP      r0,#0
        0x00001392:    d000        ..      BEQ      0x1396 ; SysTick_Handler + 110
        0x00001394:    4780        .G      BLX      r0
        0x00001396:    1c64        d.      ADDS     r4,r4,#1
        0x00001398:    2c0a        .,      CMP      r4,#0xa
        0x0000139a:    d3e8        ..      BCC      0x136e ; SysTick_Handler + 70
        0x0000139c:    4811        .H      LDR      r0,[pc,#68] ; [0x13e4] = 0x400e0000
        0x0000139e:    6a01        .j      LDR      r1,[r0,#0x20]
        0x000013a0:    2201        ."      MOVS     r2,#1
        0x000013a2:    02d2        ..      LSLS     r2,r2,#11
        0x000013a4:    4311        .C      ORRS     r1,r1,r2
        0x000013a6:    6201        .b      STR      r1,[r0,#0x20]
        0x000013a8:    490f        .I      LDR      r1,[pc,#60] ; [0x13e8] = 0x200002c8
        0x000013aa:    68e8        .h      LDR      r0,[r5,#0xc]
        0x000013ac:    680a        .h      LDR      r2,[r1,#0]
        0x000013ae:    1880        ..      ADDS     r0,r0,r2
        0x000013b0:    60e8        .`      STR      r0,[r5,#0xc]
        0x000013b2:    480e        .H      LDR      r0,[pc,#56] ; [0x13ec] = 0x200002cc
        0x000013b4:    692a        *i      LDR      r2,[r5,#0x10]
        0x000013b6:    6803        .h      LDR      r3,[r0,#0]
        0x000013b8:    18d2        ..      ADDS     r2,r2,r3
        0x000013ba:    612a        *a      STR      r2,[r5,#0x10]
        0x000013bc:    6006        .`      STR      r6,[r0,#0]
        0x000013be:    600e        .`      STR      r6,[r1,#0]
        0x000013c0:    f001fe86    ....    BL       i2cSpirit ; 0x30d0
        0x000013c4:    bdf8        ..      POP      {r3-r7,pc}
    $d
        0x000013c6:    0000        ..      DCW    0
        0x000013c8:    2000069c    ...     DCD    536872604
        0x000013cc:    3fffffff    ...?    DCD    1073741823
        0x000013d0:    00002710    .'..    DCD    10000
        0x000013d4:    2000038c    ...     DCD    536871820
        0x000013d8:    50004260    `B.P    DCD    1342194272
        0x000013dc:    2000038d    ...     DCD    536871821
        0x000013e0:    20001948    H..     DCD    536877384
        0x000013e4:    400e0000    ...@    DCD    1074659328
        0x000013e8:    200002c8    ...     DCD    536871624
        0x000013ec:    200002cc    ...     DCD    536871628
    $t
    i.SystemCoreClockUpdate
    SystemCoreClockUpdate
        0x000013f0:    b538        8.      PUSH     {r3-r5,lr}
        0x000013f2:    a01c        ..      ADR      r0,{pc}+0x72 ; 0x1464
        0x000013f4:    6800        .h      LDR      r0,[r0,#0]
        0x000013f6:    4c1c        .L      LDR      r4,[pc,#112] ; [0x1468] = 0x50000200
        0x000013f8:    9000        ..      STR      r0,[sp,#0]
        0x000013fa:    6a21        !j      LDR      r1,[r4,#0x20]
        0x000013fc:    2000        .       MOVS     r0,#0
        0x000013fe:    1322        ".      ASRS     r2,r4,#12
        0x00001400:    4211        .B      TST      r1,r2
        0x00001402:    d116        ..      BNE      0x1432 ; SystemCoreClockUpdate + 66
        0x00001404:    0308        ..      LSLS     r0,r1,#12
        0x00001406:    d501        ..      BPL      0x140c ; SystemCoreClockUpdate + 28
        0x00001408:    4818        .H      LDR      r0,[pc,#96] ; [0x146c] = 0x1518000
        0x0000140a:    e000        ..      B        0x140e ; SystemCoreClockUpdate + 30
        0x0000140c:    4818        .H      LDR      r0,[pc,#96] ; [0x1470] = 0xb71b00
        0x0000140e:    038a        ..      LSLS     r2,r1,#14
        0x00001410:    d40f        ..      BMI      0x1432 ; SystemCoreClockUpdate + 66
        0x00001412:    040a        ..      LSLS     r2,r1,#16
        0x00001414:    0f92        ..      LSRS     r2,r2,#30
        0x00001416:    466b        kF      MOV      r3,sp
        0x00001418:    5c9b        .\      LDRB     r3,[r3,r2]
        0x0000141a:    05ca        ..      LSLS     r2,r1,#23
        0x0000141c:    0489        ..      LSLS     r1,r1,#18
        0x0000141e:    0dd2        ..      LSRS     r2,r2,#23
        0x00001420:    0ec9        ..      LSRS     r1,r1,#27
        0x00001422:    1c92        ..      ADDS     r2,r2,#2
        0x00001424:    1c89        ..      ADDS     r1,r1,#2
        0x00001426:    0880        ..      LSRS     r0,r0,#2
        0x00001428:    4359        YC      MULS     r1,r3,r1
        0x0000142a:    4350        PC      MULS     r0,r2,r0
        0x0000142c:    f7fefe90    ....    BL       __aeabi_uidiv ; 0x150
        0x00001430:    0080        ..      LSLS     r0,r0,#2
        0x00001432:    4d10        .M      LDR      r5,[pc,#64] ; [0x1474] = 0x20000000
        0x00001434:    60a8        .`      STR      r0,[r5,#8]
        0x00001436:    6921        !i      LDR      r1,[r4,#0x10]
        0x00001438:    0749        I.      LSLS     r1,r1,#29
        0x0000143a:    0f49        I.      LSRS     r1,r1,#29
        0x0000143c:    2902        .)      CMP      r1,#2
        0x0000143e:    d003        ..      BEQ      0x1448 ; SystemCoreClockUpdate + 88
        0x00001440:    0088        ..      LSLS     r0,r1,#2
        0x00001442:    4629        )F      MOV      r1,r5
        0x00001444:    310c        .1      ADDS     r1,r1,#0xc
        0x00001446:    5808        .X      LDR      r0,[r1,r0]
        0x00001448:    69a1        .i      LDR      r1,[r4,#0x18]
        0x0000144a:    0709        ..      LSLS     r1,r1,#28
        0x0000144c:    0f09        ..      LSRS     r1,r1,#28
        0x0000144e:    1c49        I.      ADDS     r1,r1,#1
        0x00001450:    f7fefe7e    ..~.    BL       __aeabi_uidiv ; 0x150
        0x00001454:    4908        .I      LDR      r1,[pc,#32] ; [0x1478] = 0xf4240
        0x00001456:    6028        (`      STR      r0,[r5,#0]
        0x00001458:    104a        J.      ASRS     r2,r1,#1
        0x0000145a:    1880        ..      ADDS     r0,r0,r2
        0x0000145c:    f7fefe78    ..x.    BL       __aeabi_uidiv ; 0x150
        0x00001460:    6068        h`      STR      r0,[r5,#4]
        0x00001462:    bd38        8.      POP      {r3-r5,pc}
    $d
        0x00001464:    04020201    ....    DCD    67240449
        0x00001468:    50000200    ...P    DCD    1342177792
        0x0000146c:    01518000    ..Q.    DCD    22118400
        0x00001470:    00b71b00    ....    DCD    12000000
        0x00001474:    20000000    ...     DCD    536870912
        0x00001478:    000f4240    @B..    DCD    1000000
    $t
    i.SystemInit
    SystemInit
        0x0000147c:    4770        pG      BX       lr
        0x0000147e:    0000        ..      MOVS     r0,r0
    i.TMR0_IRQHandler
    TMR0_IRQHandler
        0x00001480:    b570        p.      PUSH     {r4-r6,lr}
        0x00001482:    4817        .H      LDR      r0,[pc,#92] ; [0x14e0] = 0x40010000
        0x00001484:    6882        .h      LDR      r2,[r0,#8]
        0x00001486:    2101        .!      MOVS     r1,#1
        0x00001488:    430a        .C      ORRS     r2,r2,r1
        0x0000148a:    6082        .`      STR      r2,[r0,#8]
        0x0000148c:    4b15        .K      LDR      r3,[pc,#84] ; [0x14e4] = 0x200002d0
        0x0000148e:    2200        ."      MOVS     r2,#0
        0x00001490:    6ad8        .j      LDR      r0,[r3,#0x2c]
        0x00001492:    1c40        @.      ADDS     r0,r0,#1
        0x00001494:    62d8        .b      STR      r0,[r3,#0x2c]
        0x00001496:    28c8        .(      CMP      r0,#0xc8
        0x00001498:    d900        ..      BLS      0x149c ; TMR0_IRQHandler + 28
        0x0000149a:    62da        .b      STR      r2,[r3,#0x2c]
        0x0000149c:    6998        .i      LDR      r0,[r3,#0x18]
        0x0000149e:    4c11        .L      LDR      r4,[pc,#68] ; [0x14e4] = 0x200002d0
        0x000014a0:    0080        ..      LSLS     r0,r0,#2
        0x000014a2:    3454        T4      ADDS     r4,r4,#0x54
        0x000014a4:    5825        %X      LDR      r5,[r4,r0]
        0x000014a6:    6ad8        .j      LDR      r0,[r3,#0x2c]
        0x000014a8:    4e0f        .N      LDR      r6,[pc,#60] ; [0x14e8] = 0x50004230
        0x000014aa:    4285        .B      CMP      r5,r0
        0x000014ac:    d901        ..      BLS      0x14b2 ; TMR0_IRQHandler + 50
        0x000014ae:    6031        1`      STR      r1,[r6,#0]
        0x000014b0:    e000        ..      B        0x14b4 ; TMR0_IRQHandler + 52
        0x000014b2:    6032        2`      STR      r2,[r6,#0]
        0x000014b4:    69dd        .i      LDR      r5,[r3,#0x1c]
        0x000014b6:    00ad        ..      LSLS     r5,r5,#2
        0x000014b8:    5966        fY      LDR      r6,[r4,r5]
        0x000014ba:    4d0b        .M      LDR      r5,[pc,#44] ; [0x14e8] = 0x50004230
        0x000014bc:    3508        .5      ADDS     r5,r5,#8
        0x000014be:    4286        .B      CMP      r6,r0
        0x000014c0:    d901        ..      BLS      0x14c6 ; TMR0_IRQHandler + 70
        0x000014c2:    6029        )`      STR      r1,[r5,#0]
        0x000014c4:    e000        ..      B        0x14c8 ; TMR0_IRQHandler + 72
        0x000014c6:    602a        *`      STR      r2,[r5,#0]
        0x000014c8:    6a1b        .j      LDR      r3,[r3,#0x20]
        0x000014ca:    009b        ..      LSLS     r3,r3,#2
        0x000014cc:    58e4        .X      LDR      r4,[r4,r3]
        0x000014ce:    4b06        .K      LDR      r3,[pc,#24] ; [0x14e8] = 0x50004230
        0x000014d0:    1d1b        ..      ADDS     r3,r3,#4
        0x000014d2:    4284        .B      CMP      r4,r0
        0x000014d4:    d901        ..      BLS      0x14da ; TMR0_IRQHandler + 90
        0x000014d6:    6019        .`      STR      r1,[r3,#0]
        0x000014d8:    bd70        p.      POP      {r4-r6,pc}
        0x000014da:    601a        .`      STR      r2,[r3,#0]
        0x000014dc:    bd70        p.      POP      {r4-r6,pc}
    $d
        0x000014de:    0000        ..      DCW    0
        0x000014e0:    40010000    ...@    DCD    1073807360
        0x000014e4:    200002d0    ...     DCD    536871632
        0x000014e8:    50004230    0B.P    DCD    1342194224
    $t
    i.UART0_IRQHandler
    UART0_IRQHandler
        0x000014ec:    b5f0        ..      PUSH     {r4-r7,lr}
        0x000014ee:    4f2a        *O      LDR      r7,[pc,#168] ; [0x1598] = 0x40050000
        0x000014f0:    69f8        .i      LDR      r0,[r7,#0x1c]
        0x000014f2:    15b9        ..      ASRS     r1,r7,#22
        0x000014f4:    4e29        )N      LDR      r6,[pc,#164] ; [0x159c] = 0x200019c0
        0x000014f6:    4d2a        *M      LDR      r5,[pc,#168] ; [0x15a0] = 0x200006b4
        0x000014f8:    4208        .B      TST      r0,r1
        0x000014fa:    d103        ..      BNE      0x1504 ; UART0_IRQHandler + 24
        0x000014fc:    69f8        .i      LDR      r0,[r7,#0x1c]
        0x000014fe:    0109        ..      LSLS     r1,r1,#4
        0x00001500:    4208        .B      TST      r0,r1
        0x00001502:    d026        &.      BEQ      0x1552 ; UART0_IRQHandler + 102
        0x00001504:    68a9        .h      LDR      r1,[r5,#8]
        0x00001506:    69aa        .i      LDR      r2,[r5,#0x18]
        0x00001508:    31ff        .1      ADDS     r1,r1,#0xff
        0x0000150a:    3101        .1      ADDS     r1,#1
        0x0000150c:    69b8        .i      LDR      r0,[r7,#0x18]
        0x0000150e:    2301        .#      MOVS     r3,#1
        0x00001510:    039b        ..      LSLS     r3,r3,#14
        0x00001512:    4218        .B      TST      r0,r3
        0x00001514:    d117        ..      BNE      0x1546 ; UART0_IRQHandler + 90
        0x00001516:    6838        8h      LDR      r0,[r7,#0]
        0x00001518:    b2c4        ..      UXTB     r4,r0
        0x0000151a:    6868        hh      LDR      r0,[r5,#4]
        0x0000151c:    4288        .B      CMP      r0,r1
        0x0000151e:    d801        ..      BHI      0x1524 ; UART0_IRQHandler + 56
        0x00001520:    2aff        .*      CMP      r2,#0xff
        0x00001522:    d911        ..      BLS      0x1548 ; UART0_IRQHandler + 92
        0x00001524:    4620         F      MOV      r0,r4
        0x00001526:    f001ff0d    ....    BL       iputc ; 0x3344
        0x0000152a:    6a28        (j      LDR      r0,[r5,#0x20]
        0x0000152c:    1c40        @.      ADDS     r0,r0,#1
        0x0000152e:    6228        (b      STR      r0,[r5,#0x20]
        0x00001530:    2c0d        .,      CMP      r4,#0xd
        0x00001532:    d108        ..      BNE      0x1546 ; UART0_IRQHandler + 90
        0x00001534:    2000        .       MOVS     r0,#0
        0x00001536:    6228        (b      STR      r0,[r5,#0x20]
        0x00001538:    7928        (y      LDRB     r0,[r5,#4]
        0x0000153a:    1e40        @.      SUBS     r0,r0,#1
        0x0000153c:    b2c0        ..      UXTB     r0,r0
        0x0000153e:    5434        4T      STRB     r4,[r6,r0]
        0x00001540:    68a8        .h      LDR      r0,[r5,#8]
        0x00001542:    1e40        @.      SUBS     r0,r0,#1
        0x00001544:    60a8        .`      STR      r0,[r5,#8]
        0x00001546:    bdf0        ..      POP      {r4-r7,pc}
        0x00001548:    b2c3        ..      UXTB     r3,r0
        0x0000154a:    54f4        .T      STRB     r4,[r6,r3]
        0x0000154c:    1c40        @.      ADDS     r0,r0,#1
        0x0000154e:    6068        h`      STR      r0,[r5,#4]
        0x00001550:    e7dc        ..      B        0x150c ; UART0_IRQHandler + 32
        0x00001552:    69f8        .i      LDR      r0,[r7,#0x1c]
        0x00001554:    2101        .!      MOVS     r1,#1
        0x00001556:    0249        I.      LSLS     r1,r1,#9
        0x00001558:    4208        .B      TST      r0,r1
        0x0000155a:    4911        .I      LDR      r1,[pc,#68] ; [0x15a0] = 0x200006b4
        0x0000155c:    68c9        .h      LDR      r1,[r1,#0xc]
        0x0000155e:    d0f2        ..      BEQ      0x1546 ; UART0_IRQHandler + 90
        0x00001560:    4b10        .K      LDR      r3,[pc,#64] ; [0x15a4] = 0x20001ac0
        0x00001562:    2401        .$      MOVS     r4,#1
        0x00001564:    6928        (i      LDR      r0,[r5,#0x10]
        0x00001566:    05e4        ..      LSLS     r4,r4,#23
        0x00001568:    4288        .B      CMP      r0,r1
        0x0000156a:    d202        ..      BCS      0x1572 ; UART0_IRQHandler + 134
        0x0000156c:    69ba        .i      LDR      r2,[r7,#0x18]
        0x0000156e:    4222        "B      TST      r2,r4
        0x00001570:    d00b        ..      BEQ      0x158a ; UART0_IRQHandler + 158
        0x00001572:    4288        .B      CMP      r0,r1
        0x00001574:    d1e7        ..      BNE      0x1546 ; UART0_IRQHandler + 90
        0x00001576:    687a        zh      LDR      r2,[r7,#4]
        0x00001578:    2002        .       MOVS     r0,#2
        0x0000157a:    4382        .C      BICS     r2,r2,r0
        0x0000157c:    607a        z`      STR      r2,[r7,#4]
        0x0000157e:    2001        .       MOVS     r0,#1
        0x00001580:    6168        ha      STR      r0,[r5,#0x14]
        0x00001582:    b2c8        ..      UXTB     r0,r1
        0x00001584:    60e8        .`      STR      r0,[r5,#0xc]
        0x00001586:    6128        (a      STR      r0,[r5,#0x10]
        0x00001588:    bdf0        ..      POP      {r4-r7,pc}
        0x0000158a:    05c2        ..      LSLS     r2,r0,#23
        0x0000158c:    0dd2        ..      LSRS     r2,r2,#23
        0x0000158e:    5c9a        .\      LDRB     r2,[r3,r2]
        0x00001590:    603a        :`      STR      r2,[r7,#0]
        0x00001592:    1c40        @.      ADDS     r0,r0,#1
        0x00001594:    6128        (a      STR      r0,[r5,#0x10]
        0x00001596:    e7e7        ..      B        0x1568 ; UART0_IRQHandler + 124
    $d
        0x00001598:    40050000    ...@    DCD    1074069504
        0x0000159c:    200019c0    ...     DCD    536877504
        0x000015a0:    200006b4    ...     DCD    536872628
        0x000015a4:    20001ac0    ...     DCD    536877760
    $t
    i.WB_MMI_commend
    WB_MMI_commend
        0x000015a8:    b510        ..      PUSH     {r4,lr}
        0x000015aa:    4909        .I      LDR      r1,[pc,#36] ; [0x15d0] = 0x20001cc0
        0x000015ac:    22aa        ."      MOVS     r2,#0xaa
        0x000015ae:    700a        .p      STRB     r2,[r1,#0]
        0x000015b0:    2200        ."      MOVS     r2,#0
        0x000015b2:    704a        Jp      STRB     r2,[r1,#1]
        0x000015b4:    2303        .#      MOVS     r3,#3
        0x000015b6:    708b        .p      STRB     r3,[r1,#2]
        0x000015b8:    2302        .#      MOVS     r3,#2
        0x000015ba:    70cb        .p      STRB     r3,[r1,#3]
        0x000015bc:    710a        .q      STRB     r2,[r1,#4]
        0x000015be:    7148        Hq      STRB     r0,[r1,#5]
        0x000015c0:    1d40        @.      ADDS     r0,r0,#5
        0x000015c2:    4240        @B      RSBS     r0,r0,#0
        0x000015c4:    7188        .q      STRB     r0,[r1,#6]
        0x000015c6:    2007        .       MOVS     r0,#7
        0x000015c8:    f003f91a    ....    BL       uartSendCmd ; 0x4800
        0x000015cc:    bd10        ..      POP      {r4,pc}
    $d
        0x000015ce:    0000        ..      DCW    0
        0x000015d0:    20001cc0    ...     DCD    536878272
    $t
    i.WB_close_call
    WB_close_call
        0x000015d4:    b510        ..      PUSH     {r4,lr}
        0x000015d6:    2002        .       MOVS     r0,#2
        0x000015d8:    f7ffffe6    ....    BL       WB_MMI_commend ; 0x15a8
        0x000015dc:    bd10        ..      POP      {r4,pc}
    i.WB_enter_pairing
    WB_enter_pairing
        0x000015de:    b510        ..      PUSH     {r4,lr}
        0x000015e0:    205d        ]       MOVS     r0,#0x5d
        0x000015e2:    f7ffffe1    ....    BL       WB_MMI_commend ; 0x15a8
        0x000015e6:    bd10        ..      POP      {r4,pc}
    i.WB_open_call
    WB_open_call
        0x000015e8:    b510        ..      PUSH     {r4,lr}
        0x000015ea:    2004        .       MOVS     r0,#4
        0x000015ec:    f7ffffdc    ....    BL       WB_MMI_commend ; 0x15a8
        0x000015f0:    bd10        ..      POP      {r4,pc}
    i.WB_play_pause
    WB_play_pause
        0x000015f2:    b510        ..      PUSH     {r4,lr}
        0x000015f4:    2032        2       MOVS     r0,#0x32
        0x000015f6:    f7ffffd7    ....    BL       WB_MMI_commend ; 0x15a8
        0x000015fa:    bd10        ..      POP      {r4,pc}
    i.WB_reject_call
    WB_reject_call
        0x000015fc:    b510        ..      PUSH     {r4,lr}
        0x000015fe:    2005        .       MOVS     r0,#5
        0x00001600:    f7ffffd2    ....    BL       WB_MMI_commend ; 0x15a8
        0x00001604:    bd10        ..      POP      {r4,pc}
        0x00001606:    0000        ..      MOVS     r0,r0
    i.WDTInit
    WDTInit
        0x00001608:    b510        ..      PUSH     {r4,lr}
        0x0000160a:    f000f853    ..S.    BL       WDT_TIMER_RESET ; 0x16b4
        0x0000160e:    2201        ."      MOVS     r2,#1
        0x00001610:    2103        .!      MOVS     r1,#3
        0x00001612:    2005        .       MOVS     r0,#5
        0x00001614:    f7fffa96    ....    BL       DrvWDT_Init ; 0xb44
        0x00001618:    f7fffe48    ..H.    BL       SYS_UnlockReg ; 0x12ac
        0x0000161c:    f000f84a    ..J.    BL       WDT_TIMER_RESET ; 0x16b4
        0x00001620:    f000f824    ..$.    BL       WDT_ENABLE_COUNTING ; 0x166c
        0x00001624:    f000f812    ....    BL       WDT_CLEAR_RESET_FLAG ; 0x164c
        0x00001628:    4806        .H      LDR      r0,[pc,#24] ; [0x1644] = 0x40004000
        0x0000162a:    6801        .h      LDR      r1,[r0,#0]
        0x0000162c:    2210        ."      MOVS     r2,#0x10
        0x0000162e:    4391        .C      BICS     r1,r1,r2
        0x00001630:    6001        .`      STR      r1,[r0,#0]
        0x00001632:    4a05        .J      LDR      r2,[pc,#20] ; [0x1648] = 0x50000100
        0x00001634:    2100        .!      MOVS     r1,#0
        0x00001636:    6011        .`      STR      r1,[r2,#0]
        0x00001638:    6801        .h      LDR      r1,[r0,#0]
        0x0000163a:    2202        ."      MOVS     r2,#2
        0x0000163c:    4311        .C      ORRS     r1,r1,r2
        0x0000163e:    6001        .`      STR      r1,[r0,#0]
        0x00001640:    bd10        ..      POP      {r4,pc}
    $d
        0x00001642:    0000        ..      DCW    0
        0x00001644:    40004000    .@.@    DCD    1073758208
        0x00001648:    50000100    ...P    DCD    1342177536
    $t
    i.WDT_CLEAR_RESET_FLAG
    WDT_CLEAR_RESET_FLAG
        0x0000164c:    4802        .H      LDR      r0,[pc,#8] ; [0x1658] = 0x40004000
        0x0000164e:    6801        .h      LDR      r1,[r0,#0]
        0x00001650:    2204        ."      MOVS     r2,#4
        0x00001652:    4311        .C      ORRS     r1,r1,r2
        0x00001654:    6001        .`      STR      r1,[r0,#0]
        0x00001656:    4770        pG      BX       lr
    $d
        0x00001658:    40004000    .@.@    DCD    1073758208
    $t
    i.WDT_DISABLE_INT
    WDT_DISABLE_INT
        0x0000165c:    4802        .H      LDR      r0,[pc,#8] ; [0x1668] = 0x40004000
        0x0000165e:    6801        .h      LDR      r1,[r0,#0]
        0x00001660:    2240        @"      MOVS     r2,#0x40
        0x00001662:    4391        .C      BICS     r1,r1,r2
        0x00001664:    6001        .`      STR      r1,[r0,#0]
        0x00001666:    4770        pG      BX       lr
    $d
        0x00001668:    40004000    .@.@    DCD    1073758208
    $t
    i.WDT_ENABLE_COUNTING
    WDT_ENABLE_COUNTING
        0x0000166c:    4802        .H      LDR      r0,[pc,#8] ; [0x1678] = 0x40004000
        0x0000166e:    6801        .h      LDR      r1,[r0,#0]
        0x00001670:    2280        ."      MOVS     r2,#0x80
        0x00001672:    4311        .C      ORRS     r1,r1,r2
        0x00001674:    6001        .`      STR      r1,[r0,#0]
        0x00001676:    4770        pG      BX       lr
    $d
        0x00001678:    40004000    .@.@    DCD    1073758208
    $t
    i.WDT_IRQHandler
    WDT_IRQHandler
        0x0000167c:    b510        ..      PUSH     {r4,lr}
        0x0000167e:    f000f831    ..1.    BL       WDTwake ; 0x16e4
        0x00001682:    f7fffe13    ....    BL       SYS_UnlockReg ; 0x12ac
        0x00001686:    4c09        .L      LDR      r4,[pc,#36] ; [0x16ac] = 0x40004000
        0x00001688:    6820         h      LDR      r0,[r4,#0]
        0x0000168a:    2108        .!      MOVS     r1,#8
        0x0000168c:    4308        .C      ORRS     r0,r0,r1
        0x0000168e:    6020         `      STR      r0,[r4,#0]
        0x00001690:    f000f810    ....    BL       WDT_TIMER_RESET ; 0x16b4
        0x00001694:    6820         h      LDR      r0,[r4,#0]
        0x00001696:    2107        .!      MOVS     r1,#7
        0x00001698:    0209        ..      LSLS     r1,r1,#8
        0x0000169a:    4388        .C      BICS     r0,r0,r1
        0x0000169c:    2105        .!      MOVS     r1,#5
        0x0000169e:    0209        ..      LSLS     r1,r1,#8
        0x000016a0:    4308        .C      ORRS     r0,r0,r1
        0x000016a2:    6020         `      STR      r0,[r4,#0]
        0x000016a4:    4902        .I      LDR      r1,[pc,#8] ; [0x16b0] = 0x50000100
        0x000016a6:    2000        .       MOVS     r0,#0
        0x000016a8:    6008        .`      STR      r0,[r1,#0]
        0x000016aa:    bd10        ..      POP      {r4,pc}
    $d
        0x000016ac:    40004000    .@.@    DCD    1073758208
        0x000016b0:    50000100    ...P    DCD    1342177536
    $t
    i.WDT_TIMER_RESET
    WDT_TIMER_RESET
        0x000016b4:    4802        .H      LDR      r0,[pc,#8] ; [0x16c0] = 0x40004000
        0x000016b6:    6801        .h      LDR      r1,[r0,#0]
        0x000016b8:    2201        ."      MOVS     r2,#1
        0x000016ba:    4311        .C      ORRS     r1,r1,r2
        0x000016bc:    6001        .`      STR      r1,[r0,#0]
        0x000016be:    4770        pG      BX       lr
    $d
        0x000016c0:    40004000    .@.@    DCD    1073758208
    $t
    i.WDT_TIMER_RESET
    WDT_TIMER_RESET
        0x000016c4:    4802        .H      LDR      r0,[pc,#8] ; [0x16d0] = 0x40004000
        0x000016c6:    6801        .h      LDR      r1,[r0,#0]
        0x000016c8:    2201        ."      MOVS     r2,#1
        0x000016ca:    4311        .C      ORRS     r1,r1,r2
        0x000016cc:    6001        .`      STR      r1,[r0,#0]
        0x000016ce:    4770        pG      BX       lr
    $d
        0x000016d0:    40004000    .@.@    DCD    1073758208
    $t
    i.WDT_TIMER_RESET
    WDT_TIMER_RESET
        0x000016d4:    4802        .H      LDR      r0,[pc,#8] ; [0x16e0] = 0x40004000
        0x000016d6:    6801        .h      LDR      r1,[r0,#0]
        0x000016d8:    2201        ."      MOVS     r2,#1
        0x000016da:    4311        .C      ORRS     r1,r1,r2
        0x000016dc:    6001        .`      STR      r1,[r0,#0]
        0x000016de:    4770        pG      BX       lr
    $d
        0x000016e0:    40004000    .@.@    DCD    1073758208
    $t
    i.WDTwake
    WDTwake
        0x000016e4:    b510        ..      PUSH     {r4,lr}
        0x000016e6:    2200        ."      MOVS     r2,#0
        0x000016e8:    2103        .!      MOVS     r1,#3
        0x000016ea:    2005        .       MOVS     r0,#5
        0x000016ec:    f7fffa2a    ..*.    BL       DrvWDT_Init ; 0xb44
        0x000016f0:    f7fffa10    ....    BL       DrvWDT_EnableInt ; 0xb14
        0x000016f4:    f7fffdda    ....    BL       SYS_UnlockReg ; 0x12ac
        0x000016f8:    f7ffffdc    ....    BL       WDT_TIMER_RESET ; 0x16b4
        0x000016fc:    f7ffffb6    ....    BL       WDT_ENABLE_COUNTING ; 0x166c
        0x00001700:    f7ffffa4    ....    BL       WDT_CLEAR_RESET_FLAG ; 0x164c
        0x00001704:    4806        .H      LDR      r0,[pc,#24] ; [0x1720] = 0x40004000
        0x00001706:    6801        .h      LDR      r1,[r0,#0]
        0x00001708:    2210        ."      MOVS     r2,#0x10
        0x0000170a:    4311        .C      ORRS     r1,r1,r2
        0x0000170c:    6001        .`      STR      r1,[r0,#0]
        0x0000170e:    6801        .h      LDR      r1,[r0,#0]
        0x00001710:    2202        ."      MOVS     r2,#2
        0x00001712:    4391        .C      BICS     r1,r1,r2
        0x00001714:    6001        .`      STR      r1,[r0,#0]
        0x00001716:    4903        .I      LDR      r1,[pc,#12] ; [0x1724] = 0x50000100
        0x00001718:    2000        .       MOVS     r0,#0
        0x0000171a:    6008        .`      STR      r0,[r1,#0]
        0x0000171c:    bd10        ..      POP      {r4,pc}
    $d
        0x0000171e:    0000        ..      DCW    0
        0x00001720:    40004000    .@.@    DCD    1073758208
        0x00001724:    50000100    ...P    DCD    1342177536
    $t
    i.__ARM_common_switch8
    __ARM_common_switch8
        0x00001728:    b430        0.      PUSH     {r4,r5}
        0x0000172a:    4674        tF      MOV      r4,lr
        0x0000172c:    1e64        d.      SUBS     r4,r4,#1
        0x0000172e:    7825        %x      LDRB     r5,[r4,#0]
        0x00001730:    1c64        d.      ADDS     r4,r4,#1
        0x00001732:    42ab        .B      CMP      r3,r5
        0x00001734:    d200        ..      BCS      0x1738 ; __ARM_common_switch8 + 16
        0x00001736:    461d        .F      MOV      r5,r3
        0x00001738:    5d63        c]      LDRB     r3,[r4,r5]
        0x0000173a:    005b        [.      LSLS     r3,r3,#1
        0x0000173c:    18e3        ..      ADDS     r3,r4,r3
        0x0000173e:    bc30        0.      POP      {r4,r5}
        0x00001740:    4718        .G      BX       r3
    i.__scatterload_copy
    __scatterload_copy
        0x00001742:    e002        ..      B        0x174a ; __scatterload_copy + 8
        0x00001744:    c808        ..      LDM      r0!,{r3}
        0x00001746:    1f12        ..      SUBS     r2,r2,#4
        0x00001748:    c108        ..      STM      r1!,{r3}
        0x0000174a:    2a00        .*      CMP      r2,#0
        0x0000174c:    d1fa        ..      BNE      0x1744 ; __scatterload_copy + 2
        0x0000174e:    4770        pG      BX       lr
    i.__scatterload_null
    __scatterload_null
        0x00001750:    4770        pG      BX       lr
    i.__scatterload_zeroinit
    __scatterload_zeroinit
        0x00001752:    2000        .       MOVS     r0,#0
        0x00001754:    e001        ..      B        0x175a ; __scatterload_zeroinit + 8
        0x00001756:    c101        ..      STM      r1!,{r0}
        0x00001758:    1f12        ..      SUBS     r2,r2,#4
        0x0000175a:    2a00        .*      CMP      r2,#0
        0x0000175c:    d1fb        ..      BNE      0x1756 ; __scatterload_zeroinit + 4
        0x0000175e:    4770        pG      BX       lr
    i.ack
    ack
        0x00001760:    b5f8        ..      PUSH     {r3-r7,lr}
        0x00001762:    4d0c        .M      LDR      r5,[pc,#48] ; [0x1794] = 0x5000422c
        0x00001764:    2400        .$      MOVS     r4,#0
        0x00001766:    602c        ,`      STR      r4,[r5,#0]
        0x00001768:    2003        .       MOVS     r0,#3
        0x0000176a:    f002ff19    ....    BL       sysDelayUs ; 0x45a0
        0x0000176e:    1f2e        ..      SUBS     r6,r5,#4
        0x00001770:    6034        4`      STR      r4,[r6,#0]
        0x00001772:    2003        .       MOVS     r0,#3
        0x00001774:    f002ff14    ....    BL       sysDelayUs ; 0x45a0
        0x00001778:    2701        .'      MOVS     r7,#1
        0x0000177a:    602f        /`      STR      r7,[r5,#0]
        0x0000177c:    2006        .       MOVS     r0,#6
        0x0000177e:    f002ff0f    ....    BL       sysDelayUs ; 0x45a0
        0x00001782:    602c        ,`      STR      r4,[r5,#0]
        0x00001784:    2006        .       MOVS     r0,#6
        0x00001786:    f002ff0b    ....    BL       sysDelayUs ; 0x45a0
        0x0000178a:    6037        7`      STR      r7,[r6,#0]
        0x0000178c:    2003        .       MOVS     r0,#3
        0x0000178e:    f002ff07    ....    BL       sysDelayUs ; 0x45a0
        0x00001792:    bdf8        ..      POP      {r3-r7,pc}
    $d
        0x00001794:    5000422c    ,B.P    DCD    1342194220
    $t
    i.adcKeyClkInit
    adcKeyClkInit
        0x00001798:    480c        .H      LDR      r0,[pc,#48] ; [0x17cc] = 0x50000200
        0x0000179a:    6941        Ai      LDR      r1,[r0,#0x14]
        0x0000179c:    220c        ."      MOVS     r2,#0xc
        0x0000179e:    4391        .C      BICS     r1,r1,r2
        0x000017a0:    6141        Aa      STR      r1,[r0,#0x14]
        0x000017a2:    6981        .i      LDR      r1,[r0,#0x18]
        0x000017a4:    22ff        ."      MOVS     r2,#0xff
        0x000017a6:    0412        ..      LSLS     r2,r2,#16
        0x000017a8:    4391        .C      BICS     r1,r1,r2
        0x000017aa:    0202        ..      LSLS     r2,r0,#8
        0x000017ac:    4311        .C      ORRS     r1,r1,r2
        0x000017ae:    6181        .a      STR      r1,[r0,#0x18]
        0x000017b0:    6882        .h      LDR      r2,[r0,#8]
        0x000017b2:    04c1        ..      LSLS     r1,r0,#19
        0x000017b4:    430a        .C      ORRS     r2,r2,r1
        0x000017b6:    6082        .`      STR      r2,[r0,#8]
        0x000017b8:    2005        .       MOVS     r0,#5
        0x000017ba:    0700        ..      LSLS     r0,r0,#28
        0x000017bc:    68c2        .h      LDR      r2,[r0,#0xc]
        0x000017be:    430a        .C      ORRS     r2,r2,r1
        0x000017c0:    60c2        .`      STR      r2,[r0,#0xc]
        0x000017c2:    68c2        .h      LDR      r2,[r0,#0xc]
        0x000017c4:    438a        .C      BICS     r2,r2,r1
        0x000017c6:    60c2        .`      STR      r2,[r0,#0xc]
        0x000017c8:    4770        pG      BX       lr
    $d
        0x000017ca:    0000        ..      DCW    0
        0x000017cc:    50000200    ...P    DCD    1342177792
    $t
    i.adcKeyHook
    adcKeyHook
        0x000017d0:    b570        p.      PUSH     {r4-r6,lr}
        0x000017d2:    f000fdc7    ....    BL       audioDetect ; 0x2364
        0x000017d6:    2501        .%      MOVS     r5,#1
        0x000017d8:    2400        .$      MOVS     r4,#0
        0x000017da:    4e30        0N      LDR      r6,[pc,#192] ; [0x189c] = 0x2000001c
        0x000017dc:    2800        .(      CMP      r0,#0
        0x000017de:    d115        ..      BNE      0x180c ; adcKeyHook + 60
        0x000017e0:    482f        /H      LDR      r0,[pc,#188] ; [0x18a0] = 0x20000074
        0x000017e2:    7800        .x      LDRB     r0,[r0,#0]
        0x000017e4:    2800        .(      CMP      r0,#0
        0x000017e6:    d011        ..      BEQ      0x180c ; adcKeyHook + 60
        0x000017e8:    69f0        .i      LDR      r0,[r6,#0x1c]
        0x000017ea:    227d        }"      MOVS     r2,#0x7d
        0x000017ec:    1c40        @.      ADDS     r0,r0,#1
        0x000017ee:    61f0        .a      STR      r0,[r6,#0x1c]
        0x000017f0:    6971        qi      LDR      r1,[r6,#0x14]
        0x000017f2:    0112        ..      LSLS     r2,r2,#4
        0x000017f4:    434a        JC      MULS     r2,r1,r2
        0x000017f6:    4290        .B      CMP      r0,r2
        0x000017f8:    d910        ..      BLS      0x181c ; adcKeyHook + 76
        0x000017fa:    290a        .)      CMP      r1,#0xa
        0x000017fc:    d00c        ..      BEQ      0x1818 ; adcKeyHook + 72
        0x000017fe:    2081        .       MOVS     r0,#0x81
        0x00001800:    f002f8bd    ....    BL       logEvent ; 0x397e
        0x00001804:    f001fb6c    ..l.    BL       enterStandby ; 0x2ee0
        0x00001808:    61f4        .a      STR      r4,[r6,#0x1c]
        0x0000180a:    e00a        ..      B        0x1822 ; adcKeyHook + 82
        0x0000180c:    6a30        0j      LDR      r0,[r6,#0x20]
        0x0000180e:    1e40        @.      SUBS     r0,r0,#1
        0x00001810:    6230        0b      STR      r0,[r6,#0x20]
        0x00001812:    d106        ..      BNE      0x1822 ; adcKeyHook + 82
        0x00001814:    6235        5b      STR      r5,[r6,#0x20]
        0x00001816:    e7f7        ..      B        0x1808 ; adcKeyHook + 56
        0x00001818:    2080        .       MOVS     r0,#0x80
        0x0000181a:    e7f1        ..      B        0x1800 ; adcKeyHook + 48
        0x0000181c:    2863        c(      CMP      r0,#0x63
        0x0000181e:    d900        ..      BLS      0x1822 ; adcKeyHook + 82
        0x00001820:    6235        5b      STR      r5,[r6,#0x20]
        0x00001822:    4820         H      LDR      r0,[pc,#128] ; [0x18a4] = 0x200006ec
        0x00001824:    4920         I      LDR      r1,[pc,#128] ; [0x18a8] = 0x20000075
        0x00001826:    7800        .x      LDRB     r0,[r0,#0]
        0x00001828:    7809        .x      LDRB     r1,[r1,#0]
        0x0000182a:    4a21        !J      LDR      r2,[pc,#132] ; [0x18b0] = 0x2000006c
        0x0000182c:    4308        .C      ORRS     r0,r0,r1
        0x0000182e:    491f        .I      LDR      r1,[pc,#124] ; [0x18ac] = 0x20000065
        0x00001830:    6810        .h      LDR      r0,[r2,#0]
        0x00001832:    d009        ..      BEQ      0x1848 ; adcKeyHook + 120
        0x00001834:    1c40        @.      ADDS     r0,r0,#1
        0x00001836:    237d        }#      MOVS     r3,#0x7d
        0x00001838:    011b        ..      LSLS     r3,r3,#4
        0x0000183a:    6010        .`      STR      r0,[r2,#0]
        0x0000183c:    4298        .B      CMP      r0,r3
        0x0000183e:    d907        ..      BLS      0x1850 ; adcKeyHook + 128
        0x00001840:    700d        .p      STRB     r5,[r1,#0]
        0x00001842:    1e40        @.      SUBS     r0,r0,#1
        0x00001844:    6010        .`      STR      r0,[r2,#0]
        0x00001846:    e004        ..      B        0x1852 ; adcKeyHook + 130
        0x00001848:    1c40        @.      ADDS     r0,r0,#1
        0x0000184a:    4b1a        .K      LDR      r3,[pc,#104] ; [0x18b4] = 0x2710
        0x0000184c:    6010        .`      STR      r0,[r2,#0]
        0x0000184e:    e7f5        ..      B        0x183c ; adcKeyHook + 108
        0x00001850:    700c        .p      STRB     r4,[r1,#0]
        0x00001852:    4819        .H      LDR      r0,[pc,#100] ; [0x18b8] = 0x200006a8
        0x00001854:    6004        .`      STR      r4,[r0,#0]
        0x00001856:    4819        .H      LDR      r0,[pc,#100] ; [0x18bc] = 0x200006ac
        0x00001858:    6004        .`      STR      r4,[r0,#0]
        0x0000185a:    4819        .H      LDR      r0,[pc,#100] ; [0x18c0] = 0x200002cc
        0x0000185c:    6004        .`      STR      r4,[r0,#0]
        0x0000185e:    4819        .H      LDR      r0,[pc,#100] ; [0x18c4] = 0x200002c8
        0x00001860:    6004        .`      STR      r4,[r0,#0]
        0x00001862:    6bb1        .k      LDR      r1,[r6,#0x38]
        0x00001864:    6bf0        .k      LDR      r0,[r6,#0x3c]
        0x00001866:    1841        A.      ADDS     r1,r0,r1
        0x00001868:    63f1        .c      STR      r1,[r6,#0x3c]
        0x0000186a:    69b0        .i      LDR      r0,[r6,#0x18]
        0x0000186c:    1c40        @.      ADDS     r0,r0,#1
        0x0000186e:    61b0        .a      STR      r0,[r6,#0x18]
        0x00001870:    2880        .(      CMP      r0,#0x80
        0x00001872:    d30f        ..      BCC      0x1894 ; adcKeyHook + 196
        0x00001874:    09c8        ..      LSRS     r0,r1,#7
        0x00001876:    2209        ."      MOVS     r2,#9
        0x00001878:    0192        ..      LSLS     r2,r2,#6
        0x0000187a:    4913        .I      LDR      r1,[pc,#76] ; [0x18c8] = 0x20000398
        0x0000187c:    61b4        .a      STR      r4,[r6,#0x18]
        0x0000187e:    63f0        .c      STR      r0,[r6,#0x3c]
        0x00001880:    4290        .B      CMP      r0,r2
        0x00001882:    d201        ..      BCS      0x1888 ; adcKeyHook + 184
        0x00001884:    2002        .       MOVS     r0,#2
        0x00001886:    e004        ..      B        0x1892 ; adcKeyHook + 194
        0x00001888:    4810        .H      LDR      r0,[pc,#64] ; [0x18cc] = 0x500042a4
        0x0000188a:    6800        .h      LDR      r0,[r0,#0]
        0x0000188c:    2800        .(      CMP      r0,#0
        0x0000188e:    d002        ..      BEQ      0x1896 ; adcKeyHook + 198
        0x00001890:    2003        .       MOVS     r0,#3
        0x00001892:    7008        .p      STRB     r0,[r1,#0]
        0x00001894:    bd70        p.      POP      {r4-r6,pc}
        0x00001896:    700d        .p      STRB     r5,[r1,#0]
        0x00001898:    bd70        p.      POP      {r4-r6,pc}
    $d
        0x0000189a:    0000        ..      DCW    0
        0x0000189c:    2000001c    ...     DCD    536870940
        0x000018a0:    20000074    t..     DCD    536871028
        0x000018a4:    200006ec    ...     DCD    536872684
        0x000018a8:    20000075    u..     DCD    536871029
        0x000018ac:    20000065    e..     DCD    536871013
        0x000018b0:    2000006c    l..     DCD    536871020
        0x000018b4:    00002710    .'..    DCD    10000
        0x000018b8:    200006a8    ...     DCD    536872616
        0x000018bc:    200006ac    ...     DCD    536872620
        0x000018c0:    200002cc    ...     DCD    536871628
        0x000018c4:    200002c8    ...     DCD    536871624
        0x000018c8:    20000398    ...     DCD    536871832
        0x000018cc:    500042a4    .B.P    DCD    1342194340
    $t
    i.adcKeyInit
    adcKeyInit
        0x000018d0:    b5f8        ..      PUSH     {r3-r7,lr}
        0x000018d2:    2105        .!      MOVS     r1,#5
        0x000018d4:    0709        ..      LSLS     r1,r1,#28
        0x000018d6:    6bc8        .k      LDR      r0,[r1,#0x3c]
        0x000018d8:    2501        .%      MOVS     r5,#1
        0x000018da:    4328        (C      ORRS     r0,r0,r5
        0x000018dc:    63c8        .c      STR      r0,[r1,#0x3c]
        0x000018de:    4816        .H      LDR      r0,[pc,#88] ; [0x1938] = 0x50000040
        0x000018e0:    6942        Bi      LDR      r2,[r0,#0x14]
        0x000018e2:    0286        ..      LSLS     r6,r0,#10
        0x000018e4:    4332        2C      ORRS     r2,r2,r6
        0x000018e6:    6142        Ba      STR      r2,[r0,#0x14]
        0x000018e8:    6bca        .k      LDR      r2,[r1,#0x3c]
        0x000018ea:    2310        .#      MOVS     r3,#0x10
        0x000018ec:    431a        .C      ORRS     r2,r2,r3
        0x000018ee:    63ca        .c      STR      r2,[r1,#0x3c]
        0x000018f0:    6941        Ai      LDR      r1,[r0,#0x14]
        0x000018f2:    0387        ..      LSLS     r7,r0,#14
        0x000018f4:    4339        9C      ORRS     r1,r1,r7
        0x000018f6:    6141        Aa      STR      r1,[r0,#0x14]
        0x000018f8:    4c10        .L      LDR      r4,[pc,#64] ; [0x193c] = 0x500040c0
        0x000018fa:    2200        ."      MOVS     r2,#0
        0x000018fc:    4611        .F      MOV      r1,r2
        0x000018fe:    4620         F      MOV      r0,r4
        0x00001900:    f7fffa36    ..6.    BL       GPIO_SET_MODE ; 0xd70
        0x00001904:    2200        ."      MOVS     r2,#0
        0x00001906:    2104        .!      MOVS     r1,#4
        0x00001908:    4620         F      MOV      r0,r4
        0x0000190a:    f7fffa31    ..1.    BL       GPIO_SET_MODE ; 0xd70
        0x0000190e:    6860        `h      LDR      r0,[r4,#4]
        0x00001910:    4330        0C      ORRS     r0,r0,r6
        0x00001912:    6060        ``      STR      r0,[r4,#4]
        0x00001914:    6860        `h      LDR      r0,[r4,#4]
        0x00001916:    4338        8C      ORRS     r0,r0,r7
        0x00001918:    6060        ``      STR      r0,[r4,#4]
        0x0000191a:    4809        .H      LDR      r0,[pc,#36] ; [0x1940] = 0x400e0000
        0x0000191c:    2108        .!      MOVS     r1,#8
        0x0000191e:    6a02        .j      LDR      r2,[r0,#0x20]
        0x00001920:    230c        .#      MOVS     r3,#0xc
        0x00001922:    439a        .C      BICS     r2,r2,r3
        0x00001924:    430a        .C      ORRS     r2,r2,r1
        0x00001926:    6202        .b      STR      r2,[r0,#0x20]
        0x00001928:    6a42        Bj      LDR      r2,[r0,#0x24]
        0x0000192a:    2111        .!      MOVS     r1,#0x11
        0x0000192c:    430a        .C      ORRS     r2,r2,r1
        0x0000192e:    6242        Bb      STR      r2,[r0,#0x24]
        0x00001930:    6a01        .j      LDR      r1,[r0,#0x20]
        0x00001932:    4329        )C      ORRS     r1,r1,r5
        0x00001934:    6201        .b      STR      r1,[r0,#0x20]
        0x00001936:    bdf8        ..      POP      {r3-r7,pc}
    $d
        0x00001938:    50000040    @..P    DCD    1342177344
        0x0000193c:    500040c0    .@.P    DCD    1342193856
        0x00001940:    400e0000    ...@    DCD    1074659328
    $t
    i.adcKeyRemap
    adcKeyRemap
        0x00001944:    b570        p.      PUSH     {r4-r6,lr}
        0x00001946:    4941        AI      LDR      r1,[pc,#260] ; [0x1a4c] = 0x2000001c
        0x00001948:    890a        ..      LDRH     r2,[r1,#8]
        0x0000194a:    4290        .B      CMP      r0,r2
        0x0000194c:    d901        ..      BLS      0x1952 ; adcKeyRemap + 14
        0x0000194e:    1a82        ..      SUBS     r2,r0,r2
        0x00001950:    e000        ..      B        0x1954 ; adcKeyRemap + 16
        0x00001952:    1a12        ..      SUBS     r2,r2,r0
        0x00001954:    2300        .#      MOVS     r3,#0
        0x00001956:    2a73        s*      CMP      r2,#0x73
        0x00001958:    dd03        ..      BLE      0x1962 ; adcKeyRemap + 30
        0x0000195a:    814b        K.      STRH     r3,[r1,#0xa]
        0x0000195c:    818b        ..      STRH     r3,[r1,#0xc]
        0x0000195e:    8108        ..      STRH     r0,[r1,#8]
        0x00001960:    bd70        p.      POP      {r4-r6,pc}
        0x00001962:    898a        ..      LDRH     r2,[r1,#0xc]
        0x00001964:    1812        ..      ADDS     r2,r2,r0
        0x00001966:    b294        ..      UXTH     r4,r2
        0x00001968:    818c        ..      STRH     r4,[r1,#0xc]
        0x0000196a:    8108        ..      STRH     r0,[r1,#8]
        0x0000196c:    8a08        ..      LDRH     r0,[r1,#0x10]
        0x0000196e:    89ca        ..      LDRH     r2,[r1,#0xe]
        0x00001970:    1880        ..      ADDS     r0,r0,r2
        0x00001972:    b282        ..      UXTH     r2,r0
        0x00001974:    820a        ..      STRH     r2,[r1,#0x10]
        0x00001976:    8948        H.      LDRH     r0,[r1,#0xa]
        0x00001978:    1c40        @.      ADDS     r0,r0,#1
        0x0000197a:    b280        ..      UXTH     r0,r0
        0x0000197c:    8148        H.      STRH     r0,[r1,#0xa]
        0x0000197e:    2808        .(      CMP      r0,#8
        0x00001980:    d1ee        ..      BNE      0x1960 ; adcKeyRemap + 28
        0x00001982:    08e0        ..      LSRS     r0,r4,#3
        0x00001984:    08d2        ..      LSRS     r2,r2,#3
        0x00001986:    814b        K.      STRH     r3,[r1,#0xa]
        0x00001988:    8188        ..      STRH     r0,[r1,#0xc]
        0x0000198a:    4616        .F      MOV      r6,r2
        0x0000198c:    824a        J.      STRH     r2,[r1,#0x12]
        0x0000198e:    3eb9        .>      SUBS     r6,r6,#0xb9
        0x00001990:    24a3        .$      MOVS     r4,#0xa3
        0x00001992:    4d2f        /M      LDR      r5,[pc,#188] ; [0x1a50] = 0x200000a6
        0x00001994:    820b        ..      STRH     r3,[r1,#0x10]
        0x00001996:    2e1f        ..      CMP      r6,#0x1f
        0x00001998:    d202        ..      BCS      0x19a0 ; adcKeyRemap + 92
        0x0000199a:    702c        ,p      STRB     r4,[r5,#0]
        0x0000199c:    22a1        ."      MOVS     r2,#0xa1
        0x0000199e:    e00c        ..      B        0x19ba ; adcKeyRemap + 118
        0x000019a0:    4616        .F      MOV      r6,r2
        0x000019a2:    3eff        .>      SUBS     r6,r6,#0xff
        0x000019a4:    3e8a        .>      SUBS     r6,r6,#0x8a
        0x000019a6:    2e27        '.      CMP      r6,#0x27
        0x000019a8:    d201        ..      BCS      0x19ae ; adcKeyRemap + 106
        0x000019aa:    702c        ,p      STRB     r4,[r5,#0]
        0x000019ac:    e00e        ..      B        0x19cc ; adcKeyRemap + 136
        0x000019ae:    4e29        )N      LDR      r6,[pc,#164] ; [0x1a54] = 0xfffffdb7
        0x000019b0:    1996        ..      ADDS     r6,r2,r6
        0x000019b2:    2e3f        ?.      CMP      r6,#0x3f
        0x000019b4:    d203        ..      BCS      0x19be ; adcKeyRemap + 122
        0x000019b6:    702c        ,p      STRB     r4,[r5,#0]
        0x000019b8:    22a2        ."      MOVS     r2,#0xa2
        0x000019ba:    628a        .b      STR      r2,[r1,#0x28]
        0x000019bc:    e007        ..      B        0x19ce ; adcKeyRemap + 138
        0x000019be:    4e25        %N      LDR      r6,[pc,#148] ; [0x1a54] = 0xfffffdb7
        0x000019c0:    3ecc        .>      SUBS     r6,r6,#0xcc
        0x000019c2:    1992        ..      ADDS     r2,r2,r6
        0x000019c4:    2a2b        +*      CMP      r2,#0x2b
        0x000019c6:    d202        ..      BCS      0x19ce ; adcKeyRemap + 138
        0x000019c8:    22a0        ."      MOVS     r2,#0xa0
        0x000019ca:    702a        *p      STRB     r2,[r5,#0]
        0x000019cc:    628c        .b      STR      r4,[r1,#0x28]
        0x000019ce:    247d        }$      MOVS     r4,#0x7d
        0x000019d0:    00e4        ..      LSLS     r4,r4,#3
        0x000019d2:    220b        ."      MOVS     r2,#0xb
        0x000019d4:    42a0        .B      CMP      r0,r4
        0x000019d6:    d832        2.      BHI      0x1a3e ; adcKeyRemap + 250
        0x000019d8:    4c1f        .L      LDR      r4,[pc,#124] ; [0x1a58] = 0x361
        0x000019da:    42a0        .B      CMP      r0,r4
        0x000019dc:    d82f        /.      BHI      0x1a3e ; adcKeyRemap + 250
        0x000019de:    4c1e        .L      LDR      r4,[pc,#120] ; [0x1a58] = 0x361
        0x000019e0:    3c28        (<      SUBS     r4,r4,#0x28
        0x000019e2:    42a0        .B      CMP      r0,r4
        0x000019e4:    d901        ..      BLS      0x19ea ; adcKeyRemap + 166
        0x000019e6:    2009        .       MOVS     r0,#9
        0x000019e8:    e025        %.      B        0x1a36 ; adcKeyRemap + 242
        0x000019ea:    245f        _$      MOVS     r4,#0x5f
        0x000019ec:    00e4        ..      LSLS     r4,r4,#3
        0x000019ee:    42a0        .B      CMP      r0,r4
        0x000019f0:    d825        %.      BHI      0x1a3e ; adcKeyRemap + 250
        0x000019f2:    242d        -$      MOVS     r4,#0x2d
        0x000019f4:    0124        $.      LSLS     r4,r4,#4
        0x000019f6:    42a0        .B      CMP      r0,r4
        0x000019f8:    d901        ..      BLS      0x19fe ; adcKeyRemap + 186
        0x000019fa:    200a        .       MOVS     r0,#0xa
        0x000019fc:    e01b        ..      B        0x1a36 ; adcKeyRemap + 242
        0x000019fe:    24a5        .$      MOVS     r4,#0xa5
        0x00001a00:    00a4        ..      LSLS     r4,r4,#2
        0x00001a02:    42a0        .B      CMP      r0,r4
        0x00001a04:    d81b        ..      BHI      0x1a3e ; adcKeyRemap + 250
        0x00001a06:    249b        .$      MOVS     r4,#0x9b
        0x00001a08:    00a4        ..      LSLS     r4,r4,#2
        0x00001a0a:    42a0        .B      CMP      r0,r4
        0x00001a0c:    d901        ..      BLS      0x1a12 ; adcKeyRemap + 206
        0x00001a0e:    200c        .       MOVS     r0,#0xc
        0x00001a10:    e011        ..      B        0x1a36 ; adcKeyRemap + 242
        0x00001a12:    4c12        .L      LDR      r4,[pc,#72] ; [0x1a5c] = 0x22b
        0x00001a14:    42a0        .B      CMP      r0,r4
        0x00001a16:    d812        ..      BHI      0x1a3e ; adcKeyRemap + 250
        0x00001a18:    4c10        .L      LDR      r4,[pc,#64] ; [0x1a5c] = 0x22b
        0x00001a1a:    3c28        (<      SUBS     r4,r4,#0x28
        0x00001a1c:    42a0        .B      CMP      r0,r4
        0x00001a1e:    d901        ..      BLS      0x1a24 ; adcKeyRemap + 224
        0x00001a20:    2008        .       MOVS     r0,#8
        0x00001a22:    e008        ..      B        0x1a36 ; adcKeyRemap + 242
        0x00001a24:    24ff        .$      MOVS     r4,#0xff
        0x00001a26:    347d        }4      ADDS     r4,r4,#0x7d
        0x00001a28:    42a0        .B      CMP      r0,r4
        0x00001a2a:    d808        ..      BHI      0x1a3e ; adcKeyRemap + 250
        0x00001a2c:    24ff        .$      MOVS     r4,#0xff
        0x00001a2e:    3455        U4      ADDS     r4,r4,#0x55
        0x00001a30:    42a0        .B      CMP      r0,r4
        0x00001a32:    d902        ..      BLS      0x1a3a ; adcKeyRemap + 246
        0x00001a34:    2007        .       MOVS     r0,#7
        0x00001a36:    70c8        .p      STRB     r0,[r1,#3]
        0x00001a38:    e002        ..      B        0x1a40 ; adcKeyRemap + 252
        0x00001a3a:    2800        .(      CMP      r0,#0
        0x00001a3c:    d004        ..      BEQ      0x1a48 ; adcKeyRemap + 260
        0x00001a3e:    70ca        .p      STRB     r2,[r1,#3]
        0x00001a40:    818b        ..      STRH     r3,[r1,#0xc]
        0x00001a42:    78c8        .x      LDRB     r0,[r1,#3]
        0x00001a44:    7108        .q      STRB     r0,[r1,#4]
        0x00001a46:    bd70        p.      POP      {r4-r6,pc}
        0x00001a48:    70cb        .p      STRB     r3,[r1,#3]
        0x00001a4a:    e7f9        ..      B        0x1a40 ; adcKeyRemap + 252
    $d
        0x00001a4c:    2000001c    ...     DCD    536870940
        0x00001a50:    200000a6    ...     DCD    536871078
        0x00001a54:    fffffdb7    ....    DCD    4294966711
        0x00001a58:    00000361    a...    DCD    865
        0x00001a5c:    0000022b    +...    DCD    555
    $t
    i.adcReadKey
    adcReadKey
        0x00001a60:    4b0e        .K      LDR      r3,[pc,#56] ; [0x1a9c] = 0x2000001c
        0x00001a62:    21ff        .!      MOVS     r1,#0xff
        0x00001a64:    78d8        .x      LDRB     r0,[r3,#3]
        0x00001a66:    28ff        .(      CMP      r0,#0xff
        0x00001a68:    d004        ..      BEQ      0x1a74 ; adcReadKey + 20
        0x00001a6a:    799a        .y      LDRB     r2,[r3,#6]
        0x00001a6c:    4282        .B      CMP      r2,r0
        0x00001a6e:    d105        ..      BNE      0x1a7c ; adcReadKey + 28
        0x00001a70:    7019        .p      STRB     r1,[r3,#0]
        0x00001a72:    e00e        ..      B        0x1a92 ; adcReadKey + 50
        0x00001a74:    7019        .p      STRB     r1,[r3,#0]
        0x00001a76:    71d9        .q      STRB     r1,[r3,#7]
        0x00001a78:    7199        .q      STRB     r1,[r3,#6]
        0x00001a7a:    e00d        ..      B        0x1a98 ; adcReadKey + 56
        0x00001a7c:    79da        .y      LDRB     r2,[r3,#7]
        0x00001a7e:    2aff        .*      CMP      r2,#0xff
        0x00001a80:    d004        ..      BEQ      0x1a8c ; adcReadKey + 44
        0x00001a82:    4282        .B      CMP      r2,r0
        0x00001a84:    d102        ..      BNE      0x1a8c ; adcReadKey + 44
        0x00001a86:    7018        .p      STRB     r0,[r3,#0]
        0x00001a88:    7198        .q      STRB     r0,[r3,#6]
        0x00001a8a:    e002        ..      B        0x1a92 ; adcReadKey + 50
        0x00001a8c:    71d8        .q      STRB     r0,[r3,#7]
        0x00001a8e:    7019        .p      STRB     r1,[r3,#0]
        0x00001a90:    7199        .q      STRB     r1,[r3,#6]
        0x00001a92:    2800        .(      CMP      r0,#0
        0x00001a94:    d100        ..      BNE      0x1a98 ; adcReadKey + 56
        0x00001a96:    7018        .p      STRB     r0,[r3,#0]
        0x00001a98:    7818        .x      LDRB     r0,[r3,#0]
        0x00001a9a:    4770        pG      BX       lr
    $d
        0x00001a9c:    2000001c    ...     DCD    536870940
    $t
    i.adcReadKeyContinue
    adcReadKeyContinue
        0x00001aa0:    4a0e        .J      LDR      r2,[pc,#56] ; [0x1adc] = 0x2000001c
        0x00001aa2:    20ff        .       MOVS     r0,#0xff
        0x00001aa4:    7050        Pp      STRB     r0,[r2,#1]
        0x00001aa6:    7811        .x      LDRB     r1,[r2,#0]
        0x00001aa8:    4610        .F      MOV      r0,r2
        0x00001aaa:    78c0        .x      LDRB     r0,[r0,#3]
        0x00001aac:    29ff        .)      CMP      r1,#0xff
        0x00001aae:    d003        ..      BEQ      0x1ab8 ; adcReadKeyContinue + 24
        0x00001ab0:    2105        .!      MOVS     r1,#5
        0x00001ab2:    43c9        .C      MVNS     r1,r1
        0x00001ab4:    62d1        .b      STR      r1,[r2,#0x2c]
        0x00001ab6:    e00c        ..      B        0x1ad2 ; adcReadKeyContinue + 50
        0x00001ab8:    6ad1        .j      LDR      r1,[r2,#0x2c]
        0x00001aba:    1c49        I.      ADDS     r1,r1,#1
        0x00001abc:    62d1        .b      STR      r1,[r2,#0x2c]
        0x00001abe:    2901        .)      CMP      r1,#1
        0x00001ac0:    da01        ..      BGE      0x1ac6 ; adcReadKeyContinue + 38
        0x00001ac2:    7150        Pq      STRB     r0,[r2,#5]
        0x00001ac4:    e005        ..      B        0x1ad2 ; adcReadKeyContinue + 50
        0x00001ac6:    2100        .!      MOVS     r1,#0
        0x00001ac8:    62d1        .b      STR      r1,[r2,#0x2c]
        0x00001aca:    7951        Qy      LDRB     r1,[r2,#5]
        0x00001acc:    4281        .B      CMP      r1,r0
        0x00001ace:    d100        ..      BNE      0x1ad2 ; adcReadKeyContinue + 50
        0x00001ad0:    7050        Pp      STRB     r0,[r2,#1]
        0x00001ad2:    2807        .(      CMP      r0,#7
        0x00001ad4:    d100        ..      BNE      0x1ad8 ; adcReadKeyContinue + 56
        0x00001ad6:    7050        Pp      STRB     r0,[r2,#1]
        0x00001ad8:    7850        Px      LDRB     r0,[r2,#1]
        0x00001ada:    4770        pG      BX       lr
    $d
        0x00001adc:    2000001c    ...     DCD    536870940
    $t
    i.adckeyScan
    adckeyScan
        0x00001ae0:    b570        p.      PUSH     {r4-r6,lr}
        0x00001ae2:    f7ffffbd    ....    BL       adcReadKey ; 0x1a60
        0x00001ae6:    4c1d        .L      LDR      r4,[pc,#116] ; [0x1b5c] = 0x2000001c
        0x00001ae8:    7020         p      STRB     r0,[r4,#0]
        0x00001aea:    f7ffffd9    ....    BL       adcReadKeyContinue ; 0x1aa0
        0x00001aee:    4d1c        .M      LDR      r5,[pc,#112] ; [0x1b60] = 0x20000074
        0x00001af0:    7060        `p      STRB     r0,[r4,#1]
        0x00001af2:    7828        (x      LDRB     r0,[r5,#0]
        0x00001af4:    2800        .(      CMP      r0,#0
        0x00001af6:    d00c        ..      BEQ      0x1b12 ; adckeyScan + 50
        0x00001af8:    2801        .(      CMP      r0,#1
        0x00001afa:    d002        ..      BEQ      0x1b02 ; adckeyScan + 34
        0x00001afc:    2802        .(      CMP      r0,#2
        0x00001afe:    d108        ..      BNE      0x1b12 ; adckeyScan + 50
        0x00001b00:    e002        ..      B        0x1b08 ; adckeyScan + 40
        0x00001b02:    f001f979    ..y.    BL       devStartDealAdcKey ; 0x2df8
        0x00001b06:    e001        ..      B        0x1b0c ; adckeyScan + 44
        0x00001b08:    f001f96e    ..n.    BL       devStandbyDealAdcKey ; 0x2de8
        0x00001b0c:    7828        (x      LDRB     r0,[r5,#0]
        0x00001b0e:    2802        .(      CMP      r0,#2
        0x00001b10:    d001        ..      BEQ      0x1b16 ; adckeyScan + 54
        0x00001b12:    f7fffe5d    ..].    BL       adcKeyHook ; 0x17d0
        0x00001b16:    6a60        `j      LDR      r0,[r4,#0x24]
        0x00001b18:    2800        .(      CMP      r0,#0
        0x00001b1a:    d002        ..      BEQ      0x1b22 ; adckeyScan + 66
        0x00001b1c:    4780        .G      BLX      r0
        0x00001b1e:    2000        .       MOVS     r0,#0
        0x00001b20:    6260        `b      STR      r0,[r4,#0x24]
        0x00001b22:    6b61        ak      LDR      r1,[r4,#0x34]
        0x00001b24:    6aa0        .j      LDR      r0,[r4,#0x28]
        0x00001b26:    4281        .B      CMP      r1,r0
        0x00001b28:    d00b        ..      BEQ      0x1b42 ; adckeyScan + 98
        0x00001b2a:    490e        .I      LDR      r1,[pc,#56] ; [0x1b64] = 0x2000069c
        0x00001b2c:    6809        .h      LDR      r1,[r1,#0]
        0x00001b2e:    4a0e        .J      LDR      r2,[pc,#56] ; [0x1b68] = 0x1388
        0x00001b30:    4291        .B      CMP      r1,r2
        0x00001b32:    d906        ..      BLS      0x1b42 ; adckeyScan + 98
        0x00001b34:    6360        `c      STR      r0,[r4,#0x34]
        0x00001b36:    28a2        .(      CMP      r0,#0xa2
        0x00001b38:    d00a        ..      BEQ      0x1b50 ; adckeyScan + 112
        0x00001b3a:    28a1        .(      CMP      r0,#0xa1
        0x00001b3c:    d00b        ..      BEQ      0x1b56 ; adckeyScan + 118
        0x00001b3e:    f000fb73    ..s.    BL       ampSetS ; 0x2228
        0x00001b42:    4b0a        .K      LDR      r3,[pc,#40] ; [0x1b6c] = 0x1ae1
        0x00001b44:    2200        ."      MOVS     r2,#0
        0x00001b46:    211e        .!      MOVS     r1,#0x1e
        0x00001b48:    78a0        .x      LDRB     r0,[r4,#2]
        0x00001b4a:    f002fcdd    ....    BL       startATask ; 0x4508
        0x00001b4e:    bd70        p.      POP      {r4-r6,pc}
        0x00001b50:    f000fb08    ....    BL       ampSetR ; 0x2164
        0x00001b54:    e7f5        ..      B        0x1b42 ; adckeyScan + 98
        0x00001b56:    f000faa3    ....    BL       ampSetL ; 0x20a0
        0x00001b5a:    e7f2        ..      B        0x1b42 ; adckeyScan + 98
    $d
        0x00001b5c:    2000001c    ...     DCD    536870940
        0x00001b60:    20000074    t..     DCD    536871028
        0x00001b64:    2000069c    ...     DCD    536872604
        0x00001b68:    00001388    ....    DCD    5000
        0x00001b6c:    00001ae1    ....    DCD    6881
    $t
    i.adckeyTaskInit
    adckeyTaskInit
        0x00001b70:    b510        ..      PUSH     {r4,lr}
        0x00001b72:    f7fffead    ....    BL       adcKeyInit ; 0x18d0
        0x00001b76:    480a        .H      LDR      r0,[pc,#40] ; [0x1ba0] = 0xe000e41c
        0x00001b78:    6801        .h      LDR      r1,[r0,#0]
        0x00001b7a:    22ff        ."      MOVS     r2,#0xff
        0x00001b7c:    0212        ..      LSLS     r2,r2,#8
        0x00001b7e:    4391        .C      BICS     r1,r1,r2
        0x00001b80:    2201        ."      MOVS     r2,#1
        0x00001b82:    03d2        ..      LSLS     r2,r2,#15
        0x00001b84:    4311        .C      ORRS     r1,r1,r2
        0x00001b86:    6001        .`      STR      r1,[r0,#0]
        0x00001b88:    f7fefe4c    ..L.    BL       DrvADC_EnableInt ; 0x824
        0x00001b8c:    f001f9f2    ....    BL       getATask ; 0x2f74
        0x00001b90:    4904        .I      LDR      r1,[pc,#16] ; [0x1ba4] = 0x2000001c
        0x00001b92:    4b05        .K      LDR      r3,[pc,#20] ; [0x1ba8] = 0x1ae1
        0x00001b94:    7088        .p      STRB     r0,[r1,#2]
        0x00001b96:    2200        ."      MOVS     r2,#0
        0x00001b98:    211e        .!      MOVS     r1,#0x1e
        0x00001b9a:    f002fcb5    ....    BL       startATask ; 0x4508
        0x00001b9e:    bd10        ..      POP      {r4,pc}
    $d
        0x00001ba0:    e000e41c    ....    DCD    3758154780
        0x00001ba4:    2000001c    ...     DCD    536870940
        0x00001ba8:    00001ae1    ....    DCD    6881
    $t
    i.addI2cChain
    addI2cChain
        0x00001bac:    b510        ..      PUSH     {r4,lr}
        0x00001bae:    4b13        .K      LDR      r3,[pc,#76] ; [0x1bfc] = 0x20000114
        0x00001bb0:    68da        .h      LDR      r2,[r3,#0xc]
        0x00001bb2:    4290        .B      CMP      r0,r2
        0x00001bb4:    d103        ..      BNE      0x1bbe ; addI2cChain + 18
        0x00001bb6:    6892        .h      LDR      r2,[r2,#8]
        0x00001bb8:    7812        .x      LDRB     r2,[r2,#0]
        0x00001bba:    2aa0        .*      CMP      r2,#0xa0
        0x00001bbc:    d10a        ..      BNE      0x1bd4 ; addI2cChain + 40
        0x00001bbe:    7902        .y      LDRB     r2,[r0,#4]
        0x00001bc0:    70c2        .p      STRB     r2,[r0,#3]
        0x00001bc2:    689a        .h      LDR      r2,[r3,#8]
        0x00001bc4:    2400        .$      MOVS     r4,#0
        0x00001bc6:    2a00        .*      CMP      r2,#0
        0x00001bc8:    d012        ..      BEQ      0x1bf0 ; addI2cChain + 68
        0x00001bca:    2900        .)      CMP      r1,#0
        0x00001bcc:    d009        ..      BEQ      0x1be2 ; addI2cChain + 54
        0x00001bce:    6859        Yh      LDR      r1,[r3,#4]
        0x00001bd0:    4288        .B      CMP      r0,r1
        0x00001bd2:    d101        ..      BNE      0x1bd8 ; addI2cChain + 44
        0x00001bd4:    2000        .       MOVS     r0,#0
        0x00001bd6:    bd10        ..      POP      {r4,pc}
        0x00001bd8:    60c1        .`      STR      r1,[r0,#0xc]
        0x00001bda:    6058        X`      STR      r0,[r3,#4]
        0x00001bdc:    f001fa78    ..x.    BL       i2cSpirit ; 0x30d0
        0x00001be0:    e009        ..      B        0x1bf6 ; addI2cChain + 74
        0x00001be2:    4290        .B      CMP      r0,r2
        0x00001be4:    d102        ..      BNE      0x1bec ; addI2cChain + 64
        0x00001be6:    6859        Yh      LDR      r1,[r3,#4]
        0x00001be8:    2900        .)      CMP      r1,#0
        0x00001bea:    d001        ..      BEQ      0x1bf0 ; addI2cChain + 68
        0x00001bec:    60d0        .`      STR      r0,[r2,#0xc]
        0x00001bee:    e000        ..      B        0x1bf2 ; addI2cChain + 70
        0x00001bf0:    6058        X`      STR      r0,[r3,#4]
        0x00001bf2:    6098        .`      STR      r0,[r3,#8]
        0x00001bf4:    60c4        .`      STR      r4,[r0,#0xc]
        0x00001bf6:    2001        .       MOVS     r0,#1
        0x00001bf8:    bd10        ..      POP      {r4,pc}
    $d
        0x00001bfa:    0000        ..      DCW    0
        0x00001bfc:    20000114    ...     DCD    536871188
    $t
    i.ampAddVolume
    ampAddVolume
        0x00001c00:    b510        ..      PUSH     {r4,lr}
        0x00001c02:    4c1b        .L      LDR      r4,[pc,#108] ; [0x1c70] = 0x200003c4
        0x00001c04:    7820         x      LDRB     r0,[r4,#0]
        0x00001c06:    7861        ax      LDRB     r1,[r4,#1]
        0x00001c08:    4308        .C      ORRS     r0,r0,r1
        0x00001c0a:    d129        ).      BNE      0x1c60 ; ampAddVolume + 96
        0x00001c0c:    4620         F      MOV      r0,r4
        0x00001c0e:    3008        .0      ADDS     r0,r0,#8
        0x00001c10:    7801        .x      LDRB     r1,[r0,#0]
        0x00001c12:    3808        .8      SUBS     r0,r0,#8
        0x00001c14:    7900        .y      LDRB     r0,[r0,#4]
        0x00001c16:    29a2        .)      CMP      r1,#0xa2
        0x00001c18:    d023        #.      BEQ      0x1c62 ; ampAddVolume + 98
        0x00001c1a:    69a1        .i      LDR      r1,[r4,#0x18]
        0x00001c1c:    291f        .)      CMP      r1,#0x1f
        0x00001c1e:    d212        ..      BCS      0x1c46 ; ampAddVolume + 70
        0x00001c20:    1c49        I.      ADDS     r1,r1,#1
        0x00001c22:    61a1        .a      STR      r1,[r4,#0x18]
        0x00001c24:    f002fc94    ....    BL       stopATask ; 0x4550
        0x00001c28:    69a0        .i      LDR      r0,[r4,#0x18]
        0x00001c2a:    f000fb5f    .._.    BL       ampSetVolume ; 0x22ec
        0x00001c2e:    f7fefce5    ....    BL       DWP83CuCV ; 0x5fc
        0x00001c32:    2000        .       MOVS     r0,#0
        0x00001c34:    f001fbda    ....    BL       ledColorSet ; 0x33ec
        0x00001c38:    2064        d       MOVS     r0,#0x64
        0x00001c3a:    f002fc9b    ....    BL       sysDelayMs ; 0x4574
        0x00001c3e:    480d        .H      LDR      r0,[pc,#52] ; [0x1c74] = 0x200002d0
        0x00001c40:    7800        .x      LDRB     r0,[r0,#0]
        0x00001c42:    f001fbd3    ....    BL       ledColorSet ; 0x33ec
        0x00001c46:    480c        .H      LDR      r0,[pc,#48] ; [0x1c78] = 0x20000075
        0x00001c48:    7800        .x      LDRB     r0,[r0,#0]
        0x00001c4a:    2802        .(      CMP      r0,#2
        0x00001c4c:    d108        ..      BNE      0x1c60 ; ampAddVolume + 96
        0x00001c4e:    480b        .H      LDR      r0,[pc,#44] ; [0x1c7c] = 0x200000a6
        0x00001c50:    7800        .x      LDRB     r0,[r0,#0]
        0x00001c52:    28a0        .(      CMP      r0,#0xa0
        0x00001c54:    d004        ..      BEQ      0x1c60 ; ampAddVolume + 96
        0x00001c56:    480a        .H      LDR      r0,[pc,#40] ; [0x1c80] = 0x200000b8
        0x00001c58:    2202        ."      MOVS     r2,#2
        0x00001c5a:    6801        .h      LDR      r1,[r0,#0]
        0x00001c5c:    4311        .C      ORRS     r1,r1,r2
        0x00001c5e:    6001        .`      STR      r1,[r0,#0]
        0x00001c60:    bd10        ..      POP      {r4,pc}
        0x00001c62:    4b08        .K      LDR      r3,[pc,#32] ; [0x1c84] = 0x1c89
        0x00001c64:    2200        ."      MOVS     r2,#0
        0x00001c66:    2102        .!      MOVS     r1,#2
        0x00001c68:    f002fc4e    ..N.    BL       startATask ; 0x4508
        0x00001c6c:    bd10        ..      POP      {r4,pc}
    $d
        0x00001c6e:    0000        ..      DCW    0
        0x00001c70:    200003c4    ...     DCD    536871876
        0x00001c74:    200002d0    ...     DCD    536871632
        0x00001c78:    20000075    u..     DCD    536871029
        0x00001c7c:    200000a6    ...     DCD    536871078
        0x00001c80:    200000b8    ...     DCD    536871096
        0x00001c84:    00001c89    ....    DCD    7305
    $t
    i.ampDecVolume
    ampDecVolume
        0x00001c88:    b510        ..      PUSH     {r4,lr}
        0x00001c8a:    4c1b        .L      LDR      r4,[pc,#108] ; [0x1cf8] = 0x200003c4
        0x00001c8c:    7820         x      LDRB     r0,[r4,#0]
        0x00001c8e:    7861        ax      LDRB     r1,[r4,#1]
        0x00001c90:    4308        .C      ORRS     r0,r0,r1
        0x00001c92:    d129        ).      BNE      0x1ce8 ; ampDecVolume + 96
        0x00001c94:    4620         F      MOV      r0,r4
        0x00001c96:    3008        .0      ADDS     r0,r0,#8
        0x00001c98:    7801        .x      LDRB     r1,[r0,#0]
        0x00001c9a:    3808        .8      SUBS     r0,r0,#8
        0x00001c9c:    7900        .y      LDRB     r0,[r0,#4]
        0x00001c9e:    29a2        .)      CMP      r1,#0xa2
        0x00001ca0:    d023        #.      BEQ      0x1cea ; ampDecVolume + 98
        0x00001ca2:    69a1        .i      LDR      r1,[r4,#0x18]
        0x00001ca4:    2900        .)      CMP      r1,#0
        0x00001ca6:    d012        ..      BEQ      0x1cce ; ampDecVolume + 70
        0x00001ca8:    1e49        I.      SUBS     r1,r1,#1
        0x00001caa:    61a1        .a      STR      r1,[r4,#0x18]
        0x00001cac:    f002fc50    ..P.    BL       stopATask ; 0x4550
        0x00001cb0:    69a0        .i      LDR      r0,[r4,#0x18]
        0x00001cb2:    f000fb1b    ....    BL       ampSetVolume ; 0x22ec
        0x00001cb6:    f7fefca1    ....    BL       DWP83CuCV ; 0x5fc
        0x00001cba:    2000        .       MOVS     r0,#0
        0x00001cbc:    f001fb96    ....    BL       ledColorSet ; 0x33ec
        0x00001cc0:    2064        d       MOVS     r0,#0x64
        0x00001cc2:    f002fc57    ..W.    BL       sysDelayMs ; 0x4574
        0x00001cc6:    480d        .H      LDR      r0,[pc,#52] ; [0x1cfc] = 0x200002d0
        0x00001cc8:    7800        .x      LDRB     r0,[r0,#0]
        0x00001cca:    f001fb8f    ....    BL       ledColorSet ; 0x33ec
        0x00001cce:    480c        .H      LDR      r0,[pc,#48] ; [0x1d00] = 0x20000075
        0x00001cd0:    7800        .x      LDRB     r0,[r0,#0]
        0x00001cd2:    2802        .(      CMP      r0,#2
        0x00001cd4:    d108        ..      BNE      0x1ce8 ; ampDecVolume + 96
        0x00001cd6:    480b        .H      LDR      r0,[pc,#44] ; [0x1d04] = 0x200000a6
        0x00001cd8:    7800        .x      LDRB     r0,[r0,#0]
        0x00001cda:    28a0        .(      CMP      r0,#0xa0
        0x00001cdc:    d004        ..      BEQ      0x1ce8 ; ampDecVolume + 96
        0x00001cde:    480a        .H      LDR      r0,[pc,#40] ; [0x1d08] = 0x200000b8
        0x00001ce0:    2202        ."      MOVS     r2,#2
        0x00001ce2:    6801        .h      LDR      r1,[r0,#0]
        0x00001ce4:    4311        .C      ORRS     r1,r1,r2
        0x00001ce6:    6001        .`      STR      r1,[r0,#0]
        0x00001ce8:    bd10        ..      POP      {r4,pc}
        0x00001cea:    4b08        .K      LDR      r3,[pc,#32] ; [0x1d0c] = 0x1c89
        0x00001cec:    2200        ."      MOVS     r2,#0
        0x00001cee:    2102        .!      MOVS     r1,#2
        0x00001cf0:    f002fc0a    ....    BL       startATask ; 0x4508
        0x00001cf4:    bd10        ..      POP      {r4,pc}
    $d
        0x00001cf6:    0000        ..      DCW    0
        0x00001cf8:    200003c4    ...     DCD    536871876
        0x00001cfc:    200002d0    ...     DCD    536871632
        0x00001d00:    20000075    u..     DCD    536871029
        0x00001d04:    200000a6    ...     DCD    536871078
        0x00001d08:    200000b8    ...     DCD    536871096
        0x00001d0c:    00001c89    ....    DCD    7305
    $t
    i.ampFlasfLed
    ampFlasfLed
        0x00001d10:    b510        ..      PUSH     {r4,lr}
        0x00001d12:    4906        .I      LDR      r1,[pc,#24] ; [0x1d2c] = 0x200002d4
        0x00001d14:    2008        .       MOVS     r0,#8
        0x00001d16:    6008        .`      STR      r0,[r1,#0]
        0x00001d18:    4806        .H      LDR      r0,[pc,#24] ; [0x1d34] = 0x200003c4
        0x00001d1a:    217d        }!      MOVS     r1,#0x7d
        0x00001d1c:    4b04        .K      LDR      r3,[pc,#16] ; [0x1d30] = 0x1d11
        0x00001d1e:    2200        ."      MOVS     r2,#0
        0x00001d20:    00c9        ..      LSLS     r1,r1,#3
        0x00001d22:    7900        .y      LDRB     r0,[r0,#4]
        0x00001d24:    f002fbf0    ....    BL       startATask ; 0x4508
        0x00001d28:    bd10        ..      POP      {r4,pc}
    $d
        0x00001d2a:    0000        ..      DCW    0
        0x00001d2c:    200002d4    ...     DCD    536871636
        0x00001d30:    00001d11    ....    DCD    7441
        0x00001d34:    200003c4    ...     DCD    536871876
    $t
    i.ampGetStatus
    ampGetStatus
        0x00001d38:    b5fe        ..      PUSH     {r1-r7,lr}
        0x00001d3a:    2400        .$      MOVS     r4,#0
        0x00001d3c:    4e36        6N      LDR      r6,[pc,#216] ; [0x1e18] = 0x200003cc
        0x00001d3e:    4625        %F      MOV      r5,r4
        0x00001d40:    4627        'F      MOV      r7,r4
        0x00001d42:    7074        tp      STRB     r4,[r6,#1]
        0x00001d44:    70b7        .p      STRB     r7,[r6,#2]
        0x00001d46:    20a2        .       MOVS     r0,#0xa2
        0x00001d48:    7030        0p      STRB     r0,[r6,#0]
        0x00001d4a:    2001        .       MOVS     r0,#1
        0x00001d4c:    4602        .F      MOV      r2,r0
        0x00001d4e:    9000        ..      STR      r0,[sp,#0]
        0x00001d50:    2302        .#      MOVS     r3,#2
        0x00001d52:    2138        8!      MOVS     r1,#0x38
        0x00001d54:    9601        ..      STR      r6,[sp,#4]
        0x00001d56:    4831        1H      LDR      r0,[pc,#196] ; [0x1e1c] = 0x20001920
        0x00001d58:    f001fae8    ....    BL       initI2cDataBlock ; 0x332c
        0x00001d5c:    2100        .!      MOVS     r1,#0
        0x00001d5e:    482f        /H      LDR      r0,[pc,#188] ; [0x1e1c] = 0x20001920
        0x00001d60:    f7ffff24    ..$.    BL       addI2cChain ; 0x1bac
        0x00001d64:    7830        0x      LDRB     r0,[r6,#0]
        0x00001d66:    28a2        .(      CMP      r0,#0xa2
        0x00001d68:    d0fc        ..      BEQ      0x1d64 ; ampGetStatus + 44
        0x00001d6a:    492c        ,I      LDR      r1,[pc,#176] ; [0x1e1c] = 0x20001920
        0x00001d6c:    78b0        .x      LDRB     r0,[r6,#2]
        0x00001d6e:    3110        .1      ADDS     r1,r1,#0x10
        0x00001d70:    5508        .U      STRB     r0,[r1,r4]
        0x00001d72:    2c06        .,      CMP      r4,#6
        0x00001d74:    d034        4.      BEQ      0x1de0 ; ampGetStatus + 168
        0x00001d76:    2c08        .,      CMP      r4,#8
        0x00001d78:    d03e        >.      BEQ      0x1df8 ; ampGetStatus + 192
        0x00001d7a:    2c09        .,      CMP      r4,#9
        0x00001d7c:    d03c        <.      BEQ      0x1df8 ; ampGetStatus + 192
        0x00001d7e:    2c0a        .,      CMP      r4,#0xa
        0x00001d80:    d03a        :.      BEQ      0x1df8 ; ampGetStatus + 192
        0x00001d82:    4925        %I      LDR      r1,[pc,#148] ; [0x1e18] = 0x200003cc
        0x00001d84:    0062        b.      LSLS     r2,r4,#1
        0x00001d86:    3178        x1      ADDS     r1,r1,#0x78
        0x00001d88:    1851        Q.      ADDS     r1,r2,r1
        0x00001d8a:    7849        Ix      LDRB     r1,[r1,#1]
        0x00001d8c:    4288        .B      CMP      r0,r1
        0x00001d8e:    d000        ..      BEQ      0x1d92 ; ampGetStatus + 90
        0x00001d90:    2501        .%      MOVS     r5,#1
        0x00001d92:    f7fffa95    ....    BL       SYS_UnlockReg ; 0x12c0
        0x00001d96:    f7fffc95    ....    BL       WDT_TIMER_RESET ; 0x16c4
        0x00001d9a:    4821        !H      LDR      r0,[pc,#132] ; [0x1e20] = 0x50000100
        0x00001d9c:    6007        .`      STR      r7,[r0,#0]
        0x00001d9e:    1c64        d.      ADDS     r4,r4,#1
        0x00001da0:    2c16        .,      CMP      r4,#0x16
        0x00001da2:    d3ce        ..      BCC      0x1d42 ; ampGetStatus + 10
        0x00001da4:    202d        -       MOVS     r0,#0x2d
        0x00001da6:    7070        pp      STRB     r0,[r6,#1]
        0x00001da8:    70b7        .p      STRB     r7,[r6,#2]
        0x00001daa:    20a2        .       MOVS     r0,#0xa2
        0x00001dac:    7030        0p      STRB     r0,[r6,#0]
        0x00001dae:    2001        .       MOVS     r0,#1
        0x00001db0:    4602        .F      MOV      r2,r0
        0x00001db2:    9000        ..      STR      r0,[sp,#0]
        0x00001db4:    2302        .#      MOVS     r3,#2
        0x00001db6:    2138        8!      MOVS     r1,#0x38
        0x00001db8:    9601        ..      STR      r6,[sp,#4]
        0x00001dba:    4818        .H      LDR      r0,[pc,#96] ; [0x1e1c] = 0x20001920
        0x00001dbc:    f001fab6    ....    BL       initI2cDataBlock ; 0x332c
        0x00001dc0:    2100        .!      MOVS     r1,#0
        0x00001dc2:    4816        .H      LDR      r0,[pc,#88] ; [0x1e1c] = 0x20001920
        0x00001dc4:    f7fffef2    ....    BL       addI2cChain ; 0x1bac
        0x00001dc8:    7830        0x      LDRB     r0,[r6,#0]
        0x00001dca:    28a2        .(      CMP      r0,#0xa2
        0x00001dcc:    d0fc        ..      BEQ      0x1dc8 ; ampGetStatus + 144
        0x00001dce:    4913        .I      LDR      r1,[pc,#76] ; [0x1e1c] = 0x20001920
        0x00001dd0:    78b0        .x      LDRB     r0,[r6,#2]
        0x00001dd2:    3110        .1      ADDS     r1,r1,#0x10
        0x00001dd4:    7588        .u      STRB     r0,[r1,#0x16]
        0x00001dd6:    287f        .(      CMP      r0,#0x7f
        0x00001dd8:    d000        ..      BEQ      0x1ddc ; ampGetStatus + 164
        0x00001dda:    2501        .%      MOVS     r5,#1
        0x00001ddc:    4628        (F      MOV      r0,r5
        0x00001dde:    bdfe        ..      POP      {r1-r7,pc}
        0x00001de0:    480d        .H      LDR      r0,[pc,#52] ; [0x1e18] = 0x200003cc
        0x00001de2:    3808        .8      SUBS     r0,r0,#8
        0x00001de4:    78c0        .x      LDRB     r0,[r0,#3]
        0x00001de6:    2800        .(      CMP      r0,#0
        0x00001de8:    7988        .y      LDRB     r0,[r1,#6]
        0x00001dea:    d002        ..      BEQ      0x1df2 ; ampGetStatus + 186
        0x00001dec:    281e        .(      CMP      r0,#0x1e
        0x00001dee:    d1cf        ..      BNE      0x1d90 ; ampGetStatus + 88
        0x00001df0:    e7cf        ..      B        0x1d92 ; ampGetStatus + 90
        0x00001df2:    2810        .(      CMP      r0,#0x10
        0x00001df4:    d1cc        ..      BNE      0x1d90 ; ampGetStatus + 88
        0x00001df6:    e7cc        ..      B        0x1d92 ; ampGetStatus + 90
        0x00001df8:    4907        .I      LDR      r1,[pc,#28] ; [0x1e18] = 0x200003cc
        0x00001dfa:    0062        b.      LSLS     r2,r4,#1
        0x00001dfc:    3178        x1      ADDS     r1,r1,#0x78
        0x00001dfe:    1851        Q.      ADDS     r1,r2,r1
        0x00001e00:    7849        Ix      LDRB     r1,[r1,#1]
        0x00001e02:    4288        .B      CMP      r0,r1
        0x00001e04:    d3c4        ..      BCC      0x1d90 ; ampGetStatus + 88
        0x00001e06:    28df        .(      CMP      r0,#0xdf
        0x00001e08:    d9c3        ..      BLS      0x1d92 ; ampGetStatus + 90
        0x00001e0a:    4803        .H      LDR      r0,[pc,#12] ; [0x1e18] = 0x200003cc
        0x00001e0c:    3808        .8      SUBS     r0,r0,#8
        0x00001e0e:    6980        .i      LDR      r0,[r0,#0x18]
        0x00001e10:    2800        .(      CMP      r0,#0
        0x00001e12:    d1bd        ..      BNE      0x1d90 ; ampGetStatus + 88
        0x00001e14:    e7bd        ..      B        0x1d92 ; ampGetStatus + 90
    $d
        0x00001e16:    0000        ..      DCW    0
        0x00001e18:    200003cc    ...     DCD    536871884
        0x00001e1c:    20001920     ..     DCD    536877344
        0x00001e20:    50000100    ...P    DCD    1342177536
    $t
    i.ampInit
    ampInit
        0x00001e24:    b510        ..      PUSH     {r4,lr}
        0x00001e26:    f001f8a5    ....    BL       getATask ; 0x2f74
        0x00001e2a:    4901        .I      LDR      r1,[pc,#4] ; [0x1e30] = 0x200003c4
        0x00001e2c:    7108        .q      STRB     r0,[r1,#4]
        0x00001e2e:    bd10        ..      POP      {r4,pc}
    $d
        0x00001e30:    200003c4    ...     DCD    536871876
    $t
    i.ampInitAllConf
    ampInitAllConf
        0x00001e34:    b5f8        ..      PUSH     {r3-r7,lr}
        0x00001e36:    2400        .$      MOVS     r4,#0
        0x00001e38:    2046        F       MOVS     r0,#0x46
        0x00001e3a:    f001fda0    ....    BL       logEvent ; 0x397e
        0x00001e3e:    4d0e        .M      LDR      r5,[pc,#56] ; [0x1e78] = 0x20000444
        0x00001e40:    4f0e        .O      LDR      r7,[pc,#56] ; [0x1e7c] = 0x50000100
        0x00001e42:    2600        .&      MOVS     r6,#0
        0x00001e44:    1928        (.      ADDS     r0,r5,r4
        0x00001e46:    7841        Ax      LDRB     r1,[r0,#1]
        0x00001e48:    5d28        (]      LDRB     r0,[r5,r4]
        0x00001e4a:    f000f893    ....    BL       ampSendCmd_38 ; 0x1f74
        0x00001e4e:    1ca4        ..      ADDS     r4,r4,#2
        0x00001e50:    f7fffa36    ..6.    BL       SYS_UnlockReg ; 0x12c0
        0x00001e54:    f7fffc36    ..6.    BL       WDT_TIMER_RESET ; 0x16c4
        0x00001e58:    603e        >`      STR      r6,[r7,#0]
        0x00001e5a:    2c58        X,      CMP      r4,#0x58
        0x00001e5c:    d3f2        ..      BCC      0x1e44 ; ampInitAllConf + 16
        0x00001e5e:    21dd        .!      MOVS     r1,#0xdd
        0x00001e60:    2005        .       MOVS     r0,#5
        0x00001e62:    f000f887    ....    BL       ampSendCmd_38 ; 0x1f74
        0x00001e66:    4804        .H      LDR      r0,[pc,#16] ; [0x1e78] = 0x20000444
        0x00001e68:    3878        x8      SUBS     r0,r0,#0x78
        0x00001e6a:    7800        .x      LDRB     r0,[r0,#0]
        0x00001e6c:    28a0        .(      CMP      r0,#0xa0
        0x00001e6e:    d102        ..      BNE      0x1e76 ; ampInitAllConf + 66
        0x00001e70:    2047        G       MOVS     r0,#0x47
        0x00001e72:    f001fd84    ....    BL       logEvent ; 0x397e
        0x00001e76:    bdf8        ..      POP      {r3-r7,pc}
    $d
        0x00001e78:    20000444    D..     DCD    536872004
        0x00001e7c:    50000100    ...P    DCD    1342177536
    $t
    i.ampMute
    ampMute
        0x00001e80:    b510        ..      PUSH     {r4,lr}
        0x00001e82:    4904        .I      LDR      r1,[pc,#16] ; [0x1e94] = 0x200003c4
        0x00001e84:    2001        .       MOVS     r0,#1
        0x00001e86:    70c8        .p      STRB     r0,[r1,#3]
        0x00001e88:    211e        .!      MOVS     r1,#0x1e
        0x00001e8a:    2006        .       MOVS     r0,#6
        0x00001e8c:    f000f872    ..r.    BL       ampSendCmd_38 ; 0x1f74
        0x00001e90:    bd10        ..      POP      {r4,pc}
    $d
        0x00001e92:    0000        ..      DCW    0
        0x00001e94:    200003c4    ...     DCD    536871876
    $t
    i.ampMuteSwitch
    ampMuteSwitch
        0x00001e98:    b510        ..      PUSH     {r4,lr}
        0x00001e9a:    4808        .H      LDR      r0,[pc,#32] ; [0x1ebc] = 0x200003c4
        0x00001e9c:    6981        .i      LDR      r1,[r0,#0x18]
        0x00001e9e:    2900        .)      CMP      r1,#0
        0x00001ea0:    d100        ..      BNE      0x1ea4 ; ampMuteSwitch + 12
        0x00001ea2:    6141        Aa      STR      r1,[r0,#0x14]
        0x00001ea4:    7841        Ax      LDRB     r1,[r0,#1]
        0x00001ea6:    2900        .)      CMP      r1,#0
        0x00001ea8:    d105        ..      BNE      0x1eb6 ; ampMuteSwitch + 30
        0x00001eaa:    6940        @i      LDR      r0,[r0,#0x14]
        0x00001eac:    2800        .(      CMP      r0,#0
        0x00001eae:    d003        ..      BEQ      0x1eb8 ; ampMuteSwitch + 32
        0x00001eb0:    2005        .       MOVS     r0,#5
        0x00001eb2:    f000fbd9    ....    BL       changeInputVolumeDown ; 0x2668
        0x00001eb6:    bd10        ..      POP      {r4,pc}
        0x00001eb8:    2004        .       MOVS     r0,#4
        0x00001eba:    e7fa        ..      B        0x1eb2 ; ampMuteSwitch + 26
    $d
        0x00001ebc:    200003c4    ...     DCD    536871876
    $t
    i.ampPowerDown
    ampPowerDown
        0x00001ec0:    b510        ..      PUSH     {r4,lr}
        0x00001ec2:    217d        }!      MOVS     r1,#0x7d
        0x00001ec4:    2005        .       MOVS     r0,#5
        0x00001ec6:    f000f855    ..U.    BL       ampSendCmd_38 ; 0x1f74
        0x00001eca:    bd10        ..      POP      {r4,pc}
    i.ampResumeI2c
    ampResumeI2c
        0x00001ecc:    4805        .H      LDR      r0,[pc,#20] ; [0x1ee4] = 0x20001920
        0x00001ece:    7901        .y      LDRB     r1,[r0,#4]
        0x00001ed0:    70c1        .p      STRB     r1,[r0,#3]
        0x00001ed2:    4905        .I      LDR      r1,[pc,#20] ; [0x1ee8] = 0x200003cc
        0x00001ed4:    20a0        .       MOVS     r0,#0xa0
        0x00001ed6:    7008        .p      STRB     r0,[r1,#0]
        0x00001ed8:    2000        .       MOVS     r0,#0
        0x00001eda:    3908        .9      SUBS     r1,r1,#8
        0x00001edc:    7048        Hp      STRB     r0,[r1,#1]
        0x00001ede:    7008        .p      STRB     r0,[r1,#0]
        0x00001ee0:    4770        pG      BX       lr
    $d
        0x00001ee2:    0000        ..      DCW    0
        0x00001ee4:    20001920     ..     DCD    536877344
        0x00001ee8:    200003cc    ...     DCD    536871884
    $t
    i.ampSendCallEqs_38
    ampSendCallEqs_38
        0x00001eec:    b5f8        ..      PUSH     {r3-r7,lr}
        0x00001eee:    460d        .F      MOV      r5,r1
        0x00001ef0:    283f        ?(      CMP      r0,#0x3f
        0x00001ef2:    d839        9.      BHI      0x1f68 ; ampSendCallEqs_38 + 124
        0x00001ef4:    2d3f        ?-      CMP      r5,#0x3f
        0x00001ef6:    d837        7.      BHI      0x1f68 ; ampSendCallEqs_38 + 124
        0x00001ef8:    42a8        .B      CMP      r0,r5
        0x00001efa:    d835        5.      BHI      0x1f68 ; ampSendCallEqs_38 + 124
        0x00001efc:    4604        .F      MOV      r4,r0
        0x00001efe:    4e1b        .N      LDR      r6,[pc,#108] ; [0x1f6c] = 0x2000059c
        0x00001f00:    e009        ..      B        0x1f16 ; ampSendCallEqs_38 + 42
        0x00001f02:    00a0        ..      LSLS     r0,r4,#2
        0x00001f04:    1982        ..      ADDS     r2,r0,r6
        0x00001f06:    1d21        !.      ADDS     r1,r4,#4
        0x00001f08:    4620         F      MOV      r0,r4
        0x00001f0a:    f000f899    ....    BL       ampSetEqDefault ; 0x2040
        0x00001f0e:    1d64        d.      ADDS     r4,r4,#5
        0x00001f10:    2002        .       MOVS     r0,#2
        0x00001f12:    f002fb2f    ../.    BL       sysDelayMs ; 0x4574
        0x00001f16:    2c32        2,      CMP      r4,#0x32
        0x00001f18:    d3f3        ..      BCC      0x1f02 ; ampSendCallEqs_38 + 22
        0x00001f1a:    2014        .       MOVS     r0,#0x14
        0x00001f1c:    f002fb2a    ..*.    BL       sysDelayMs ; 0x4574
        0x00001f20:    2100        .!      MOVS     r1,#0
        0x00001f22:    2031        1       MOVS     r0,#0x31
        0x00001f24:    f000f826    ..&.    BL       ampSendCmd_38 ; 0x1f74
        0x00001f28:    2432        2$      MOVS     r4,#0x32
        0x00001f2a:    e01b        ..      B        0x1f64 ; ampSendCallEqs_38 + 120
        0x00001f2c:    b2e1        ..      UXTB     r1,r4
        0x00001f2e:    2016        .       MOVS     r0,#0x16
        0x00001f30:    f000f820    .. .    BL       ampSendCmd_38 ; 0x1f74
        0x00001f34:    00a0        ..      LSLS     r0,r4,#2
        0x00001f36:    1981        ..      ADDS     r1,r0,r6
        0x00001f38:    480d        .H      LDR      r0,[pc,#52] ; [0x1f70] = 0x200003c4
        0x00001f3a:    6809        .h      LDR      r1,[r1,#0]
        0x00001f3c:    4607        .F      MOV      r7,r0
        0x00001f3e:    61c1        .a      STR      r1,[r0,#0x1c]
        0x00001f40:    371c        .7      ADDS     r7,r7,#0x1c
        0x00001f42:    78b9        .x      LDRB     r1,[r7,#2]
        0x00001f44:    2017        .       MOVS     r0,#0x17
        0x00001f46:    f000f815    ....    BL       ampSendCmd_38 ; 0x1f74
        0x00001f4a:    7879        yx      LDRB     r1,[r7,#1]
        0x00001f4c:    2018        .       MOVS     r0,#0x18
        0x00001f4e:    f000f811    ....    BL       ampSendCmd_38 ; 0x1f74
        0x00001f52:    7839        9x      LDRB     r1,[r7,#0]
        0x00001f54:    2019        .       MOVS     r0,#0x19
        0x00001f56:    f000f80d    ....    BL       ampSendCmd_38 ; 0x1f74
        0x00001f5a:    2101        .!      MOVS     r1,#1
        0x00001f5c:    2026        &       MOVS     r0,#0x26
        0x00001f5e:    f000f809    ....    BL       ampSendCmd_38 ; 0x1f74
        0x00001f62:    1c64        d.      ADDS     r4,r4,#1
        0x00001f64:    42ac        .B      CMP      r4,r5
        0x00001f66:    d9e1        ..      BLS      0x1f2c ; ampSendCallEqs_38 + 64
        0x00001f68:    bdf8        ..      POP      {r3-r7,pc}
    $d
        0x00001f6a:    0000        ..      DCW    0
        0x00001f6c:    2000059c    ...     DCD    536872348
        0x00001f70:    200003c4    ...     DCD    536871876
    $t
    i.ampSendCmd_38
    ampSendCmd_38
        0x00001f74:    b57c        |.      PUSH     {r2-r6,lr}
        0x00001f76:    4605        .F      MOV      r5,r0
        0x00001f78:    2001        .       MOVS     r0,#1
        0x00001f7a:    460e        .F      MOV      r6,r1
        0x00001f7c:    4c0d        .L      LDR      r4,[pc,#52] ; [0x1fb4] = 0x200003cc
        0x00001f7e:    9000        ..      STR      r0,[sp,#0]
        0x00001f80:    2302        .#      MOVS     r3,#2
        0x00001f82:    2200        ."      MOVS     r2,#0
        0x00001f84:    2138        8!      MOVS     r1,#0x38
        0x00001f86:    9401        ..      STR      r4,[sp,#4]
        0x00001f88:    480b        .H      LDR      r0,[pc,#44] ; [0x1fb8] = 0x20001920
        0x00001f8a:    f001f9cf    ....    BL       initI2cDataBlock ; 0x332c
        0x00001f8e:    7065        ep      STRB     r5,[r4,#1]
        0x00001f90:    70a6        .p      STRB     r6,[r4,#2]
        0x00001f92:    20a2        .       MOVS     r0,#0xa2
        0x00001f94:    7020         p      STRB     r0,[r4,#0]
        0x00001f96:    2100        .!      MOVS     r1,#0
        0x00001f98:    4807        .H      LDR      r0,[pc,#28] ; [0x1fb8] = 0x20001920
        0x00001f9a:    f7fffe07    ....    BL       addI2cChain ; 0x1bac
        0x00001f9e:    7820         x      LDRB     r0,[r4,#0]
        0x00001fa0:    28a2        .(      CMP      r0,#0xa2
        0x00001fa2:    d0fc        ..      BEQ      0x1f9e ; ampSendCmd_38 + 42
        0x00001fa4:    7820         x      LDRB     r0,[r4,#0]
        0x00001fa6:    28a3        .(      CMP      r0,#0xa3
        0x00001fa8:    d102        ..      BNE      0x1fb0 ; ampSendCmd_38 + 60
        0x00001faa:    2048        H       MOVS     r0,#0x48
        0x00001fac:    f001fce7    ....    BL       logEvent ; 0x397e
        0x00001fb0:    bd7c        |.      POP      {r2-r6,pc}
    $d
        0x00001fb2:    0000        ..      DCW    0
        0x00001fb4:    200003cc    ...     DCD    536871884
        0x00001fb8:    20001920     ..     DCD    536877344
    $t
    i.ampSendEqs_38
    ampSendEqs_38
        0x00001fbc:    b5f8        ..      PUSH     {r3-r7,lr}
        0x00001fbe:    460d        .F      MOV      r5,r1
        0x00001fc0:    283f        ?(      CMP      r0,#0x3f
        0x00001fc2:    d83a        :.      BHI      0x203a ; ampSendEqs_38 + 126
        0x00001fc4:    2d3f        ?-      CMP      r5,#0x3f
        0x00001fc6:    d838        8.      BHI      0x203a ; ampSendEqs_38 + 126
        0x00001fc8:    42a8        .B      CMP      r0,r5
        0x00001fca:    d836        6.      BHI      0x203a ; ampSendEqs_38 + 126
        0x00001fcc:    4604        .F      MOV      r4,r0
        0x00001fce:    4e1b        .N      LDR      r6,[pc,#108] ; [0x203c] = 0x2000049c
        0x00001fd0:    e009        ..      B        0x1fe6 ; ampSendEqs_38 + 42
        0x00001fd2:    00a0        ..      LSLS     r0,r4,#2
        0x00001fd4:    1982        ..      ADDS     r2,r0,r6
        0x00001fd6:    1d21        !.      ADDS     r1,r4,#4
        0x00001fd8:    4620         F      MOV      r0,r4
        0x00001fda:    f000f831    ..1.    BL       ampSetEqDefault ; 0x2040
        0x00001fde:    1d64        d.      ADDS     r4,r4,#5
        0x00001fe0:    2002        .       MOVS     r0,#2
        0x00001fe2:    f002fac7    ....    BL       sysDelayMs ; 0x4574
        0x00001fe6:    2c32        2,      CMP      r4,#0x32
        0x00001fe8:    d3f3        ..      BCC      0x1fd2 ; ampSendEqs_38 + 22
        0x00001fea:    2014        .       MOVS     r0,#0x14
        0x00001fec:    f002fac2    ....    BL       sysDelayMs ; 0x4574
        0x00001ff0:    2100        .!      MOVS     r1,#0
        0x00001ff2:    2031        1       MOVS     r0,#0x31
        0x00001ff4:    f7ffffbe    ....    BL       ampSendCmd_38 ; 0x1f74
        0x00001ff8:    2432        2$      MOVS     r4,#0x32
        0x00001ffa:    e01c        ..      B        0x2036 ; ampSendEqs_38 + 122
        0x00001ffc:    b2e1        ..      UXTB     r1,r4
        0x00001ffe:    2016        .       MOVS     r0,#0x16
        0x00002000:    f7ffffb8    ....    BL       ampSendCmd_38 ; 0x1f74
        0x00002004:    00a0        ..      LSLS     r0,r4,#2
        0x00002006:    1981        ..      ADDS     r1,r0,r6
        0x00002008:    480c        .H      LDR      r0,[pc,#48] ; [0x203c] = 0x2000049c
        0x0000200a:    6809        .h      LDR      r1,[r1,#0]
        0x0000200c:    38d8        .8      SUBS     r0,r0,#0xd8
        0x0000200e:    4607        .F      MOV      r7,r0
        0x00002010:    61c1        .a      STR      r1,[r0,#0x1c]
        0x00002012:    371c        .7      ADDS     r7,r7,#0x1c
        0x00002014:    78b9        .x      LDRB     r1,[r7,#2]
        0x00002016:    2017        .       MOVS     r0,#0x17
        0x00002018:    f7ffffac    ....    BL       ampSendCmd_38 ; 0x1f74
        0x0000201c:    7879        yx      LDRB     r1,[r7,#1]
        0x0000201e:    2018        .       MOVS     r0,#0x18
        0x00002020:    f7ffffa8    ....    BL       ampSendCmd_38 ; 0x1f74
        0x00002024:    7839        9x      LDRB     r1,[r7,#0]
        0x00002026:    2019        .       MOVS     r0,#0x19
        0x00002028:    f7ffffa4    ....    BL       ampSendCmd_38 ; 0x1f74
        0x0000202c:    2101        .!      MOVS     r1,#1
        0x0000202e:    2026        &       MOVS     r0,#0x26
        0x00002030:    f7ffffa0    ....    BL       ampSendCmd_38 ; 0x1f74
        0x00002034:    1c64        d.      ADDS     r4,r4,#1
        0x00002036:    42ac        .B      CMP      r4,r5
        0x00002038:    d9e0        ..      BLS      0x1ffc ; ampSendEqs_38 + 64
        0x0000203a:    bdf8        ..      POP      {r3-r7,pc}
    $d
        0x0000203c:    2000049c    ...     DCD    536872092
    $t
    i.ampSetEqDefault
    ampSetEqDefault
        0x00002040:    b5f8        ..      PUSH     {r3-r7,lr}
        0x00002042:    4605        .F      MOV      r5,r0
        0x00002044:    2400        .$      MOVS     r4,#0
        0x00002046:    4617        .F      MOV      r7,r2
        0x00002048:    4621        !F      MOV      r1,r4
        0x0000204a:    2031        1       MOVS     r0,#0x31
        0x0000204c:    f7ffff92    ....    BL       ampSendCmd_38 ; 0x1f74
        0x00002050:    b2e9        ..      UXTB     r1,r5
        0x00002052:    2016        .       MOVS     r0,#0x16
        0x00002054:    f7ffff8e    ....    BL       ampSendCmd_38 ; 0x1f74
        0x00002058:    4e10        .N      LDR      r6,[pc,#64] ; [0x209c] = 0x200003e0
        0x0000205a:    00a0        ..      LSLS     r0,r4,#2
        0x0000205c:    19c1        ..      ADDS     r1,r0,r7
        0x0000205e:    480f        .H      LDR      r0,[pc,#60] ; [0x209c] = 0x200003e0
        0x00002060:    6809        .h      LDR      r1,[r1,#0]
        0x00002062:    381c        .8      SUBS     r0,r0,#0x1c
        0x00002064:    61c1        .a      STR      r1,[r0,#0x1c]
        0x00002066:    0060        `.      LSLS     r0,r4,#1
        0x00002068:    1825        %.      ADDS     r5,r4,r0
        0x0000206a:    4628        (F      MOV      r0,r5
        0x0000206c:    3017        .0      ADDS     r0,r0,#0x17
        0x0000206e:    78b1        .x      LDRB     r1,[r6,#2]
        0x00002070:    b2c0        ..      UXTB     r0,r0
        0x00002072:    f7ffff7f    ....    BL       ampSendCmd_38 ; 0x1f74
        0x00002076:    4628        (F      MOV      r0,r5
        0x00002078:    3018        .0      ADDS     r0,r0,#0x18
        0x0000207a:    7871        qx      LDRB     r1,[r6,#1]
        0x0000207c:    b2c0        ..      UXTB     r0,r0
        0x0000207e:    f7ffff79    ..y.    BL       ampSendCmd_38 ; 0x1f74
        0x00002082:    3519        .5      ADDS     r5,r5,#0x19
        0x00002084:    7831        1x      LDRB     r1,[r6,#0]
        0x00002086:    b2e8        ..      UXTB     r0,r5
        0x00002088:    f7ffff74    ..t.    BL       ampSendCmd_38 ; 0x1f74
        0x0000208c:    1c64        d.      ADDS     r4,r4,#1
        0x0000208e:    2c05        .,      CMP      r4,#5
        0x00002090:    d3e3        ..      BCC      0x205a ; ampSetEqDefault + 26
        0x00002092:    2102        .!      MOVS     r1,#2
        0x00002094:    2026        &       MOVS     r0,#0x26
        0x00002096:    f7ffff6d    ..m.    BL       ampSendCmd_38 ; 0x1f74
        0x0000209a:    bdf8        ..      POP      {r3-r7,pc}
    $d
        0x0000209c:    200003e0    ...     DCD    536871904
    $t
    i.ampSetL
    ampSetL
        0x000020a0:    b510        ..      PUSH     {r4,lr}
        0x000020a2:    2100        .!      MOVS     r1,#0
        0x000020a4:    2031        1       MOVS     r0,#0x31
        0x000020a6:    f7ffff65    ..e.    BL       ampSendCmd_38 ; 0x1f74
        0x000020aa:    2138        8!      MOVS     r1,#0x38
        0x000020ac:    2016        .       MOVS     r0,#0x16
        0x000020ae:    f7ffff61    ..a.    BL       ampSendCmd_38 ; 0x1f74
        0x000020b2:    217f        .!      MOVS     r1,#0x7f
        0x000020b4:    2017        .       MOVS     r0,#0x17
        0x000020b6:    f7ffff5d    ..].    BL       ampSendCmd_38 ; 0x1f74
        0x000020ba:    21ff        .!      MOVS     r1,#0xff
        0x000020bc:    2018        .       MOVS     r0,#0x18
        0x000020be:    f7ffff59    ..Y.    BL       ampSendCmd_38 ; 0x1f74
        0x000020c2:    21ff        .!      MOVS     r1,#0xff
        0x000020c4:    2019        .       MOVS     r0,#0x19
        0x000020c6:    f7ffff55    ..U.    BL       ampSendCmd_38 ; 0x1f74
        0x000020ca:    2101        .!      MOVS     r1,#1
        0x000020cc:    2026        &       MOVS     r0,#0x26
        0x000020ce:    f7ffff51    ..Q.    BL       ampSendCmd_38 ; 0x1f74
        0x000020d2:    2139        9!      MOVS     r1,#0x39
        0x000020d4:    2016        .       MOVS     r0,#0x16
        0x000020d6:    f7ffff4d    ..M.    BL       ampSendCmd_38 ; 0x1f74
        0x000020da:    2100        .!      MOVS     r1,#0
        0x000020dc:    2017        .       MOVS     r0,#0x17
        0x000020de:    f7ffff49    ..I.    BL       ampSendCmd_38 ; 0x1f74
        0x000020e2:    2100        .!      MOVS     r1,#0
        0x000020e4:    2018        .       MOVS     r0,#0x18
        0x000020e6:    f7ffff45    ..E.    BL       ampSendCmd_38 ; 0x1f74
        0x000020ea:    2100        .!      MOVS     r1,#0
        0x000020ec:    2019        .       MOVS     r0,#0x19
        0x000020ee:    f7ffff41    ..A.    BL       ampSendCmd_38 ; 0x1f74
        0x000020f2:    2101        .!      MOVS     r1,#1
        0x000020f4:    2026        &       MOVS     r0,#0x26
        0x000020f6:    f7ffff3d    ..=.    BL       ampSendCmd_38 ; 0x1f74
        0x000020fa:    213a        :!      MOVS     r1,#0x3a
        0x000020fc:    2016        .       MOVS     r0,#0x16
        0x000020fe:    f7ffff39    ..9.    BL       ampSendCmd_38 ; 0x1f74
        0x00002102:    217f        .!      MOVS     r1,#0x7f
        0x00002104:    2017        .       MOVS     r0,#0x17
        0x00002106:    f7ffff35    ..5.    BL       ampSendCmd_38 ; 0x1f74
        0x0000210a:    21ff        .!      MOVS     r1,#0xff
        0x0000210c:    2018        .       MOVS     r0,#0x18
        0x0000210e:    f7ffff31    ..1.    BL       ampSendCmd_38 ; 0x1f74
        0x00002112:    21ff        .!      MOVS     r1,#0xff
        0x00002114:    2019        .       MOVS     r0,#0x19
        0x00002116:    f7ffff2d    ..-.    BL       ampSendCmd_38 ; 0x1f74
        0x0000211a:    2101        .!      MOVS     r1,#1
        0x0000211c:    2026        &       MOVS     r0,#0x26
        0x0000211e:    f7ffff29    ..).    BL       ampSendCmd_38 ; 0x1f74
        0x00002122:    213b        ;!      MOVS     r1,#0x3b
        0x00002124:    2016        .       MOVS     r0,#0x16
        0x00002126:    f7ffff25    ..%.    BL       ampSendCmd_38 ; 0x1f74
        0x0000212a:    2100        .!      MOVS     r1,#0
        0x0000212c:    2017        .       MOVS     r0,#0x17
        0x0000212e:    f7ffff21    ..!.    BL       ampSendCmd_38 ; 0x1f74
        0x00002132:    2100        .!      MOVS     r1,#0
        0x00002134:    2018        .       MOVS     r0,#0x18
        0x00002136:    f7ffff1d    ....    BL       ampSendCmd_38 ; 0x1f74
        0x0000213a:    2100        .!      MOVS     r1,#0
        0x0000213c:    2019        .       MOVS     r0,#0x19
        0x0000213e:    f7ffff19    ....    BL       ampSendCmd_38 ; 0x1f74
        0x00002142:    2101        .!      MOVS     r1,#1
        0x00002144:    2026        &       MOVS     r0,#0x26
        0x00002146:    f7ffff15    ....    BL       ampSendCmd_38 ; 0x1f74
        0x0000214a:    4805        .H      LDR      r0,[pc,#20] ; [0x2160] = 0x20000404
        0x0000214c:    4904        .I      LDR      r1,[pc,#16] ; [0x2160] = 0x20000404
        0x0000214e:    7800        .x      LDRB     r0,[r0,#0]
        0x00002150:    3938        89      SUBS     r1,r1,#0x38
        0x00002152:    7088        .p      STRB     r0,[r1,#2]
        0x00002154:    2100        .!      MOVS     r1,#0
        0x00002156:    2001        .       MOVS     r0,#1
        0x00002158:    f7ffff0c    ....    BL       ampSendCmd_38 ; 0x1f74
        0x0000215c:    bd10        ..      POP      {r4,pc}
    $d
        0x0000215e:    0000        ..      DCW    0
        0x00002160:    20000404    ...     DCD    536871940
    $t
    i.ampSetR
    ampSetR
        0x00002164:    b510        ..      PUSH     {r4,lr}
        0x00002166:    2100        .!      MOVS     r1,#0
        0x00002168:    2031        1       MOVS     r0,#0x31
        0x0000216a:    f7ffff03    ....    BL       ampSendCmd_38 ; 0x1f74
        0x0000216e:    2139        9!      MOVS     r1,#0x39
        0x00002170:    2016        .       MOVS     r0,#0x16
        0x00002172:    f7fffeff    ....    BL       ampSendCmd_38 ; 0x1f74
        0x00002176:    217f        .!      MOVS     r1,#0x7f
        0x00002178:    2017        .       MOVS     r0,#0x17
        0x0000217a:    f7fffefb    ....    BL       ampSendCmd_38 ; 0x1f74
        0x0000217e:    21ff        .!      MOVS     r1,#0xff
        0x00002180:    2018        .       MOVS     r0,#0x18
        0x00002182:    f7fffef7    ....    BL       ampSendCmd_38 ; 0x1f74
        0x00002186:    21ff        .!      MOVS     r1,#0xff
        0x00002188:    2019        .       MOVS     r0,#0x19
        0x0000218a:    f7fffef3    ....    BL       ampSendCmd_38 ; 0x1f74
        0x0000218e:    2101        .!      MOVS     r1,#1
        0x00002190:    2026        &       MOVS     r0,#0x26
        0x00002192:    f7fffeef    ....    BL       ampSendCmd_38 ; 0x1f74
        0x00002196:    2138        8!      MOVS     r1,#0x38
        0x00002198:    2016        .       MOVS     r0,#0x16
        0x0000219a:    f7fffeeb    ....    BL       ampSendCmd_38 ; 0x1f74
        0x0000219e:    2100        .!      MOVS     r1,#0
        0x000021a0:    2017        .       MOVS     r0,#0x17
        0x000021a2:    f7fffee7    ....    BL       ampSendCmd_38 ; 0x1f74
        0x000021a6:    2100        .!      MOVS     r1,#0
        0x000021a8:    2018        .       MOVS     r0,#0x18
        0x000021aa:    f7fffee3    ....    BL       ampSendCmd_38 ; 0x1f74
        0x000021ae:    2100        .!      MOVS     r1,#0
        0x000021b0:    2019        .       MOVS     r0,#0x19
        0x000021b2:    f7fffedf    ....    BL       ampSendCmd_38 ; 0x1f74
        0x000021b6:    2101        .!      MOVS     r1,#1
        0x000021b8:    2026        &       MOVS     r0,#0x26
        0x000021ba:    f7fffedb    ....    BL       ampSendCmd_38 ; 0x1f74
        0x000021be:    213b        ;!      MOVS     r1,#0x3b
        0x000021c0:    2016        .       MOVS     r0,#0x16
        0x000021c2:    f7fffed7    ....    BL       ampSendCmd_38 ; 0x1f74
        0x000021c6:    217f        .!      MOVS     r1,#0x7f
        0x000021c8:    2017        .       MOVS     r0,#0x17
        0x000021ca:    f7fffed3    ....    BL       ampSendCmd_38 ; 0x1f74
        0x000021ce:    21ff        .!      MOVS     r1,#0xff
        0x000021d0:    2018        .       MOVS     r0,#0x18
        0x000021d2:    f7fffecf    ....    BL       ampSendCmd_38 ; 0x1f74
        0x000021d6:    21ff        .!      MOVS     r1,#0xff
        0x000021d8:    2019        .       MOVS     r0,#0x19
        0x000021da:    f7fffecb    ....    BL       ampSendCmd_38 ; 0x1f74
        0x000021de:    2101        .!      MOVS     r1,#1
        0x000021e0:    2026        &       MOVS     r0,#0x26
        0x000021e2:    f7fffec7    ....    BL       ampSendCmd_38 ; 0x1f74
        0x000021e6:    213a        :!      MOVS     r1,#0x3a
        0x000021e8:    2016        .       MOVS     r0,#0x16
        0x000021ea:    f7fffec3    ....    BL       ampSendCmd_38 ; 0x1f74
        0x000021ee:    2100        .!      MOVS     r1,#0
        0x000021f0:    2017        .       MOVS     r0,#0x17
        0x000021f2:    f7fffebf    ....    BL       ampSendCmd_38 ; 0x1f74
        0x000021f6:    2100        .!      MOVS     r1,#0
        0x000021f8:    2018        .       MOVS     r0,#0x18
        0x000021fa:    f7fffebb    ....    BL       ampSendCmd_38 ; 0x1f74
        0x000021fe:    2100        .!      MOVS     r1,#0
        0x00002200:    2019        .       MOVS     r0,#0x19
        0x00002202:    f7fffeb7    ....    BL       ampSendCmd_38 ; 0x1f74
        0x00002206:    2101        .!      MOVS     r1,#1
        0x00002208:    2026        &       MOVS     r0,#0x26
        0x0000220a:    f7fffeb3    ....    BL       ampSendCmd_38 ; 0x1f74
        0x0000220e:    21c0        .!      MOVS     r1,#0xc0
        0x00002210:    2001        .       MOVS     r0,#1
        0x00002212:    f7fffeaf    ....    BL       ampSendCmd_38 ; 0x1f74
        0x00002216:    4803        .H      LDR      r0,[pc,#12] ; [0x2224] = 0x20000404
        0x00002218:    4902        .I      LDR      r1,[pc,#8] ; [0x2224] = 0x20000404
        0x0000221a:    7800        .x      LDRB     r0,[r0,#0]
        0x0000221c:    3938        89      SUBS     r1,r1,#0x38
        0x0000221e:    7088        .p      STRB     r0,[r1,#2]
        0x00002220:    bd10        ..      POP      {r4,pc}
    $d
        0x00002222:    0000        ..      DCW    0
        0x00002224:    20000404    ...     DCD    536871940
    $t
    i.ampSetS
    ampSetS
        0x00002228:    b510        ..      PUSH     {r4,lr}
        0x0000222a:    2100        .!      MOVS     r1,#0
        0x0000222c:    2031        1       MOVS     r0,#0x31
        0x0000222e:    f7fffea1    ....    BL       ampSendCmd_38 ; 0x1f74
        0x00002232:    2138        8!      MOVS     r1,#0x38
        0x00002234:    2016        .       MOVS     r0,#0x16
        0x00002236:    f7fffe9d    ....    BL       ampSendCmd_38 ; 0x1f74
        0x0000223a:    217f        .!      MOVS     r1,#0x7f
        0x0000223c:    2017        .       MOVS     r0,#0x17
        0x0000223e:    f7fffe99    ....    BL       ampSendCmd_38 ; 0x1f74
        0x00002242:    21ff        .!      MOVS     r1,#0xff
        0x00002244:    2018        .       MOVS     r0,#0x18
        0x00002246:    f7fffe95    ....    BL       ampSendCmd_38 ; 0x1f74
        0x0000224a:    21ff        .!      MOVS     r1,#0xff
        0x0000224c:    2019        .       MOVS     r0,#0x19
        0x0000224e:    f7fffe91    ....    BL       ampSendCmd_38 ; 0x1f74
        0x00002252:    2101        .!      MOVS     r1,#1
        0x00002254:    2026        &       MOVS     r0,#0x26
        0x00002256:    f7fffe8d    ....    BL       ampSendCmd_38 ; 0x1f74
        0x0000225a:    2139        9!      MOVS     r1,#0x39
        0x0000225c:    2016        .       MOVS     r0,#0x16
        0x0000225e:    f7fffe89    ....    BL       ampSendCmd_38 ; 0x1f74
        0x00002262:    2100        .!      MOVS     r1,#0
        0x00002264:    2017        .       MOVS     r0,#0x17
        0x00002266:    f7fffe85    ....    BL       ampSendCmd_38 ; 0x1f74
        0x0000226a:    2100        .!      MOVS     r1,#0
        0x0000226c:    2018        .       MOVS     r0,#0x18
        0x0000226e:    f7fffe81    ....    BL       ampSendCmd_38 ; 0x1f74
        0x00002272:    2100        .!      MOVS     r1,#0
        0x00002274:    2019        .       MOVS     r0,#0x19
        0x00002276:    f7fffe7d    ..}.    BL       ampSendCmd_38 ; 0x1f74
        0x0000227a:    2101        .!      MOVS     r1,#1
        0x0000227c:    2026        &       MOVS     r0,#0x26
        0x0000227e:    f7fffe79    ..y.    BL       ampSendCmd_38 ; 0x1f74
        0x00002282:    213b        ;!      MOVS     r1,#0x3b
        0x00002284:    2016        .       MOVS     r0,#0x16
        0x00002286:    f7fffe75    ..u.    BL       ampSendCmd_38 ; 0x1f74
        0x0000228a:    217f        .!      MOVS     r1,#0x7f
        0x0000228c:    2017        .       MOVS     r0,#0x17
        0x0000228e:    f7fffe71    ..q.    BL       ampSendCmd_38 ; 0x1f74
        0x00002292:    21ff        .!      MOVS     r1,#0xff
        0x00002294:    2018        .       MOVS     r0,#0x18
        0x00002296:    f7fffe6d    ..m.    BL       ampSendCmd_38 ; 0x1f74
        0x0000229a:    21ff        .!      MOVS     r1,#0xff
        0x0000229c:    2019        .       MOVS     r0,#0x19
        0x0000229e:    f7fffe69    ..i.    BL       ampSendCmd_38 ; 0x1f74
        0x000022a2:    2101        .!      MOVS     r1,#1
        0x000022a4:    2026        &       MOVS     r0,#0x26
        0x000022a6:    f7fffe65    ..e.    BL       ampSendCmd_38 ; 0x1f74
        0x000022aa:    213a        :!      MOVS     r1,#0x3a
        0x000022ac:    2016        .       MOVS     r0,#0x16
        0x000022ae:    f7fffe61    ..a.    BL       ampSendCmd_38 ; 0x1f74
        0x000022b2:    2100        .!      MOVS     r1,#0
        0x000022b4:    2017        .       MOVS     r0,#0x17
        0x000022b6:    f7fffe5d    ..].    BL       ampSendCmd_38 ; 0x1f74
        0x000022ba:    2100        .!      MOVS     r1,#0
        0x000022bc:    2018        .       MOVS     r0,#0x18
        0x000022be:    f7fffe59    ..Y.    BL       ampSendCmd_38 ; 0x1f74
        0x000022c2:    2100        .!      MOVS     r1,#0
        0x000022c4:    2019        .       MOVS     r0,#0x19
        0x000022c6:    f7fffe55    ..U.    BL       ampSendCmd_38 ; 0x1f74
        0x000022ca:    2101        .!      MOVS     r1,#1
        0x000022cc:    2026        &       MOVS     r0,#0x26
        0x000022ce:    f7fffe51    ..Q.    BL       ampSendCmd_38 ; 0x1f74
        0x000022d2:    2180        .!      MOVS     r1,#0x80
        0x000022d4:    2001        .       MOVS     r0,#1
        0x000022d6:    f7fffe4d    ..M.    BL       ampSendCmd_38 ; 0x1f74
        0x000022da:    4803        .H      LDR      r0,[pc,#12] ; [0x22e8] = 0x20000404
        0x000022dc:    4902        .I      LDR      r1,[pc,#8] ; [0x22e8] = 0x20000404
        0x000022de:    7800        .x      LDRB     r0,[r0,#0]
        0x000022e0:    3938        89      SUBS     r1,r1,#0x38
        0x000022e2:    7088        .p      STRB     r0,[r1,#2]
        0x000022e4:    bd10        ..      POP      {r4,pc}
    $d
        0x000022e6:    0000        ..      DCW    0
        0x000022e8:    20000404    ...     DCD    536871940
    $t
    i.ampSetVolume
    ampSetVolume
        0x000022ec:    b570        p.      PUSH     {r4-r6,lr}
        0x000022ee:    4604        .F      MOV      r4,r0
        0x000022f0:    2100        .!      MOVS     r1,#0
        0x000022f2:    2007        .       MOVS     r0,#7
        0x000022f4:    f7fffe3e    ..>.    BL       ampSendCmd_38 ; 0x1f74
        0x000022f8:    4807        .H      LDR      r0,[pc,#28] ; [0x2318] = 0x20000424
        0x000022fa:    5d01        .]      LDRB     r1,[r0,r4]
        0x000022fc:    200a        .       MOVS     r0,#0xa
        0x000022fe:    f7fffe39    ..9.    BL       ampSendCmd_38 ; 0x1f74
        0x00002302:    4d05        .M      LDR      r5,[pc,#20] ; [0x2318] = 0x20000424
        0x00002304:    2009        .       MOVS     r0,#9
        0x00002306:    3d20         =      SUBS     r5,r5,#0x20
        0x00002308:    5d29        )]      LDRB     r1,[r5,r4]
        0x0000230a:    f7fffe33    ..3.    BL       ampSendCmd_38 ; 0x1f74
        0x0000230e:    5d29        )]      LDRB     r1,[r5,r4]
        0x00002310:    2008        .       MOVS     r0,#8
        0x00002312:    f7fffe2f    ../.    BL       ampSendCmd_38 ; 0x1f74
        0x00002316:    bd70        p.      POP      {r4-r6,pc}
    $d
        0x00002318:    20000424    $..     DCD    536871972
    $t
    i.ampUnMuteBass
    ampUnMuteBass
        0x0000231c:    b510        ..      PUSH     {r4,lr}
        0x0000231e:    2005        .       MOVS     r0,#5
        0x00002320:    f002f928    ..(.    BL       sysDelayMs ; 0x4574
        0x00002324:    f7fef95e    ..^.    BL       DWHP83UnMute ; 0x5e4
        0x00002328:    2005        .       MOVS     r0,#5
        0x0000232a:    f002f923    ..#.    BL       sysDelayMs ; 0x4574
        0x0000232e:    2110        .!      MOVS     r1,#0x10
        0x00002330:    2006        .       MOVS     r0,#6
        0x00002332:    f7fffe1f    ....    BL       ampSendCmd_38 ; 0x1f74
        0x00002336:    21c0        .!      MOVS     r1,#0xc0
        0x00002338:    200c        .       MOVS     r0,#0xc
        0x0000233a:    f7fffe1b    ....    BL       ampSendCmd_38 ; 0x1f74
        0x0000233e:    4803        .H      LDR      r0,[pc,#12] ; [0x234c] = 0x20000404
        0x00002340:    4902        .I      LDR      r1,[pc,#8] ; [0x234c] = 0x20000404
        0x00002342:    7800        .x      LDRB     r0,[r0,#0]
        0x00002344:    3938        89      SUBS     r1,r1,#0x38
        0x00002346:    7088        .p      STRB     r0,[r1,#2]
        0x00002348:    bd10        ..      POP      {r4,pc}
    $d
        0x0000234a:    0000        ..      DCW    0
        0x0000234c:    20000404    ...     DCD    536871940
    $t
    i.amp_i2c_status_check
    amp_i2c_status_check
        0x00002350:    4803        .H      LDR      r0,[pc,#12] ; [0x2360] = 0x200003cc
        0x00002352:    7800        .x      LDRB     r0,[r0,#0]
        0x00002354:    28a3        .(      CMP      r0,#0xa3
        0x00002356:    d001        ..      BEQ      0x235c ; amp_i2c_status_check + 12
        0x00002358:    2000        .       MOVS     r0,#0
        0x0000235a:    4770        pG      BX       lr
        0x0000235c:    2001        .       MOVS     r0,#1
        0x0000235e:    4770        pG      BX       lr
    $d
        0x00002360:    200003cc    ...     DCD    536871884
    $t
    i.audioDetect
    audioDetect
        0x00002364:    480f        .H      LDR      r0,[pc,#60] ; [0x23a4] = 0x200003dc
        0x00002366:    6800        .h      LDR      r0,[r0,#0]
        0x00002368:    281a        .(      CMP      r0,#0x1a
        0x0000236a:    d201        ..      BCS      0x2370 ; audioDetect + 12
        0x0000236c:    2040        @       MOVS     r0,#0x40
        0x0000236e:    e004        ..      B        0x237a ; audioDetect + 22
        0x00002370:    281d        .(      CMP      r0,#0x1d
        0x00002372:    d201        ..      BCS      0x2378 ; audioDetect + 20
        0x00002374:    2060        `       MOVS     r0,#0x60
        0x00002376:    e000        ..      B        0x237a ; audioDetect + 22
        0x00002378:    2080        .       MOVS     r0,#0x80
        0x0000237a:    490b        .I      LDR      r1,[pc,#44] ; [0x23a8] = 0x20000075
        0x0000237c:    4a0b        .J      LDR      r2,[pc,#44] ; [0x23ac] = 0x20000378
        0x0000237e:    7809        .x      LDRB     r1,[r1,#0]
        0x00002380:    6812        .h      LDR      r2,[r2,#0]
        0x00002382:    4311        .C      ORRS     r1,r1,r2
        0x00002384:    d100        ..      BNE      0x2388 ; audioDetect + 36
        0x00002386:    2080        .       MOVS     r0,#0x80
        0x00002388:    4909        .I      LDR      r1,[pc,#36] ; [0x23b0] = 0x200006a8
        0x0000238a:    6809        .h      LDR      r1,[r1,#0]
        0x0000238c:    0a89        ..      LSRS     r1,r1,#10
        0x0000238e:    4281        .B      CMP      r1,r0
        0x00002390:    d804        ..      BHI      0x239c ; audioDetect + 56
        0x00002392:    4908        .I      LDR      r1,[pc,#32] ; [0x23b4] = 0x200006ac
        0x00002394:    6809        .h      LDR      r1,[r1,#0]
        0x00002396:    0a89        ..      LSRS     r1,r1,#10
        0x00002398:    4281        .B      CMP      r1,r0
        0x0000239a:    d901        ..      BLS      0x23a0 ; audioDetect + 60
        0x0000239c:    2001        .       MOVS     r0,#1
        0x0000239e:    4770        pG      BX       lr
        0x000023a0:    2000        .       MOVS     r0,#0
        0x000023a2:    4770        pG      BX       lr
    $d
        0x000023a4:    200003dc    ...     DCD    536871900
        0x000023a8:    20000075    u..     DCD    536871029
        0x000023ac:    20000378    x..     DCD    536871800
        0x000023b0:    200006a8    ...     DCD    536872616
        0x000023b4:    200006ac    ...     DCD    536872620
    $t
    i.bootLDROM
    bootLDROM
        0x000023b8:    480a        .H      LDR      r0,[pc,#40] ; [0x23e4] = 0x50000100
        0x000023ba:    2159        Y!      MOVS     r1,#0x59
        0x000023bc:    6001        .`      STR      r1,[r0,#0]
        0x000023be:    2116        .!      MOVS     r1,#0x16
        0x000023c0:    6001        .`      STR      r1,[r0,#0]
        0x000023c2:    2188        .!      MOVS     r1,#0x88
        0x000023c4:    6001        .`      STR      r1,[r0,#0]
        0x000023c6:    2003        .       MOVS     r0,#3
        0x000023c8:    2105        .!      MOVS     r1,#5
        0x000023ca:    0709        ..      LSLS     r1,r1,#28
        0x000023cc:    6048        H`      STR      r0,[r1,#4]
        0x000023ce:    4806        .H      LDR      r0,[pc,#24] ; [0x23e8] = 0x5000c000
        0x000023d0:    6801        .h      LDR      r1,[r0,#0]
        0x000023d2:    0889        ..      LSRS     r1,r1,#2
        0x000023d4:    0089        ..      LSLS     r1,r1,#2
        0x000023d6:    1c89        ..      ADDS     r1,r1,#2
        0x000023d8:    6001        .`      STR      r1,[r0,#0]
        0x000023da:    4905        .I      LDR      r1,[pc,#20] ; [0x23f0] = 0xe000ed00
        0x000023dc:    4803        .H      LDR      r0,[pc,#12] ; [0x23ec] = 0x5fa0004
        0x000023de:    60c8        .`      STR      r0,[r1,#0xc]
        0x000023e0:    e7fe        ..      B        0x23e0 ; bootLDROM + 40
    $d
        0x000023e2:    0000        ..      DCW    0
        0x000023e4:    50000100    ...P    DCD    1342177536
        0x000023e8:    5000c000    ...P    DCD    1342226432
        0x000023ec:    05fa0004    ....    DCD    100270084
        0x000023f0:    e000ed00    ....    DCD    3758157056
    $t
    i.breathingColor
    breathingColor
        0x000023f4:    b5f0        ..      PUSH     {r4-r7,lr}
        0x000023f6:    4d2d        -M      LDR      r5,[pc,#180] ; [0x24ac] = 0x200002d0
        0x000023f8:    6b29        )k      LDR      r1,[r5,#0x30]
        0x000023fa:    6aa8        .j      LDR      r0,[r5,#0x28]
        0x000023fc:    1c49        I.      ADDS     r1,r1,#1
        0x000023fe:    6329        )c      STR      r1,[r5,#0x30]
        0x00002400:    07c9        ..      LSLS     r1,r1,#31
        0x00002402:    d018        ..      BEQ      0x2436 ; breathingColor + 66
        0x00002404:    6a6a        jj      LDR      r2,[r5,#0x24]
        0x00002406:    2728        ('      MOVS     r7,#0x28
        0x00002408:    1c51        Q.      ADDS     r1,r2,#1
        0x0000240a:    6d2c        ,m      LDR      r4,[r5,#0x50]
        0x0000240c:    2600        .&      MOVS     r6,#0
        0x0000240e:    0003        ..      MOVS     r3,r0
        0x00002410:    f7fff98a    ....    BL       __ARM_common_switch8 ; 0x1728
    $d
        0x00002414:    12051108    ....    DCD    302321928
        0x00002418:    4133261c    .&3A    DCD    1093871132
        0x0000241c:    1144        D.      DCW    4420
    $t
        0x0000241e:    61ae        .a      STR      r6,[r5,#0x18]
        0x00002420:    622e        .b      STR      r6,[r5,#0x20]
        0x00002422:    6269        ib      STR      r1,[r5,#0x24]
        0x00002424:    2913        .)      CMP      r1,#0x13
        0x00002426:    d902        ..      BLS      0x242e ; breathingColor + 58
        0x00002428:    1a78        x.      SUBS     r0,r7,r1
        0x0000242a:    61e8        .a      STR      r0,[r5,#0x1c]
        0x0000242c:    e000        ..      B        0x2430 ; breathingColor + 60
        0x0000242e:    61e9        .a      STR      r1,[r5,#0x1c]
        0x00002430:    2927        ')      CMP      r1,#0x27
        0x00002432:    d900        ..      BLS      0x2436 ; breathingColor + 66
        0x00002434:    626e        nb      STR      r6,[r5,#0x24]
        0x00002436:    bdf0        ..      POP      {r4-r7,pc}
        0x00002438:    61ee        .a      STR      r6,[r5,#0x1c]
        0x0000243a:    622e        .b      STR      r6,[r5,#0x20]
        0x0000243c:    6269        ib      STR      r1,[r5,#0x24]
        0x0000243e:    2913        .)      CMP      r1,#0x13
        0x00002440:    d902        ..      BLS      0x2448 ; breathingColor + 84
        0x00002442:    1a78        x.      SUBS     r0,r7,r1
        0x00002444:    61a8        .a      STR      r0,[r5,#0x18]
        0x00002446:    e7f3        ..      B        0x2430 ; breathingColor + 60
        0x00002448:    61a9        .a      STR      r1,[r5,#0x18]
        0x0000244a:    bdf0        ..      POP      {r4-r7,pc}
        0x0000244c:    61ee        .a      STR      r6,[r5,#0x1c]
        0x0000244e:    61ae        .a      STR      r6,[r5,#0x18]
        0x00002450:    6269        ib      STR      r1,[r5,#0x24]
        0x00002452:    2913        .)      CMP      r1,#0x13
        0x00002454:    d902        ..      BLS      0x245c ; breathingColor + 104
        0x00002456:    1a78        x.      SUBS     r0,r7,r1
        0x00002458:    6228        (b      STR      r0,[r5,#0x20]
        0x0000245a:    e7e9        ..      B        0x2430 ; breathingColor + 60
        0x0000245c:    6229        )b      STR      r1,[r5,#0x20]
        0x0000245e:    bdf0        ..      POP      {r4-r7,pc}
        0x00002460:    61ee        .a      STR      r6,[r5,#0x1c]
        0x00002462:    6269        ib      STR      r1,[r5,#0x24]
        0x00002464:    2913        .)      CMP      r1,#0x13
        0x00002466:    d906        ..      BLS      0x2476 ; breathingColor + 130
        0x00002468:    1a78        x.      SUBS     r0,r7,r1
        0x0000246a:    6228        (b      STR      r0,[r5,#0x20]
        0x0000246c:    2927        ')      CMP      r1,#0x27
        0x0000246e:    d900        ..      BLS      0x2472 ; breathingColor + 126
        0x00002470:    626e        nb      STR      r6,[r5,#0x24]
        0x00002472:    6a28        (j      LDR      r0,[r5,#0x20]
        0x00002474:    e00b        ..      B        0x248e ; breathingColor + 154
        0x00002476:    6229        )b      STR      r1,[r5,#0x20]
        0x00002478:    e7fb        ..      B        0x2472 ; breathingColor + 126
        0x0000247a:    6269        ib      STR      r1,[r5,#0x24]
        0x0000247c:    2913        .)      CMP      r1,#0x13
        0x0000247e:    d908        ..      BLS      0x2492 ; breathingColor + 158
        0x00002480:    1a78        x.      SUBS     r0,r7,r1
        0x00002482:    61e8        .a      STR      r0,[r5,#0x1c]
        0x00002484:    2927        ')      CMP      r1,#0x27
        0x00002486:    d900        ..      BLS      0x248a ; breathingColor + 150
        0x00002488:    626e        nb      STR      r6,[r5,#0x24]
        0x0000248a:    69e8        .i      LDR      r0,[r5,#0x1c]
        0x0000248c:    6228        (b      STR      r0,[r5,#0x20]
        0x0000248e:    61a8        .a      STR      r0,[r5,#0x18]
        0x00002490:    bdf0        ..      POP      {r4-r7,pc}
        0x00002492:    61e9        .a      STR      r1,[r5,#0x1c]
        0x00002494:    e7f9        ..      B        0x248a ; breathingColor + 150
        0x00002496:    2a14        .*      CMP      r2,#0x14
        0x00002498:    d102        ..      BNE      0x24a0 ; breathingColor + 172
        0x0000249a:    e003        ..      B        0x24a4 ; breathingColor + 176
        0x0000249c:    2a00        .*      CMP      r2,#0
        0x0000249e:    d001        ..      BEQ      0x24a4 ; breathingColor + 176
        0x000024a0:    4620         F      MOV      r0,r4
        0x000024a2:    e7b4        ..      B        0x240e ; breathingColor + 26
        0x000024a4:    20ff        .       MOVS     r0,#0xff
        0x000024a6:    62a8        .b      STR      r0,[r5,#0x28]
        0x000024a8:    bdf0        ..      POP      {r4-r7,pc}
    $d
        0x000024aa:    0000        ..      DCW    0
        0x000024ac:    200002d0    ...     DCD    536871632
    $t
    i.btCheck
    btCheck
        0x000024b0:    b510        ..      PUSH     {r4,lr}
        0x000024b2:    480e        .H      LDR      r0,[pc,#56] ; [0x24ec] = 0x20000378
        0x000024b4:    490e        .I      LDR      r1,[pc,#56] ; [0x24f0] = 0x2000039c
        0x000024b6:    6802        .h      LDR      r2,[r0,#0]
        0x000024b8:    7808        .x      LDRB     r0,[r1,#0]
        0x000024ba:    2a01        .*      CMP      r2,#1
        0x000024bc:    d00e        ..      BEQ      0x24dc ; btCheck + 44
        0x000024be:    4a0d        .J      LDR      r2,[pc,#52] ; [0x24f4] = 0x2000069c
        0x000024c0:    6812        .h      LDR      r2,[r2,#0]
        0x000024c2:    688b        .h      LDR      r3,[r1,#8]
        0x000024c4:    1ad2        ..      SUBS     r2,r2,r3
        0x000024c6:    4b0c        .K      LDR      r3,[pc,#48] ; [0x24f8] = 0x1388
        0x000024c8:    429a        .B      CMP      r2,r3
        0x000024ca:    d90a        ..      BLS      0x24e2 ; btCheck + 50
        0x000024cc:    2201        ."      MOVS     r2,#1
        0x000024ce:    604a        J`      STR      r2,[r1,#4]
        0x000024d0:    4b0a        .K      LDR      r3,[pc,#40] ; [0x24fc] = 0x2509
        0x000024d2:    2200        ."      MOVS     r2,#0
        0x000024d4:    490a        .I      LDR      r1,[pc,#40] ; [0x2500] = 0x5dc
        0x000024d6:    f002f817    ....    BL       startATask ; 0x4508
        0x000024da:    bd10        ..      POP      {r4,pc}
        0x000024dc:    f002f82e    ....    BL       stopATask ; 0x453c
        0x000024e0:    bd10        ..      POP      {r4,pc}
        0x000024e2:    2200        ."      MOVS     r2,#0
        0x000024e4:    4b07        .K      LDR      r3,[pc,#28] ; [0x2504] = 0x24b1
        0x000024e6:    210a        .!      MOVS     r1,#0xa
        0x000024e8:    e7f5        ..      B        0x24d6 ; btCheck + 38
    $d
        0x000024ea:    0000        ..      DCW    0
        0x000024ec:    20000378    x..     DCD    536871800
        0x000024f0:    2000039c    ...     DCD    536871836
        0x000024f4:    2000069c    ...     DCD    536872604
        0x000024f8:    00001388    ....    DCD    5000
        0x000024fc:    00002509    .%..    DCD    9481
        0x00002500:    000005dc    ....    DCD    1500
        0x00002504:    000024b1    .$..    DCD    9393
    $t
    i.btCheckDone
    btCheckDone
        0x00002508:    b510        ..      PUSH     {r4,lr}
        0x0000250a:    4803        .H      LDR      r0,[pc,#12] ; [0x2518] = 0x2000039c
        0x0000250c:    2100        .!      MOVS     r1,#0
        0x0000250e:    6041        A`      STR      r1,[r0,#4]
        0x00002510:    7800        .x      LDRB     r0,[r0,#0]
        0x00002512:    f002f813    ....    BL       stopATask ; 0x453c
        0x00002516:    bd10        ..      POP      {r4,pc}
    $d
        0x00002518:    2000039c    ...     DCD    536871836
    $t
    i.btHangUpSignalProcess
    btHangUpSignalProcess
        0x0000251c:    b510        ..      PUSH     {r4,lr}
        0x0000251e:    f000ffb7    ....    BL       ledTask ; 0x3490
        0x00002522:    bd10        ..      POP      {r4,pc}
    i.changeInputChannel
    changeInputChannel
        0x00002524:    b5f8        ..      PUSH     {r3-r7,lr}
        0x00002526:    f7fffcab    ....    BL       ampMute ; 0x1e80
        0x0000252a:    4e3f        ?N      LDR      r6,[pc,#252] ; [0x2628] = 0x20000075
        0x0000252c:    4a3f        ?J      LDR      r2,[pc,#252] ; [0x262c] = 0x20000088
        0x0000252e:    7830        0x      LDRB     r0,[r6,#0]
        0x00002530:    6812        .h      LDR      r2,[r2,#0]
        0x00002532:    2400        .$      MOVS     r4,#0
        0x00002534:    1c41        A.      ADDS     r1,r0,#1
        0x00002536:    1e52        R.      SUBS     r2,r2,#1
        0x00002538:    4291        .B      CMP      r1,r2
        0x0000253a:    d901        ..      BLS      0x2540 ; changeInputChannel + 28
        0x0000253c:    2000        .       MOVS     r0,#0
        0x0000253e:    e000        ..      B        0x2542 ; changeInputChannel + 30
        0x00002540:    1c40        @.      ADDS     r0,r0,#1
        0x00002542:    b2c0        ..      UXTB     r0,r0
        0x00002544:    493a        :I      LDR      r1,[pc,#232] ; [0x2630] = 0x20000076
        0x00002546:    7030        0p      STRB     r0,[r6,#0]
        0x00002548:    4d3a        :M      LDR      r5,[pc,#232] ; [0x2634] = 0x200002d0
        0x0000254a:    5c08        .\      LDRB     r0,[r1,r0]
        0x0000254c:    7028        (p      STRB     r0,[r5,#0]
        0x0000254e:    f000ff4d    ..M.    BL       ledColorSet ; 0x33ec
        0x00002552:    7830        0x      LDRB     r0,[r6,#0]
        0x00002554:    2802        .(      CMP      r0,#2
        0x00002556:    d01a        ..      BEQ      0x258e ; changeInputChannel + 106
        0x00002558:    4f37        7O      LDR      r7,[pc,#220] ; [0x2638] = 0x2000039c
        0x0000255a:    7838        8x      LDRB     r0,[r7,#0]
        0x0000255c:    f001ffee    ....    BL       stopATask ; 0x453c
        0x00002560:    4836        6H      LDR      r0,[pc,#216] ; [0x263c] = 0x500042b4
        0x00002562:    2101        .!      MOVS     r1,#1
        0x00002564:    6001        .`      STR      r1,[r0,#0]
        0x00002566:    7830        0x      LDRB     r0,[r6,#0]
        0x00002568:    4e34        4N      LDR      r6,[pc,#208] ; [0x263c] = 0x500042b4
        0x0000256a:    3e08        .>      SUBS     r6,r6,#8
        0x0000256c:    2800        .(      CMP      r0,#0
        0x0000256e:    d038        8.      BEQ      0x25e2 ; changeInputChannel + 190
        0x00002570:    4f33        3O      LDR      r7,[pc,#204] ; [0x2640] = 0x2000037c
        0x00002572:    2096        .       MOVS     r0,#0x96
        0x00002574:    603c        <`      STR      r4,[r7,#0]
        0x00002576:    f001fffd    ....    BL       sysDelayMs ; 0x4574
        0x0000257a:    f7fdfe57    ..W.    BL       BT_POWER_ON ; 0x22c
        0x0000257e:    20c8        .       MOVS     r0,#0xc8
        0x00002580:    f001fff8    ....    BL       sysDelayMs ; 0x4574
        0x00002584:    603c        <`      STR      r4,[r7,#0]
        0x00002586:    6034        4`      STR      r4,[r6,#0]
        0x00002588:    482e        .H      LDR      r0,[pc,#184] ; [0x2644] = 0x20000378
        0x0000258a:    6004        .`      STR      r4,[r0,#0]
        0x0000258c:    e026        &.      B        0x25dc ; changeInputChannel + 184
        0x0000258e:    4f2c        ,O      LDR      r7,[pc,#176] ; [0x2640] = 0x2000037c
        0x00002590:    2096        .       MOVS     r0,#0x96
        0x00002592:    603c        <`      STR      r4,[r7,#0]
        0x00002594:    f001ffee    ....    BL       sysDelayMs ; 0x4574
        0x00002598:    f7fdfe48    ..H.    BL       BT_POWER_ON ; 0x22c
        0x0000259c:    20c8        .       MOVS     r0,#0xc8
        0x0000259e:    f001ffe9    ....    BL       sysDelayMs ; 0x4574
        0x000025a2:    4826        &H      LDR      r0,[pc,#152] ; [0x263c] = 0x500042b4
        0x000025a4:    603c        <`      STR      r4,[r7,#0]
        0x000025a6:    6004        .`      STR      r4,[r0,#0]
        0x000025a8:    4821        !H      LDR      r0,[pc,#132] ; [0x2630] = 0x20000076
        0x000025aa:    7831        1x      LDRB     r1,[r6,#0]
        0x000025ac:    5c40        @\      LDRB     r0,[r0,r1]
        0x000025ae:    7028        (p      STRB     r0,[r5,#0]
        0x000025b0:    f000ff1c    ....    BL       ledColorSet ; 0x33ec
        0x000025b4:    4f25        %O      LDR      r7,[pc,#148] ; [0x264c] = 0x200000b4
        0x000025b6:    4e24        $N      LDR      r6,[pc,#144] ; [0x2648] = 0x55aa
        0x000025b8:    603e        >`      STR      r6,[r7,#0]
        0x000025ba:    f7fefae7    ....    BL       Dwhp83CuMuDetect ; 0xb8c
        0x000025be:    6838        8h      LDR      r0,[r7,#0]
        0x000025c0:    42b0        .B      CMP      r0,r6
        0x000025c2:    d10b        ..      BNE      0x25dc ; changeInputChannel + 184
        0x000025c4:    f7fefb4a    ..J.    BL       Dwhp83Slave ; 0xc5c
        0x000025c8:    20c8        .       MOVS     r0,#0xc8
        0x000025ca:    f001ffd3    ....    BL       sysDelayMs ; 0x4574
        0x000025ce:    481a        .H      LDR      r0,[pc,#104] ; [0x2638] = 0x2000039c
        0x000025d0:    4b1f        .K      LDR      r3,[pc,#124] ; [0x2650] = 0x2e99
        0x000025d2:    2200        ."      MOVS     r2,#0
        0x000025d4:    491f        .I      LDR      r1,[pc,#124] ; [0x2654] = 0x9c4
        0x000025d6:    7800        .x      LDRB     r0,[r0,#0]
        0x000025d8:    f001ff96    ....    BL       startATask ; 0x4508
        0x000025dc:    481e        .H      LDR      r0,[pc,#120] ; [0x2658] = 0x200006ec
        0x000025de:    7004        .p      STRB     r4,[r0,#0]
        0x000025e0:    e016        ..      B        0x2610 ; changeInputChannel + 236
        0x000025e2:    f7fdfe23    ..#.    BL       BT_POWER_ON ; 0x22c
        0x000025e6:    20ff        .       MOVS     r0,#0xff
        0x000025e8:    302d        -0      ADDS     r0,r0,#0x2d
        0x000025ea:    f001ffc3    ....    BL       sysDelayMs ; 0x4574
        0x000025ee:    206a        j       MOVS     r0,#0x6a
        0x000025f0:    f001f9c5    ....    BL       logEvent ; 0x397e
        0x000025f4:    203a        :       MOVS     r0,#0x3a
        0x000025f6:    f001f9c2    ....    BL       logEvent ; 0x397e
        0x000025fa:    2001        .       MOVS     r0,#1
        0x000025fc:    6030        0`      STR      r0,[r6,#0]
        0x000025fe:    4917        .I      LDR      r1,[pc,#92] ; [0x265c] = 0x20000380
        0x00002600:    4b17        .K      LDR      r3,[pc,#92] ; [0x2660] = 0x2509
        0x00002602:    600c        .`      STR      r4,[r1,#0]
        0x00002604:    6078        x`      STR      r0,[r7,#4]
        0x00002606:    2200        ."      MOVS     r2,#0
        0x00002608:    4916        .I      LDR      r1,[pc,#88] ; [0x2664] = 0x5dc
        0x0000260a:    7838        8x      LDRB     r0,[r7,#0]
        0x0000260c:    f001ff7c    ..|.    BL       startATask ; 0x4508
        0x00002610:    2005        .       MOVS     r0,#5
        0x00002612:    f001ffaf    ....    BL       sysDelayMs ; 0x4574
        0x00002616:    f002f92f    ../.    BL       unMute ; 0x4878
        0x0000261a:    7828        (x      LDRB     r0,[r5,#0]
        0x0000261c:    f000fee6    ....    BL       ledColorSet ; 0x33ec
        0x00002620:    f000f83a    ..:.    BL       changeInputVolumeUp ; 0x2698
        0x00002624:    bdf8        ..      POP      {r3-r7,pc}
    $d
        0x00002626:    0000        ..      DCW    0
        0x00002628:    20000075    u..     DCD    536871029
        0x0000262c:    20000088    ...     DCD    536871048
        0x00002630:    20000076    v..     DCD    536871030
        0x00002634:    200002d0    ...     DCD    536871632
        0x00002638:    2000039c    ...     DCD    536871836
        0x0000263c:    500042b4    .B.P    DCD    1342194356
        0x00002640:    2000037c    |..     DCD    536871804
        0x00002644:    20000378    x..     DCD    536871800
        0x00002648:    000055aa    .U..    DCD    21930
        0x0000264c:    200000b4    ...     DCD    536871092
        0x00002650:    00002e99    ....    DCD    11929
        0x00002654:    000009c4    ....    DCD    2500
        0x00002658:    200006ec    ...     DCD    536872684
        0x0000265c:    20000380    ...     DCD    536871808
        0x00002660:    00002509    .%..    DCD    9481
        0x00002664:    000005dc    ....    DCD    1500
    $t
    i.changeInputVolumeDown
    changeInputVolumeDown
        0x00002668:    b510        ..      PUSH     {r4,lr}
        0x0000266a:    4908        .I      LDR      r1,[pc,#32] ; [0x268c] = 0x200003c4
        0x0000266c:    780a        .x      LDRB     r2,[r1,#0]
        0x0000266e:    784b        Kx      LDRB     r3,[r1,#1]
        0x00002670:    431a        .C      ORRS     r2,r2,r3
        0x00002672:    d109        ..      BNE      0x2688 ; changeInputVolumeDown + 32
        0x00002674:    7088        .p      STRB     r0,[r1,#2]
        0x00002676:    f000fc93    ....    BL       getChangeVolume ; 0x2fa0
        0x0000267a:    4806        .H      LDR      r0,[pc,#24] ; [0x2694] = 0x2000039d
        0x0000267c:    4b04        .K      LDR      r3,[pc,#16] ; [0x2690] = 0x399
        0x0000267e:    2200        ."      MOVS     r2,#0
        0x00002680:    2102        .!      MOVS     r1,#2
        0x00002682:    7800        .x      LDRB     r0,[r0,#0]
        0x00002684:    f001ff40    ..@.    BL       startATask ; 0x4508
        0x00002688:    bd10        ..      POP      {r4,pc}
    $d
        0x0000268a:    0000        ..      DCW    0
        0x0000268c:    200003c4    ...     DCD    536871876
        0x00002690:    00000399    ....    DCD    921
        0x00002694:    2000039d    ...     DCD    536871837
    $t
    i.changeInputVolumeUp
    changeInputVolumeUp
        0x00002698:    b510        ..      PUSH     {r4,lr}
        0x0000269a:    4809        .H      LDR      r0,[pc,#36] ; [0x26c0] = 0x200003c4
        0x0000269c:    7801        .x      LDRB     r1,[r0,#0]
        0x0000269e:    7842        Bx      LDRB     r2,[r0,#1]
        0x000026a0:    4311        .C      ORRS     r1,r1,r2
        0x000026a2:    d001        ..      BEQ      0x26a8 ; changeInputVolumeUp + 16
        0x000026a4:    2000        .       MOVS     r0,#0
        0x000026a6:    bd10        ..      POP      {r4,pc}
        0x000026a8:    2102        .!      MOVS     r1,#2
        0x000026aa:    7081        .p      STRB     r1,[r0,#2]
        0x000026ac:    4804        .H      LDR      r0,[pc,#16] ; [0x26c0] = 0x200003c4
        0x000026ae:    4904        .I      LDR      r1,[pc,#16] ; [0x26c0] = 0x200003c4
        0x000026b0:    3040        @0      ADDS     r0,r0,#0x40
        0x000026b2:    7800        .x      LDRB     r0,[r0,#0]
        0x000026b4:    3108        .1      ADDS     r1,r1,#8
        0x000026b6:    7088        .p      STRB     r0,[r1,#2]
        0x000026b8:    f7fdfe6e    ..n.    BL       ChangInputVolumeCheck ; 0x398
        0x000026bc:    2001        .       MOVS     r0,#1
        0x000026be:    bd10        ..      POP      {r4,pc}
    $d
        0x000026c0:    200003c4    ...     DCD    536871876
    $t
    i.check_coco
    check_coco
        0x000026c4:    b510        ..      PUSH     {r4,lr}
        0x000026c6:    2101        .!      MOVS     r1,#1
        0x000026c8:    203d        =       MOVS     r0,#0x3d
        0x000026ca:    f001fd07    ....    BL       readDwhp83 ; 0x40dc
        0x000026ce:    f000fc41    ..A.    BL       exitGpioI2c ; 0x2f54
        0x000026d2:    4803        .H      LDR      r0,[pc,#12] ; [0x26e0] = 0x20000700
        0x000026d4:    7801        .x      LDRB     r1,[r0,#0]
        0x000026d6:    4803        .H      LDR      r0,[pc,#12] ; [0x26e4] = 0x200000ac
        0x000026d8:    7001        .p      STRB     r1,[r0,#0]
        0x000026da:    2001        .       MOVS     r0,#1
        0x000026dc:    bd10        ..      POP      {r4,pc}
    $d
        0x000026de:    0000        ..      DCW    0
        0x000026e0:    20000700    ...     DCD    536872704
        0x000026e4:    200000ac    ...     DCD    536871084
    $t
    i.clr
    clr
        0x000026e8:    b510        ..      PUSH     {r4,lr}
        0x000026ea:    2400        .$      MOVS     r4,#0
        0x000026ec:    200a        .       MOVS     r0,#0xa
        0x000026ee:    f000fe29    ..).    BL       iputc ; 0x3344
        0x000026f2:    1c64        d.      ADDS     r4,r4,#1
        0x000026f4:    2c50        P,      CMP      r4,#0x50
        0x000026f6:    d3f9        ..      BCC      0x26ec ; clr + 4
        0x000026f8:    200d        .       MOVS     r0,#0xd
        0x000026fa:    f000fe23    ..#.    BL       iputc ; 0x3344
        0x000026fe:    bd10        ..      POP      {r4,pc}
    i.dealFlashEvent
    dealFlashEvent
        0x00002700:    b5f8        ..      PUSH     {r3-r7,lr}
        0x00002702:    4f87        .O      LDR      r7,[pc,#540] ; [0x2920] = 0x2000012c
        0x00002704:    4605        .F      MOV      r5,r0
        0x00002706:    4638        8F      MOV      r0,r7
        0x00002708:    3080        .0      ADDS     r0,r0,#0x80
        0x0000270a:    6800        .h      LDR      r0,[r0,#0]
        0x0000270c:    460c        .F      MOV      r4,r1
        0x0000270e:    4684        .F      MOV      r12,r0
        0x00002710:    4639        9F      MOV      r1,r7
        0x00002712:    6988        .i      LDR      r0,[r1,#0x18]
        0x00002714:    6a3b        ;j      LDR      r3,[r7,#0x20]
        0x00002716:    4686        .F      MOV      lr,r0
        0x00002718:    6f8a        .o      LDR      r2,[r1,#0x78]
        0x0000271a:    6fc8        .o      LDR      r0,[r1,#0x7c]
        0x0000271c:    2600        .&      MOVS     r6,#0
        0x0000271e:    6949        Ii      LDR      r1,[r1,#0x14]
        0x00002720:    2b00        .+      CMP      r3,#0
        0x00002722:    d00f        ..      BEQ      0x2744 ; dealFlashEvent + 68
        0x00002724:    69ff        .i      LDR      r7,[r7,#0x1c]
        0x00002726:    42bb        .B      CMP      r3,r7
        0x00002728:    d26f        o.      BCS      0x280a ; dealFlashEvent + 266
        0x0000272a:    4b7d        }K      LDR      r3,[pc,#500] ; [0x2920] = 0x2000012c
        0x0000272c:    4661        aF      MOV      r1,r12
        0x0000272e:    3380        .3      ADDS     r3,r3,#0x80
        0x00002730:    2900        .)      CMP      r1,#0
        0x00002732:    d03a        :.      BEQ      0x27aa ; dealFlashEvent + 170
        0x00002734:    601e        .`      STR      r6,[r3,#0]
        0x00002736:    497a        zI      LDR      r1,[pc,#488] ; [0x2920] = 0x2000012c
        0x00002738:    602a        *`      STR      r2,[r5,#0]
        0x0000273a:    6020         `      STR      r0,[r4,#0]
        0x0000273c:    6a08        .j      LDR      r0,[r1,#0x20]
        0x0000273e:    1c40        @.      ADDS     r0,r0,#1
        0x00002740:    6208        .b      STR      r0,[r1,#0x20]
        0x00002742:    bdf8        ..      POP      {r3-r7,pc}
        0x00002744:    4663        cF      MOV      r3,r12
        0x00002746:    2b00        .+      CMP      r3,#0
        0x00002748:    d008        ..      BEQ      0x275c ; dealFlashEvent + 92
        0x0000274a:    4975        uI      LDR      r1,[pc,#468] ; [0x2920] = 0x2000012c
        0x0000274c:    3180        .1      ADDS     r1,r1,#0x80
        0x0000274e:    600e        .`      STR      r6,[r1,#0]
        0x00002750:    602a        *`      STR      r2,[r5,#0]
        0x00002752:    6020         `      STR      r0,[r4,#0]
        0x00002754:    6a38        8j      LDR      r0,[r7,#0x20]
        0x00002756:    1c40        @.      ADDS     r0,r0,#1
        0x00002758:    6238        8b      STR      r0,[r7,#0x20]
        0x0000275a:    bdf8        ..      POP      {r3-r7,pc}
        0x0000275c:    4b70        pK      LDR      r3,[pc,#448] ; [0x2920] = 0x2000012c
        0x0000275e:    2001        .       MOVS     r0,#1
        0x00002760:    3380        .3      ADDS     r3,r3,#0x80
        0x00002762:    6018        .`      STR      r0,[r3,#0]
        0x00002764:    889a        ..      LDRH     r2,[r3,#4]
        0x00002766:    0410        ..      LSLS     r0,r2,#16
        0x00002768:    6738        8g      STR      r0,[r7,#0x70]
        0x0000276a:    8918        ..      LDRH     r0,[r3,#8]
        0x0000276c:    0403        ..      LSLS     r3,r0,#16
        0x0000276e:    677b        {g      STR      r3,[r7,#0x74]
        0x00002770:    4b6c        lK      LDR      r3,[pc,#432] ; [0x2924] = 0x2000166c
        0x00002772:    545a        ZT      STRB     r2,[r3,r1]
        0x00002774:    1c49        I.      ADDS     r1,r1,#1
        0x00002776:    1212        ..      ASRS     r2,r2,#8
        0x00002778:    545a        ZT      STRB     r2,[r3,r1]
        0x0000277a:    1c49        I.      ADDS     r1,r1,#1
        0x0000277c:    5458        XT      STRB     r0,[r3,r1]
        0x0000277e:    1c49        I.      ADDS     r1,r1,#1
        0x00002780:    1200        ..      ASRS     r0,r0,#8
        0x00002782:    5458        XT      STRB     r0,[r3,r1]
        0x00002784:    1c49        I.      ADDS     r1,r1,#1
        0x00002786:    20ff        .       MOVS     r0,#0xff
        0x00002788:    3001        .0      ADDS     r0,#1
        0x0000278a:    6179        ya      STR      r1,[r7,#0x14]
        0x0000278c:    4281        .B      CMP      r1,r0
        0x0000278e:    d105        ..      BNE      0x279c ; dealFlashEvent + 156
        0x00002790:    617e        ~a      STR      r6,[r7,#0x14]
        0x00002792:    4606        .F      MOV      r6,r0
        0x00002794:    4601        .F      MOV      r1,r0
        0x00002796:    461a        .F      MOV      r2,r3
        0x00002798:    4670        pF      MOV      r0,lr
        0x0000279a:    e09b        ..      B        0x28d4 ; dealFlashEvent + 468
        0x0000279c:    6f38        8o      LDR      r0,[r7,#0x70]
        0x0000279e:    6028        (`      STR      r0,[r5,#0]
        0x000027a0:    6f79        yo      LDR      r1,[r7,#0x74]
        0x000027a2:    6021        !`      STR      r1,[r4,#0]
        0x000027a4:    67f9        .g      STR      r1,[r7,#0x7c]
        0x000027a6:    67b8        .g      STR      r0,[r7,#0x78]
        0x000027a8:    bdf8        ..      POP      {r3-r7,pc}
        0x000027aa:    495d        ]I      LDR      r1,[pc,#372] ; [0x2920] = 0x2000012c
        0x000027ac:    2001        .       MOVS     r0,#1
        0x000027ae:    3180        .1      ADDS     r1,r1,#0x80
        0x000027b0:    6008        .`      STR      r0,[r1,#0]
        0x000027b2:    2108        .!      MOVS     r1,#8
        0x000027b4:    20ff        .       MOVS     r0,#0xff
        0x000027b6:    f001fe7d    ..}.    BL       spiSendWord ; 0x44b4
        0x000027ba:    485b        [H      LDR      r0,[pc,#364] ; [0x2928] = 0x40130000
        0x000027bc:    6900        .i      LDR      r0,[r0,#0x10]
        0x000027be:    4958        XI      LDR      r1,[pc,#352] ; [0x2920] = 0x2000012c
        0x000027c0:    b2c3        ..      UXTB     r3,r0
        0x000027c2:    6a48        Hj      LDR      r0,[r1,#0x24]
        0x000027c4:    071a        ..      LSLS     r2,r3,#28
        0x000027c6:    1c40        @.      ADDS     r0,r0,#1
        0x000027c8:    6248        Hb      STR      r0,[r1,#0x24]
        0x000027ca:    2006        .       MOVS     r0,#6
        0x000027cc:    5608        .V      LDRSB    r0,[r1,r0]
        0x000027ce:    0f12        ..      LSRS     r2,r2,#28
        0x000027d0:    4684        .F      MOV      r12,r0
        0x000027d2:    0041        A.      LSLS     r1,r0,#1
        0x000027d4:    4852        RH      LDR      r0,[pc,#328] ; [0x2920] = 0x2000012c
        0x000027d6:    30a8        .0      ADDS     r0,r0,#0xa8
        0x000027d8:    5a41        AZ      LDRH     r1,[r0,r1]
        0x000027da:    08c8        ..      LSRS     r0,r1,#3
        0x000027dc:    0757        W.      LSLS     r7,r2,#29
        0x000027de:    d500        ..      BPL      0x27e2 ; dealFlashEvent + 226
        0x000027e0:    1840        @.      ADDS     r0,r0,r1
        0x000027e2:    0797        ..      LSLS     r7,r2,#30
        0x000027e4:    d501        ..      BPL      0x27ea ; dealFlashEvent + 234
        0x000027e6:    084f        O.      LSRS     r7,r1,#1
        0x000027e8:    1838        8.      ADDS     r0,r7,r0
        0x000027ea:    07d7        ..      LSLS     r7,r2,#31
        0x000027ec:    d001        ..      BEQ      0x27f2 ; dealFlashEvent + 242
        0x000027ee:    0889        ..      LSRS     r1,r1,#2
        0x000027f0:    1808        ..      ADDS     r0,r1,r0
        0x000027f2:    0711        ..      LSLS     r1,r2,#28
        0x000027f4:    d500        ..      BPL      0x27f8 ; dealFlashEvent + 248
        0x000027f6:    4240        @B      RSBS     r0,r0,#0
        0x000027f8:    4f49        IO      LDR      r7,[pc,#292] ; [0x2920] = 0x2000012c
        0x000027fa:    3780        .7      ADDS     r7,r7,#0x80
        0x000027fc:    6879        yh      LDR      r1,[r7,#4]
        0x000027fe:    1809        ..      ADDS     r1,r1,r0
        0x00002800:    484a        JH      LDR      r0,[pc,#296] ; [0x292c] = 0x7fff
        0x00002802:    4281        .B      CMP      r1,r0
        0x00002804:    dd02        ..      BLE      0x280c ; dealFlashEvent + 268
        0x00002806:    4601        .F      MOV      r1,r0
        0x00002808:    e005        ..      B        0x2816 ; dealFlashEvent + 278
        0x0000280a:    e06e        n.      B        0x28ea ; dealFlashEvent + 490
        0x0000280c:    4847        GH      LDR      r0,[pc,#284] ; [0x292c] = 0x7fff
        0x0000280e:    43c0        .C      MVNS     r0,r0
        0x00002810:    4281        .B      CMP      r1,r0
        0x00002812:    da00        ..      BGE      0x2816 ; dealFlashEvent + 278
        0x00002814:    4601        .F      MOV      r1,r0
        0x00002816:    4842        BH      LDR      r0,[pc,#264] ; [0x2920] = 0x2000012c
        0x00002818:    3080        .0      ADDS     r0,r0,#0x80
        0x0000281a:    6041        A`      STR      r1,[r0,#4]
        0x0000281c:    3018        .0      ADDS     r0,r0,#0x18
        0x0000281e:    5c82        .\      LDRB     r2,[r0,r2]
        0x00002820:    3898        .8      SUBS     r0,r0,#0x98
        0x00002822:    4462        bD      ADD      r2,r2,r12
        0x00002824:    b252        R.      SXTB     r2,r2
        0x00002826:    7182        .q      STRB     r2,[r0,#6]
        0x00002828:    2a00        .*      CMP      r2,#0
        0x0000282a:    da01        ..      BGE      0x2830 ; dealFlashEvent + 304
        0x0000282c:    7186        .q      STRB     r6,[r0,#6]
        0x0000282e:    e003        ..      B        0x2838 ; dealFlashEvent + 312
        0x00002830:    2a58        X*      CMP      r2,#0x58
        0x00002832:    dd01        ..      BLE      0x2838 ; dealFlashEvent + 312
        0x00002834:    2258        X"      MOVS     r2,#0x58
        0x00002836:    7182        .q      STRB     r2,[r0,#6]
        0x00002838:    091a        ..      LSRS     r2,r3,#4
        0x0000283a:    4b39        9K      LDR      r3,[pc,#228] ; [0x2920] = 0x2000012c
        0x0000283c:    2007        .       MOVS     r0,#7
        0x0000283e:    5618        .V      LDRSB    r0,[r3,r0]
        0x00002840:    4684        .F      MOV      r12,r0
        0x00002842:    0043        C.      LSLS     r3,r0,#1
        0x00002844:    4836        6H      LDR      r0,[pc,#216] ; [0x2920] = 0x2000012c
        0x00002846:    30a8        .0      ADDS     r0,r0,#0xa8
        0x00002848:    5ac3        .Z      LDRH     r3,[r0,r3]
        0x0000284a:    08d8        ..      LSRS     r0,r3,#3
        0x0000284c:    0757        W.      LSLS     r7,r2,#29
        0x0000284e:    d500        ..      BPL      0x2852 ; dealFlashEvent + 338
        0x00002850:    18c0        ..      ADDS     r0,r0,r3
        0x00002852:    0797        ..      LSLS     r7,r2,#30
        0x00002854:    d501        ..      BPL      0x285a ; dealFlashEvent + 346
        0x00002856:    085f        _.      LSRS     r7,r3,#1
        0x00002858:    1838        8.      ADDS     r0,r7,r0
        0x0000285a:    07d7        ..      LSLS     r7,r2,#31
        0x0000285c:    d001        ..      BEQ      0x2862 ; dealFlashEvent + 354
        0x0000285e:    089b        ..      LSRS     r3,r3,#2
        0x00002860:    1818        ..      ADDS     r0,r3,r0
        0x00002862:    0713        ..      LSLS     r3,r2,#28
        0x00002864:    d500        ..      BPL      0x2868 ; dealFlashEvent + 360
        0x00002866:    4240        @B      RSBS     r0,r0,#0
        0x00002868:    4f2d        -O      LDR      r7,[pc,#180] ; [0x2920] = 0x2000012c
        0x0000286a:    3780        .7      ADDS     r7,r7,#0x80
        0x0000286c:    68bb        .h      LDR      r3,[r7,#8]
        0x0000286e:    1818        ..      ADDS     r0,r3,r0
        0x00002870:    4b2e        .K      LDR      r3,[pc,#184] ; [0x292c] = 0x7fff
        0x00002872:    4298        .B      CMP      r0,r3
        0x00002874:    dc02        ..      BGT      0x287c ; dealFlashEvent + 380
        0x00002876:    43db        .C      MVNS     r3,r3
        0x00002878:    4298        .B      CMP      r0,r3
        0x0000287a:    da00        ..      BGE      0x287e ; dealFlashEvent + 382
        0x0000287c:    4618        .F      MOV      r0,r3
        0x0000287e:    4b28        (K      LDR      r3,[pc,#160] ; [0x2920] = 0x2000012c
        0x00002880:    60b8        .`      STR      r0,[r7,#8]
        0x00002882:    3398        .3      ADDS     r3,r3,#0x98
        0x00002884:    5c9a        .\      LDRB     r2,[r3,r2]
        0x00002886:    4f26        &O      LDR      r7,[pc,#152] ; [0x2920] = 0x2000012c
        0x00002888:    4462        bD      ADD      r2,r2,r12
        0x0000288a:    b252        R.      SXTB     r2,r2
        0x0000288c:    71fa        .q      STRB     r2,[r7,#7]
        0x0000288e:    2a00        .*      CMP      r2,#0
        0x00002890:    da01        ..      BGE      0x2896 ; dealFlashEvent + 406
        0x00002892:    71fe        .q      STRB     r6,[r7,#7]
        0x00002894:    e003        ..      B        0x289e ; dealFlashEvent + 414
        0x00002896:    2a58        X*      CMP      r2,#0x58
        0x00002898:    dd01        ..      BLE      0x289e ; dealFlashEvent + 414
        0x0000289a:    2258        X"      MOVS     r2,#0x58
        0x0000289c:    71fa        .q      STRB     r2,[r7,#7]
        0x0000289e:    040a        ..      LSLS     r2,r1,#16
        0x000028a0:    673a        :g      STR      r2,[r7,#0x70]
        0x000028a2:    0402        ..      LSLS     r2,r0,#16
        0x000028a4:    677a        zg      STR      r2,[r7,#0x74]
        0x000028a6:    4b1f        .K      LDR      r3,[pc,#124] ; [0x2924] = 0x2000166c
        0x000028a8:    697a        zi      LDR      r2,[r7,#0x14]
        0x000028aa:    5499        .T      STRB     r1,[r3,r2]
        0x000028ac:    1c52        R.      ADDS     r2,r2,#1
        0x000028ae:    1209        ..      ASRS     r1,r1,#8
        0x000028b0:    5499        .T      STRB     r1,[r3,r2]
        0x000028b2:    1c52        R.      ADDS     r2,r2,#1
        0x000028b4:    5498        .T      STRB     r0,[r3,r2]
        0x000028b6:    1c52        R.      ADDS     r2,r2,#1
        0x000028b8:    1200        ..      ASRS     r0,r0,#8
        0x000028ba:    5498        .T      STRB     r0,[r3,r2]
        0x000028bc:    1c52        R.      ADDS     r2,r2,#1
        0x000028be:    20ff        .       MOVS     r0,#0xff
        0x000028c0:    3001        .0      ADDS     r0,#1
        0x000028c2:    617a        za      STR      r2,[r7,#0x14]
        0x000028c4:    4282        .B      CMP      r2,r0
        0x000028c6:    d000        ..      BEQ      0x28ca ; dealFlashEvent + 458
        0x000028c8:    e768        h.      B        0x279c ; dealFlashEvent + 156
        0x000028ca:    617e        ~a      STR      r6,[r7,#0x14]
        0x000028cc:    4606        .F      MOV      r6,r0
        0x000028ce:    4601        .F      MOV      r1,r0
        0x000028d0:    461a        .F      MOV      r2,r3
        0x000028d2:    69b8        .i      LDR      r0,[r7,#0x18]
        0x000028d4:    f001fd36    ..6.    BL       spiFlashPageWrite ; 0x4344
        0x000028d8:    69b8        .i      LDR      r0,[r7,#0x18]
        0x000028da:    4631        1F      MOV      r1,r6
        0x000028dc:    30ff        .0      ADDS     r0,r0,#0xff
        0x000028de:    3001        .0      ADDS     r0,#1
        0x000028e0:    61b8        .a      STR      r0,[r7,#0x18]
        0x000028e2:    4810        .H      LDR      r0,[pc,#64] ; [0x2924] = 0x2000166c
        0x000028e4:    f7fdfc51    ..Q.    BL       __aeabi_memclr ; 0x18a
        0x000028e8:    e758        X.      B        0x279c ; dealFlashEvent + 156
        0x000028ea:    4f0d        .O      LDR      r7,[pc,#52] ; [0x2920] = 0x2000012c
        0x000028ec:    4a0d        .J      LDR      r2,[pc,#52] ; [0x2924] = 0x2000166c
        0x000028ee:    61fe        .a      STR      r6,[r7,#0x1c]
        0x000028f0:    4670        pF      MOV      r0,lr
        0x000028f2:    623e        >b      STR      r6,[r7,#0x20]
        0x000028f4:    f001fd26    ..&.    BL       spiFlashPageWrite ; 0x4344
        0x000028f8:    617e        ~a      STR      r6,[r7,#0x14]
        0x000028fa:    480b        .H      LDR      r0,[pc,#44] ; [0x2928] = 0x40130000
        0x000028fc:    61be        .a      STR      r6,[r7,#0x18]
        0x000028fe:    6881        .h      LDR      r1,[r0,#8]
        0x00002900:    0849        I.      LSRS     r1,r1,#1
        0x00002902:    0049        I.      LSLS     r1,r1,#1
        0x00002904:    6081        .`      STR      r1,[r0,#8]
        0x00002906:    602e        .`      STR      r6,[r5,#0]
        0x00002908:    6026        &`      STR      r6,[r4,#0]
        0x0000290a:    f7fefb8d    ....    BL       I2S_CLR_RXFIFO ; 0x1028
        0x0000290e:    f7fefb95    ....    BL       I2S_CLR_TXFIFO ; 0x103c
        0x00002912:    707e        ~p      STRB     r6,[r7,#1]
        0x00002914:    2002        .       MOVS     r0,#2
        0x00002916:    7038        8p      STRB     r0,[r7,#0]
        0x00002918:    4906        .I      LDR      r1,[pc,#24] ; [0x2934] = 0x20000040
        0x0000291a:    4805        .H      LDR      r0,[pc,#20] ; [0x2930] = 0x3db5
        0x0000291c:    6008        .`      STR      r0,[r1,#0]
        0x0000291e:    bdf8        ..      POP      {r3-r7,pc}
    $d
        0x00002920:    2000012c    ,..     DCD    536871212
        0x00002924:    2000166c    l..     DCD    536876652
        0x00002928:    40130000    ...@    DCD    1074987008
        0x0000292c:    00007fff    ....    DCD    32767
        0x00002930:    00003db5    .=..    DCD    15797
        0x00002934:    20000040    @..     DCD    536870976
    $t
    i.dealMuContainer
    dealMuContainer
        0x00002938:    b5f8        ..      PUSH     {r3-r7,lr}
        0x0000293a:    4c17        .L      LDR      r4,[pc,#92] ; [0x2998] = 0x200000a4
        0x0000293c:    2700        .'      MOVS     r7,#0
        0x0000293e:    4d17        .M      LDR      r5,[pc,#92] ; [0x299c] = 0x20000724
        0x00002940:    6267        gb      STR      r7,[r4,#0x24]
        0x00002942:    6a63        cj      LDR      r3,[r4,#0x24]
        0x00002944:    0058        X.      LSLS     r0,r3,#1
        0x00002946:    1941        A.      ADDS     r1,r0,r5
        0x00002948:    8b0a        ..      LDRH     r2,[r1,#0x18]
        0x0000294a:    2a00        .*      CMP      r2,#0
        0x0000294c:    d01c        ..      BEQ      0x2988 ; dealMuContainer + 80
        0x0000294e:    5a2e        .Z      LDRH     r6,[r5,r0]
        0x00002950:    2e00        ..      CMP      r6,#0
        0x00002952:    d019        ..      BEQ      0x2988 ; dealMuContainer + 80
        0x00002954:    1e52        R.      SUBS     r2,r2,#1
        0x00002956:    830a        ..      STRH     r2,[r1,#0x18]
        0x00002958:    18e9        ..      ADDS     r1,r5,r3
        0x0000295a:    3120         1      ADDS     r1,r1,#0x20
        0x0000295c:    7f09        ..      LDRB     r1,[r1,#0x1c]
        0x0000295e:    2905        .)      CMP      r1,#5
        0x00002960:    d104        ..      BNE      0x296c ; dealMuContainer + 52
        0x00002962:    5a2a        *Z      LDRH     r2,[r5,r0]
        0x00002964:    2100        .!      MOVS     r1,#0
        0x00002966:    2005        .       MOVS     r0,#5
        0x00002968:    f7fdfdfe    ....    BL       DWHP83SendCmd ; 0x568
        0x0000296c:    6a61        aj      LDR      r1,[r4,#0x24]
        0x0000296e:    2230        0"      MOVS     r2,#0x30
        0x00002970:    1868        h.      ADDS     r0,r5,r1
        0x00002972:    5c12        .\      LDRB     r2,[r2,r0]
        0x00002974:    2a04        .*      CMP      r2,#4
        0x00002976:    d109        ..      BNE      0x298c ; dealMuContainer + 84
        0x00002978:    0049        I.      LSLS     r1,r1,#1
        0x0000297a:    5a6a        jZ      LDRH     r2,[r5,r1]
        0x0000297c:    3040        @0      ADDS     r0,r0,#0x40
        0x0000297e:    7d01        .}      LDRB     r1,[r0,#0x14]
        0x00002980:    7a00        .z      LDRB     r0,[r0,#8]
        0x00002982:    f7fdff17    ....    BL       DWPH83VolumeChange ; 0x7b4
        0x00002986:    e001        ..      B        0x298c ; dealMuContainer + 84
        0x00002988:    522f        /R      STRH     r7,[r5,r0]
        0x0000298a:    830f        ..      STRH     r7,[r1,#0x18]
        0x0000298c:    6a60        `j      LDR      r0,[r4,#0x24]
        0x0000298e:    1c40        @.      ADDS     r0,r0,#1
        0x00002990:    6260        `b      STR      r0,[r4,#0x24]
        0x00002992:    280c        .(      CMP      r0,#0xc
        0x00002994:    d3d5        ..      BCC      0x2942 ; dealMuContainer + 10
        0x00002996:    bdf8        ..      POP      {r3-r7,pc}
    $d
        0x00002998:    200000a4    ...     DCD    536871076
        0x0000299c:    20000724    $..     DCD    536872740
    $t
    i.dealPowerKey
    dealPowerKey
        0x000029a0:    b5f8        ..      PUSH     {r3-r7,lr}
        0x000029a2:    480f        .H      LDR      r0,[pc,#60] ; [0x29e0] = 0x2000005c
        0x000029a4:    2400        .$      MOVS     r4,#0
        0x000029a6:    6004        .`      STR      r4,[r0,#0]
        0x000029a8:    2005        .       MOVS     r0,#5
        0x000029aa:    0700        ..      LSLS     r0,r0,#28
        0x000029ac:    6840        @h      LDR      r0,[r0,#4]
        0x000029ae:    4626        &F      MOV      r6,r4
        0x000029b0:    2120         !      MOVS     r1,#0x20
        0x000029b2:    4208        .B      TST      r0,r1
        0x000029b4:    d000        ..      BEQ      0x29b8 ; dealPowerKey + 24
        0x000029b6:    2450        P$      MOVS     r4,#0x50
        0x000029b8:    4d0a        .M      LDR      r5,[pc,#40] ; [0x29e4] = 0x500042a0
        0x000029ba:    4f0a        .O      LDR      r7,[pc,#40] ; [0x29e4] = 0x500042a0
        0x000029bc:    3d40        @=      SUBS     r5,r5,#0x40
        0x000029be:    6828        (h      LDR      r0,[r5,#0]
        0x000029c0:    2800        .(      CMP      r0,#0
        0x000029c2:    d003        ..      BEQ      0x29cc ; dealPowerKey + 44
        0x000029c4:    2005        .       MOVS     r0,#5
        0x000029c6:    f001fdd5    ....    BL       sysDelayMs ; 0x4574
        0x000029ca:    e004        ..      B        0x29d6 ; dealPowerKey + 54
        0x000029cc:    603e        >`      STR      r6,[r7,#0]
        0x000029ce:    2400        .$      MOVS     r4,#0
        0x000029d0:    6828        (h      LDR      r0,[r5,#0]
        0x000029d2:    2800        .(      CMP      r0,#0
        0x000029d4:    d0fc        ..      BEQ      0x29d0 ; dealPowerKey + 48
        0x000029d6:    1c64        d.      ADDS     r4,r4,#1
        0x000029d8:    2c64        d,      CMP      r4,#0x64
        0x000029da:    d3f0        ..      BCC      0x29be ; dealPowerKey + 30
        0x000029dc:    bdf8        ..      POP      {r3-r7,pc}
    $d
        0x000029de:    0000        ..      DCW    0
        0x000029e0:    2000005c    \..     DCD    536871004
        0x000029e4:    500042a0    .B.P    DCD    1342194336
    $t
    i.delStandbytkey
    delStandbytkey
        0x000029e8:    b510        ..      PUSH     {r4,lr}
        0x000029ea:    2800        .(      CMP      r0,#0
        0x000029ec:    d101        ..      BNE      0x29f2 ; delStandbytkey + 10
        0x000029ee:    f001f8d3    ....    BL       outStandby ; 0x3b98
        0x000029f2:    bd10        ..      POP      {r4,pc}
    i.delStartkey
    delStartkey
        0x000029f4:    b5f8        ..      PUSH     {r3-r7,lr}
        0x000029f6:    2600        .&      MOVS     r6,#0
        0x000029f8:    4635        5F      MOV      r5,r6
        0x000029fa:    4634        4F      MOV      r4,r6
        0x000029fc:    4637        7F      MOV      r7,r6
        0x000029fe:    28ff        .(      CMP      r0,#0xff
        0x00002a00:    d003        ..      BEQ      0x2a0a ; delStartkey + 22
        0x00002a02:    49e7        .I      LDR      r1,[pc,#924] ; [0x2da0] = 0x200002e0
        0x00002a04:    600f        .`      STR      r7,[r1,#0]
        0x00002a06:    49e7        .I      LDR      r1,[pc,#924] ; [0x2da4] = 0x200002d8
        0x00002a08:    600f        .`      STR      r7,[r1,#0]
        0x00002a0a:    221e        ."      MOVS     r2,#0x1e
        0x00002a0c:    4be6        .K      LDR      r3,[pc,#920] ; [0x2da8] = 0x200002e4
        0x00002a0e:    49e7        .I      LDR      r1,[pc,#924] ; [0x2dac] = 0x20000038
        0x00002a10:    2808        .(      CMP      r0,#8
        0x00002a12:    d075        u.      BEQ      0x2b00 ; delStartkey + 268
        0x00002a14:    dc11        ..      BGT      0x2a3a ; delStartkey + 70
        0x00002a16:    2800        .(      CMP      r0,#0
        0x00002a18:    d020         .      BEQ      0x2a5c ; delStartkey + 104
        0x00002a1a:    2804        .(      CMP      r0,#4
        0x00002a1c:    d071        q.      BEQ      0x2b02 ; delStartkey + 270
        0x00002a1e:    2806        .(      CMP      r0,#6
        0x00002a20:    d070        p.      BEQ      0x2b04 ; delStartkey + 272
        0x00002a22:    2807        .(      CMP      r0,#7
        0x00002a24:    d119        ..      BNE      0x2a5a ; delStartkey + 102
        0x00002a26:    4de2        .M      LDR      r5,[pc,#904] ; [0x2db0] = 0x200002d0
        0x00002a28:    600f        .`      STR      r7,[r1,#0]
        0x00002a2a:    7828        (x      LDRB     r0,[r5,#0]
        0x00002a2c:    f000fcde    ....    BL       ledColorSet ; 0x33ec
        0x00002a30:    48e0        .H      LDR      r0,[pc,#896] ; [0x2db4] = 0x20000060
        0x00002a32:    4ee1        .N      LDR      r6,[pc,#900] ; [0x2db8] = 0x20000075
        0x00002a34:    60c7        .`      STR      r7,[r0,#0xc]
        0x00002a36:    7147        Gq      STRB     r7,[r0,#5]
        0x00002a38:    e088        ..      B        0x2b4c ; delStartkey + 344
        0x00002a3a:    2809        .(      CMP      r0,#9
        0x00002a3c:    d06f        o.      BEQ      0x2b1e ; delStartkey + 298
        0x00002a3e:    280a        .(      CMP      r0,#0xa
        0x00002a40:    d023        #.      BEQ      0x2a8a ; delStartkey + 150
        0x00002a42:    280c        .(      CMP      r0,#0xc
        0x00002a44:    d109        ..      BNE      0x2a5a ; delStartkey + 102
        0x00002a46:    601a        .`      STR      r2,[r3,#0]
        0x00002a48:    600f        .`      STR      r7,[r1,#0]
        0x00002a4a:    f7fff91d    ....    BL       ampDecVolume ; 0x1c88
        0x00002a4e:    48d9        .H      LDR      r0,[pc,#868] ; [0x2db4] = 0x20000060
        0x00002a50:    60c7        .`      STR      r7,[r0,#0xc]
        0x00002a52:    7147        Gq      STRB     r7,[r0,#5]
        0x00002a54:    200d        .       MOVS     r0,#0xd
        0x00002a56:    f000ff92    ....    BL       logEvent ; 0x397e
        0x00002a5a:    bdf8        ..      POP      {r3-r7,pc}
        0x00002a5c:    200b        .       MOVS     r0,#0xb
        0x00002a5e:    f000ff8e    ....    BL       logEvent ; 0x397e
        0x00002a62:    247d        }$      MOVS     r4,#0x7d
        0x00002a64:    00e4        ..      LSLS     r4,r4,#3
        0x00002a66:    4dd5        .M      LDR      r5,[pc,#852] ; [0x2dbc] = 0x2000001f
        0x00002a68:    e00b        ..      B        0x2a82 ; delStartkey + 142
        0x00002a6a:    2001        .       MOVS     r0,#1
        0x00002a6c:    f001fd82    ....    BL       sysDelayMs ; 0x4574
        0x00002a70:    1c76        v.      ADDS     r6,r6,#1
        0x00002a72:    42a6        .B      CMP      r6,r4
        0x00002a74:    d905        ..      BLS      0x2a82 ; delStartkey + 142
        0x00002a76:    2000        .       MOVS     r0,#0
        0x00002a78:    f000fcb8    ....    BL       ledColorSet ; 0x33ec
        0x00002a7c:    f000fa30    ..0.    BL       enterStandby ; 0x2ee0
        0x00002a80:    bdf8        ..      POP      {r3-r7,pc}
        0x00002a82:    7828        (x      LDRB     r0,[r5,#0]
        0x00002a84:    2800        .(      CMP      r0,#0
        0x00002a86:    d0f0        ..      BEQ      0x2a6a ; delStartkey + 118
        0x00002a88:    bdf8        ..      POP      {r3-r7,pc}
        0x00002a8a:    601a        .`      STR      r2,[r3,#0]
        0x00002a8c:    600f        .`      STR      r7,[r1,#0]
        0x00002a8e:    f7fff8b7    ....    BL       ampAddVolume ; 0x1c00
        0x00002a92:    48c8        .H      LDR      r0,[pc,#800] ; [0x2db4] = 0x20000060
        0x00002a94:    60c7        .`      STR      r7,[r0,#0xc]
        0x00002a96:    7147        Gq      STRB     r7,[r0,#5]
        0x00002a98:    200c        .       MOVS     r0,#0xc
        0x00002a9a:    e7dc        ..      B        0x2a56 ; delStartkey + 98
        0x00002a9c:    2014        .       MOVS     r0,#0x14
        0x00002a9e:    f001fd69    ..i.    BL       sysDelayMs ; 0x4574
        0x00002aa2:    20e1        .       MOVS     r0,#0xe1
        0x00002aa4:    1c64        d.      ADDS     r4,r4,#1
        0x00002aa6:    0080        ..      LSLS     r0,r0,#2
        0x00002aa8:    4284        .B      CMP      r4,r0
        0x00002aaa:    d92c        ,.      BLS      0x2b06 ; delStartkey + 274
        0x00002aac:    48c1        .H      LDR      r0,[pc,#772] ; [0x2db4] = 0x20000060
        0x00002aae:    7880        .x      LDRB     r0,[r0,#2]
        0x00002ab0:    2800        .(      CMP      r0,#0
        0x00002ab2:    d012        ..      BEQ      0x2ada ; delStartkey + 230
        0x00002ab4:    2001        .       MOVS     r0,#1
        0x00002ab6:    f000fc99    ....    BL       ledColorSet ; 0x33ec
        0x00002aba:    2002        .       MOVS     r0,#2
        0x00002abc:    f001f978    ..x.    BL       playMusic ; 0x3db0
        0x00002ac0:    49bf        .I      LDR      r1,[pc,#764] ; [0x2dc0] = 0x500042c8
        0x00002ac2:    2001        .       MOVS     r0,#1
        0x00002ac4:    6008        .`      STR      r0,[r1,#0]
        0x00002ac6:    207d        }       MOVS     r0,#0x7d
        0x00002ac8:    00c0        ..      LSLS     r0,r0,#3
        0x00002aca:    f001fd53    ..S.    BL       sysDelayMs ; 0x4574
        0x00002ace:    7828        (x      LDRB     r0,[r5,#0]
        0x00002ad0:    f000fc8c    ....    BL       ledColorSet ; 0x33ec
        0x00002ad4:    48b7        .H      LDR      r0,[pc,#732] ; [0x2db4] = 0x20000060
        0x00002ad6:    7087        .p      STRB     r7,[r0,#2]
        0x00002ad8:    e03c        <.      B        0x2b54 ; delStartkey + 352
        0x00002ada:    2002        .       MOVS     r0,#2
        0x00002adc:    f000fc86    ....    BL       ledColorSet ; 0x33ec
        0x00002ae0:    2003        .       MOVS     r0,#3
        0x00002ae2:    f001f965    ..e.    BL       playMusic ; 0x3db0
        0x00002ae6:    48b6        .H      LDR      r0,[pc,#728] ; [0x2dc0] = 0x500042c8
        0x00002ae8:    6007        .`      STR      r7,[r0,#0]
        0x00002aea:    207d        }       MOVS     r0,#0x7d
        0x00002aec:    00c0        ..      LSLS     r0,r0,#3
        0x00002aee:    f001fd41    ..A.    BL       sysDelayMs ; 0x4574
        0x00002af2:    7828        (x      LDRB     r0,[r5,#0]
        0x00002af4:    f000fc7a    ..z.    BL       ledColorSet ; 0x33ec
        0x00002af8:    49ae        .I      LDR      r1,[pc,#696] ; [0x2db4] = 0x20000060
        0x00002afa:    2001        .       MOVS     r0,#1
        0x00002afc:    7088        .p      STRB     r0,[r1,#2]
        0x00002afe:    e029        ).      B        0x2b54 ; delStartkey + 352
        0x00002b00:    e09f        ..      B        0x2c42 ; delStartkey + 590
        0x00002b02:    e09a        ..      B        0x2c3a ; delStartkey + 582
        0x00002b04:    e141        A.      B        0x2d8a ; delStartkey + 918
        0x00002b06:    2cc8        .,      CMP      r4,#0xc8
        0x00002b08:    d120         .      BNE      0x2b4c ; delStartkey + 344
        0x00002b0a:    48ae        .H      LDR      r0,[pc,#696] ; [0x2dc4] = 0x200006ee
        0x00002b0c:    7800        .x      LDRB     r0,[r0,#0]
        0x00002b0e:    2800        .(      CMP      r0,#0
        0x00002b10:    7830        0x      LDRB     r0,[r6,#0]
        0x00002b12:    d005        ..      BEQ      0x2b20 ; delStartkey + 300
        0x00002b14:    2800        .(      CMP      r0,#0
        0x00002b16:    d119        ..      BNE      0x2b4c ; delStartkey + 344
        0x00002b18:    f7fefd70    ..p.    BL       WB_reject_call ; 0x15fc
        0x00002b1c:    e01a        ..      B        0x2b54 ; delStartkey + 352
        0x00002b1e:    e113        ..      B        0x2d48 ; delStartkey + 852
        0x00002b20:    2800        .(      CMP      r0,#0
        0x00002b22:    d113        ..      BNE      0x2b4c ; delStartkey + 344
        0x00002b24:    48a8        .H      LDR      r0,[pc,#672] ; [0x2dc8] = 0x200006ec
        0x00002b26:    7800        .x      LDRB     r0,[r0,#0]
        0x00002b28:    2800        .(      CMP      r0,#0
        0x00002b2a:    d00f        ..      BEQ      0x2b4c ; delStartkey + 344
        0x00002b2c:    f7fefd57    ..W.    BL       WB_enter_pairing ; 0x15de
        0x00002b30:    2004        .       MOVS     r0,#4
        0x00002b32:    f001f93d    ..=.    BL       playMusic ; 0x3db0
        0x00002b36:    2002        .       MOVS     r0,#2
        0x00002b38:    f000fc58    ..X.    BL       ledColorSet ; 0x33ec
        0x00002b3c:    207d        }       MOVS     r0,#0x7d
        0x00002b3e:    00c0        ..      LSLS     r0,r0,#3
        0x00002b40:    f001fd18    ....    BL       sysDelayMs ; 0x4574
        0x00002b44:    7828        (x      LDRB     r0,[r5,#0]
        0x00002b46:    f000fc51    ..Q.    BL       ledColorSet ; 0x33ec
        0x00002b4a:    e003        ..      B        0x2b54 ; delStartkey + 352
        0x00002b4c:    489b        .H      LDR      r0,[pc,#620] ; [0x2dbc] = 0x2000001f
        0x00002b4e:    7800        .x      LDRB     r0,[r0,#0]
        0x00002b50:    2807        .(      CMP      r0,#7
        0x00002b52:    d0a3        ..      BEQ      0x2a9c ; delStartkey + 168
        0x00002b54:    4620         F      MOV      r0,r4
        0x00002b56:    38ff        .8      SUBS     r0,r0,#0xff
        0x00002b58:    21ff        .!      MOVS     r1,#0xff
        0x00002b5a:    38c4        .8      SUBS     r0,r0,#0xc4
        0x00002b5c:    31c2        .1      ADDS     r1,r1,#0xc2
        0x00002b5e:    4288        .B      CMP      r0,r1
        0x00002b60:    d81f        ..      BHI      0x2ba2 ; delStartkey + 430
        0x00002b62:    4c94        .L      LDR      r4,[pc,#592] ; [0x2db4] = 0x20000060
        0x00002b64:    78e0        .x      LDRB     r0,[r4,#3]
        0x00002b66:    2800        .(      CMP      r0,#0
        0x00002b68:    d00b        ..      BEQ      0x2b82 ; delStartkey + 398
        0x00002b6a:    2001        .       MOVS     r0,#1
        0x00002b6c:    f000fc3e    ..>.    BL       ledColorSet ; 0x33ec
        0x00002b70:    207d        }       MOVS     r0,#0x7d
        0x00002b72:    00c0        ..      LSLS     r0,r0,#3
        0x00002b74:    f001fcfe    ....    BL       sysDelayMs ; 0x4574
        0x00002b78:    7828        (x      LDRB     r0,[r5,#0]
        0x00002b7a:    f000fc37    ..7.    BL       ledColorSet ; 0x33ec
        0x00002b7e:    70e7        .p      STRB     r7,[r4,#3]
        0x00002b80:    bdf8        ..      POP      {r3-r7,pc}
        0x00002b82:    2002        .       MOVS     r0,#2
        0x00002b84:    f000fc32    ..2.    BL       ledColorSet ; 0x33ec
        0x00002b88:    207d        }       MOVS     r0,#0x7d
        0x00002b8a:    00c0        ..      LSLS     r0,r0,#3
        0x00002b8c:    f001fcf2    ....    BL       sysDelayMs ; 0x4574
        0x00002b90:    7828        (x      LDRB     r0,[r5,#0]
        0x00002b92:    f000fc2b    ..+.    BL       ledColorSet ; 0x33ec
        0x00002b96:    2001        .       MOVS     r0,#1
        0x00002b98:    70e0        .p      STRB     r0,[r4,#3]
        0x00002b9a:    2064        d       MOVS     r0,#0x64
        0x00002b9c:    f001fcea    ....    BL       sysDelayMs ; 0x4574
        0x00002ba0:    e01a        ..      B        0x2bd8 ; delStartkey + 484
        0x00002ba2:    4620         F      MOV      r0,r4
        0x00002ba4:    38ff        .8      SUBS     r0,r0,#0xff
        0x00002ba6:    38c4        .8      SUBS     r0,r0,#0xc4
        0x00002ba8:    d107        ..      BNE      0x2bba ; delStartkey + 454
        0x00002baa:    f000fc1f    ....    BL       ledColorSet ; 0x33ec
        0x00002bae:    2064        d       MOVS     r0,#0x64
        0x00002bb0:    f001fce0    ....    BL       sysDelayMs ; 0x4574
        0x00002bb4:    7828        (x      LDRB     r0,[r5,#0]
        0x00002bb6:    f000fc19    ....    BL       ledColorSet ; 0x33ec
        0x00002bba:    2c64        d,      CMP      r4,#0x64
        0x00002bbc:    d2e0        ..      BCS      0x2b80 ; delStartkey + 396
        0x00002bbe:    4c7d        }L      LDR      r4,[pc,#500] ; [0x2db4] = 0x20000060
        0x00002bc0:    78e0        .x      LDRB     r0,[r4,#3]
        0x00002bc2:    2800        .(      CMP      r0,#0
        0x00002bc4:    d00c        ..      BEQ      0x2be0 ; delStartkey + 492
        0x00002bc6:    2000        .       MOVS     r0,#0
        0x00002bc8:    f000fc10    ....    BL       ledColorSet ; 0x33ec
        0x00002bcc:    2064        d       MOVS     r0,#0x64
        0x00002bce:    f001fcd1    ....    BL       sysDelayMs ; 0x4574
        0x00002bd2:    7828        (x      LDRB     r0,[r5,#0]
        0x00002bd4:    f000fc0a    ....    BL       ledColorSet ; 0x33ec
        0x00002bd8:    2007        .       MOVS     r0,#7
        0x00002bda:    f001f8e9    ....    BL       playMusic ; 0x3db0
        0x00002bde:    bdf8        ..      POP      {r3-r7,pc}
        0x00002be0:    4878        xH      LDR      r0,[pc,#480] ; [0x2dc4] = 0x200006ee
        0x00002be2:    7800        .x      LDRB     r0,[r0,#0]
        0x00002be4:    2802        .(      CMP      r0,#2
        0x00002be6:    d002        ..      BEQ      0x2bee ; delStartkey + 506
        0x00002be8:    2804        .(      CMP      r0,#4
        0x00002bea:    d00e        ..      BEQ      0x2c0a ; delStartkey + 534
        0x00002bec:    e010        ..      B        0x2c10 ; delStartkey + 540
        0x00002bee:    7830        0x      LDRB     r0,[r6,#0]
        0x00002bf0:    2800        .(      CMP      r0,#0
        0x00002bf2:    d10d        ..      BNE      0x2c10 ; delStartkey + 540
        0x00002bf4:    f7fefcf8    ....    BL       WB_open_call ; 0x15e8
        0x00002bf8:    79e0        .y      LDRB     r0,[r4,#7]
        0x00002bfa:    2800        .(      CMP      r0,#0
        0x00002bfc:    d1ef        ..      BNE      0x2bde ; delStartkey + 490
        0x00002bfe:    213f        ?!      MOVS     r1,#0x3f
        0x00002c00:    f7fff974    ..t.    BL       ampSendCallEqs_38 ; 0x1eec
        0x00002c04:    2001        .       MOVS     r0,#1
        0x00002c06:    71e0        .q      STRB     r0,[r4,#7]
        0x00002c08:    bdf8        ..      POP      {r3-r7,pc}
        0x00002c0a:    7830        0x      LDRB     r0,[r6,#0]
        0x00002c0c:    2800        .(      CMP      r0,#0
        0x00002c0e:    d009        ..      BEQ      0x2c24 ; delStartkey + 560
        0x00002c10:    f7fefcef    ....    BL       WB_play_pause ; 0x15f2
        0x00002c14:    2000        .       MOVS     r0,#0
        0x00002c16:    f000fbe9    ....    BL       ledColorSet ; 0x33ec
        0x00002c1a:    2064        d       MOVS     r0,#0x64
        0x00002c1c:    f001fcaa    ....    BL       sysDelayMs ; 0x4574
        0x00002c20:    7828        (x      LDRB     r0,[r5,#0]
        0x00002c22:    e01d        ..      B        0x2c60 ; delStartkey + 620
        0x00002c24:    f7fefcd6    ....    BL       WB_close_call ; 0x15d4
        0x00002c28:    79e0        .y      LDRB     r0,[r4,#7]
        0x00002c2a:    2801        .(      CMP      r0,#1
        0x00002c2c:    d1ec        ..      BNE      0x2c08 ; delStartkey + 532
        0x00002c2e:    213f        ?!      MOVS     r1,#0x3f
        0x00002c30:    2000        .       MOVS     r0,#0
        0x00002c32:    f7fff9c3    ....    BL       ampSendEqs_38 ; 0x1fbc
        0x00002c36:    71e7        .q      STRB     r7,[r4,#7]
        0x00002c38:    bdf8        ..      POP      {r3-r7,pc}
        0x00002c3a:    601a        .`      STR      r2,[r3,#0]
        0x00002c3c:    f7fff92c    ..,.    BL       ampMuteSwitch ; 0x1e98
        0x00002c40:    bdf8        ..      POP      {r3-r7,pc}
        0x00002c42:    4c5c        \L      LDR      r4,[pc,#368] ; [0x2db4] = 0x20000060
        0x00002c44:    600f        .`      STR      r7,[r1,#0]
        0x00002c46:    60e7        .`      STR      r7,[r4,#0xc]
        0x00002c48:    7167        gq      STRB     r7,[r4,#5]
        0x00002c4a:    78e0        .x      LDRB     r0,[r4,#3]
        0x00002c4c:    2800        .(      CMP      r0,#0
        0x00002c4e:    d00a        ..      BEQ      0x2c66 ; delStartkey + 626
        0x00002c50:    2000        .       MOVS     r0,#0
        0x00002c52:    f000fbcb    ....    BL       ledColorSet ; 0x33ec
        0x00002c56:    2064        d       MOVS     r0,#0x64
        0x00002c58:    f001fc8c    ....    BL       sysDelayMs ; 0x4574
        0x00002c5c:    4854        TH      LDR      r0,[pc,#336] ; [0x2db0] = 0x200002d0
        0x00002c5e:    7800        .x      LDRB     r0,[r0,#0]
        0x00002c60:    f000fbc4    ....    BL       ledColorSet ; 0x33ec
        0x00002c64:    bdf8        ..      POP      {r3-r7,pc}
        0x00002c66:    f7fdff91    ....    BL       Dwhp83CuMuDetect ; 0xb8c
        0x00002c6a:    2800        .(      CMP      r0,#0
        0x00002c6c:    d0fa        ..      BEQ      0x2c64 ; delStartkey + 624
        0x00002c6e:    4e50        PN      LDR      r6,[pc,#320] ; [0x2db0] = 0x200002d0
        0x00002c70:    7830        0x      LDRB     r0,[r6,#0]
        0x00002c72:    f000fbbb    ....    BL       ledColorSet ; 0x33ec
        0x00002c76:    e02b        +.      B        0x2cd0 ; delStartkey + 732
        0x00002c78:    2014        .       MOVS     r0,#0x14
        0x00002c7a:    f001fc7b    ..{.    BL       sysDelayMs ; 0x4574
        0x00002c7e:    1c6d        m.      ADDS     r5,r5,#1
        0x00002c80:    b2ed        ..      UXTB     r5,r5
        0x00002c82:    2d63        c-      CMP      r5,#0x63
        0x00002c84:    d924        $.      BLS      0x2cd0 ; delStartkey + 732
        0x00002c86:    484c        LH      LDR      r0,[pc,#304] ; [0x2db8] = 0x20000075
        0x00002c88:    7800        .x      LDRB     r0,[r0,#0]
        0x00002c8a:    2802        .(      CMP      r0,#2
        0x00002c8c:    d0ea        ..      BEQ      0x2c64 ; delStartkey + 624
        0x00002c8e:    2000        .       MOVS     r0,#0
        0x00002c90:    f000fbac    ....    BL       ledColorSet ; 0x33ec
        0x00002c94:    2064        d       MOVS     r0,#0x64
        0x00002c96:    f001fc6d    ..m.    BL       sysDelayMs ; 0x4574
        0x00002c9a:    7830        0x      LDRB     r0,[r6,#0]
        0x00002c9c:    f000fba6    ....    BL       ledColorSet ; 0x33ec
        0x00002ca0:    484a        JH      LDR      r0,[pc,#296] ; [0x2dcc] = 0x200000b4
        0x00002ca2:    6800        .h      LDR      r0,[r0,#0]
        0x00002ca4:    494a        JI      LDR      r1,[pc,#296] ; [0x2dd0] = 0xaa55
        0x00002ca6:    4288        .B      CMP      r0,r1
        0x00002ca8:    d1dc        ..      BNE      0x2c64 ; delStartkey + 624
        0x00002caa:    f7fdffa9    ....    BL       Dwhp83GetStatus ; 0xc00
        0x00002cae:    4849        IH      LDR      r0,[pc,#292] ; [0x2dd4] = 0x200000d0
        0x00002cb0:    7800        .x      LDRB     r0,[r0,#0]
        0x00002cb2:    2800        .(      CMP      r0,#0
        0x00002cb4:    d009        ..      BEQ      0x2cca ; delStartkey + 726
        0x00002cb6:    f000fb8f    ....    BL       isDwhp83Linked ; 0x33d8
        0x00002cba:    2800        .(      CMP      r0,#0
        0x00002cbc:    d005        ..      BEQ      0x2cca ; delStartkey + 726
        0x00002cbe:    4a46        FJ      LDR      r2,[pc,#280] ; [0x2dd8] = 0x200000b8
        0x00002cc0:    2001        .       MOVS     r0,#1
        0x00002cc2:    6811        .h      LDR      r1,[r2,#0]
        0x00002cc4:    4301        .C      ORRS     r1,r1,r0
        0x00002cc6:    6011        .`      STR      r1,[r2,#0]
        0x00002cc8:    bdf8        ..      POP      {r3-r7,pc}
        0x00002cca:    f7fdffb9    ....    BL       Dwhp83Master ; 0xc40
        0x00002cce:    bdf8        ..      POP      {r3-r7,pc}
        0x00002cd0:    483a        :H      LDR      r0,[pc,#232] ; [0x2dbc] = 0x2000001f
        0x00002cd2:    7800        .x      LDRB     r0,[r0,#0]
        0x00002cd4:    2808        .(      CMP      r0,#8
        0x00002cd6:    d0cf        ..      BEQ      0x2c78 ; delStartkey + 644
        0x00002cd8:    2d64        d-      CMP      r5,#0x64
        0x00002cda:    d2f8        ..      BCS      0x2cce ; delStartkey + 730
        0x00002cdc:    2000        .       MOVS     r0,#0
        0x00002cde:    f000fb85    ....    BL       ledColorSet ; 0x33ec
        0x00002ce2:    2064        d       MOVS     r0,#0x64
        0x00002ce4:    f001fc46    ..F.    BL       sysDelayMs ; 0x4574
        0x00002ce8:    7830        0x      LDRB     r0,[r6,#0]
        0x00002cea:    f000fb7f    ....    BL       ledColorSet ; 0x33ec
        0x00002cee:    4d32        2M      LDR      r5,[pc,#200] ; [0x2db8] = 0x20000075
        0x00002cf0:    7828        (x      LDRB     r0,[r5,#0]
        0x00002cf2:    2802        .(      CMP      r0,#2
        0x00002cf4:    d01e        ..      BEQ      0x2d34 ; delStartkey + 832
        0x00002cf6:    2001        .       MOVS     r0,#1
        0x00002cf8:    7120         q      STRB     r0,[r4,#4]
        0x00002cfa:    f7fff8c1    ....    BL       ampMute ; 0x1e80
        0x00002cfe:    2002        .       MOVS     r0,#2
        0x00002d00:    7028        (p      STRB     r0,[r5,#0]
        0x00002d02:    4836        6H      LDR      r0,[pc,#216] ; [0x2ddc] = 0x20000076
        0x00002d04:    7880        .x      LDRB     r0,[r0,#2]
        0x00002d06:    7030        0p      STRB     r0,[r6,#0]
        0x00002d08:    f000fb70    ..p.    BL       ledColorSet ; 0x33ec
        0x00002d0c:    482c        ,H      LDR      r0,[pc,#176] ; [0x2dc0] = 0x500042c8
        0x00002d0e:    3814        .8      SUBS     r0,r0,#0x14
        0x00002d10:    6007        .`      STR      r7,[r0,#0]
        0x00002d12:    20ff        .       MOVS     r0,#0xff
        0x00002d14:    30f5        .0      ADDS     r0,r0,#0xf5
        0x00002d16:    f001fc2d    ..-.    BL       sysDelayMs ; 0x4574
        0x00002d1a:    f001fdad    ....    BL       unMute ; 0x4878
        0x00002d1e:    2014        .       MOVS     r0,#0x14
        0x00002d20:    f001fc28    ..(.    BL       sysDelayMs ; 0x4574
        0x00002d24:    4829        )H      LDR      r0,[pc,#164] ; [0x2dcc] = 0x200000b4
        0x00002d26:    6800        .h      LDR      r0,[r0,#0]
        0x00002d28:    492d        -I      LDR      r1,[pc,#180] ; [0x2de0] = 0x55aa
        0x00002d2a:    4288        .B      CMP      r0,r1
        0x00002d2c:    d1cf        ..      BNE      0x2cce ; delStartkey + 730
        0x00002d2e:    f7fdff95    ....    BL       Dwhp83Slave ; 0xc5c
        0x00002d32:    bdf8        ..      POP      {r3-r7,pc}
        0x00002d34:    f7fff8a4    ....    BL       ampMute ; 0x1e80
        0x00002d38:    7127        'q      STRB     r7,[r4,#4]
        0x00002d3a:    2001        .       MOVS     r0,#1
        0x00002d3c:    7020         p      STRB     r0,[r4,#0]
        0x00002d3e:    7067        gp      STRB     r7,[r4,#1]
        0x00002d40:    2064        d       MOVS     r0,#0x64
        0x00002d42:    f001fc17    ....    BL       sysDelayMs ; 0x4574
        0x00002d46:    bdf8        ..      POP      {r3-r7,pc}
        0x00002d48:    4c1a        .L      LDR      r4,[pc,#104] ; [0x2db4] = 0x20000060
        0x00002d4a:    79a0        .y      LDRB     r0,[r4,#6]
        0x00002d4c:    2802        .(      CMP      r0,#2
        0x00002d4e:    d009        ..      BEQ      0x2d64 ; delStartkey + 880
        0x00002d50:    1c40        @.      ADDS     r0,r0,#1
        0x00002d52:    0600        ..      LSLS     r0,r0,#24
        0x00002d54:    0e00        ..      LSRS     r0,r0,#24
        0x00002d56:    71a0        .q      STRB     r0,[r4,#6]
        0x00002d58:    d005        ..      BEQ      0x2d66 ; delStartkey + 882
        0x00002d5a:    2801        .(      CMP      r0,#1
        0x00002d5c:    d005        ..      BEQ      0x2d6a ; delStartkey + 886
        0x00002d5e:    2802        .(      CMP      r0,#2
        0x00002d60:    d005        ..      BEQ      0x2d6e ; delStartkey + 890
        0x00002d62:    e00b        ..      B        0x2d7c ; delStartkey + 904
        0x00002d64:    71a7        .q      STRB     r7,[r4,#6]
        0x00002d66:    200a        .       MOVS     r0,#0xa
        0x00002d68:    e002        ..      B        0x2d70 ; delStartkey + 892
        0x00002d6a:    2008        .       MOVS     r0,#8
        0x00002d6c:    e000        ..      B        0x2d70 ; delStartkey + 892
        0x00002d6e:    2009        .       MOVS     r0,#9
        0x00002d70:    f001f81e    ....    BL       playMusic ; 0x3db0
        0x00002d74:    20ff        .       MOVS     r0,#0xff
        0x00002d76:    30f5        .0      ADDS     r0,r0,#0xf5
        0x00002d78:    f001fbfc    ....    BL       sysDelayMs ; 0x4574
        0x00002d7c:    480c        .H      LDR      r0,[pc,#48] ; [0x2db0] = 0x200002d0
        0x00002d7e:    7800        .x      LDRB     r0,[r0,#0]
        0x00002d80:    f000fb34    ..4.    BL       ledColorSet ; 0x33ec
        0x00002d84:    60e7        .`      STR      r7,[r4,#0xc]
        0x00002d86:    7167        gq      STRB     r7,[r4,#5]
        0x00002d88:    bdf8        ..      POP      {r3-r7,pc}
        0x00002d8a:    4916        .I      LDR      r1,[pc,#88] ; [0x2de4] = 0x20000154
        0x00002d8c:    6808        .h      LDR      r0,[r1,#0]
        0x00002d8e:    1c40        @.      ADDS     r0,r0,#1
        0x00002d90:    6008        .`      STR      r0,[r1,#0]
        0x00002d92:    f001f80d    ....    BL       playMusic ; 0x3db0
        0x00002d96:    4806        .H      LDR      r0,[pc,#24] ; [0x2db0] = 0x200002d0
        0x00002d98:    2107        .!      MOVS     r1,#7
        0x00002d9a:    7001        .p      STRB     r1,[r0,#0]
        0x00002d9c:    bdf8        ..      POP      {r3-r7,pc}
    $d
        0x00002d9e:    0000        ..      DCW    0
        0x00002da0:    200002e0    ...     DCD    536871648
        0x00002da4:    200002d8    ...     DCD    536871640
        0x00002da8:    200002e4    ...     DCD    536871652
        0x00002dac:    20000038    8..     DCD    536870968
        0x00002db0:    200002d0    ...     DCD    536871632
        0x00002db4:    20000060    `..     DCD    536871008
        0x00002db8:    20000075    u..     DCD    536871029
        0x00002dbc:    2000001f    ...     DCD    536870943
        0x00002dc0:    500042c8    .B.P    DCD    1342194376
        0x00002dc4:    200006ee    ...     DCD    536872686
        0x00002dc8:    200006ec    ...     DCD    536872684
        0x00002dcc:    200000b4    ...     DCD    536871092
        0x00002dd0:    0000aa55    U...    DCD    43605
        0x00002dd4:    200000d0    ...     DCD    536871120
        0x00002dd8:    200000b8    ...     DCD    536871096
        0x00002ddc:    20000076    v..     DCD    536871030
        0x00002de0:    000055aa    .U..    DCD    21930
        0x00002de4:    20000154    T..     DCD    536871252
    $t
    i.devStandbyDealAdcKey
    devStandbyDealAdcKey
        0x00002de8:    b510        ..      PUSH     {r4,lr}
        0x00002dea:    4802        .H      LDR      r0,[pc,#8] ; [0x2df4] = 0x2000001c
        0x00002dec:    7800        .x      LDRB     r0,[r0,#0]
        0x00002dee:    f7fffdfb    ....    BL       delStandbytkey ; 0x29e8
        0x00002df2:    bd10        ..      POP      {r4,pc}
    $d
        0x00002df4:    2000001c    ...     DCD    536870940
    $t
    i.devStartDealAdcKey
    devStartDealAdcKey
        0x00002df8:    b510        ..      PUSH     {r4,lr}
        0x00002dfa:    4c09        .L      LDR      r4,[pc,#36] ; [0x2e20] = 0x2000001c
        0x00002dfc:    7820         x      LDRB     r0,[r4,#0]
        0x00002dfe:    f7fffdf9    ....    BL       delStartkey ; 0x29f4
        0x00002e02:    7860        `x      LDRB     r0,[r4,#1]
        0x00002e04:    280a        .(      CMP      r0,#0xa
        0x00002e06:    d001        ..      BEQ      0x2e0c ; devStartDealAdcKey + 20
        0x00002e08:    280c        .(      CMP      r0,#0xc
        0x00002e0a:    d108        ..      BNE      0x2e1e ; devStartDealAdcKey + 38
        0x00002e0c:    6b21        !k      LDR      r1,[r4,#0x30]
        0x00002e0e:    1c49        I.      ADDS     r1,r1,#1
        0x00002e10:    6321        !c      STR      r1,[r4,#0x30]
        0x00002e12:    2908        .)      CMP      r1,#8
        0x00002e14:    d303        ..      BCC      0x2e1e ; devStartDealAdcKey + 38
        0x00002e16:    f7fffded    ....    BL       delStartkey ; 0x29f4
        0x00002e1a:    2000        .       MOVS     r0,#0
        0x00002e1c:    6320         c      STR      r0,[r4,#0x30]
        0x00002e1e:    bd10        ..      POP      {r4,pc}
    $d
        0x00002e20:    2000001c    ...     DCD    536870940
    $t
    i.doPowerOff
    doPowerOff
        0x00002e24:    2600        .&      MOVS     r6,#0
        0x00002e26:    4635        5F      MOV      r5,r6
        0x00002e28:    4634        4F      MOV      r4,r6
        0x00002e2a:    f7fdfe65    ..e.    BL       DrvWDT_DisableInt ; 0xaf8
        0x00002e2e:    4f11        .O      LDR      r7,[pc,#68] ; [0x2e74] = 0x50004260
        0x00002e30:    2014        .       MOVS     r0,#0x14
        0x00002e32:    f001fb9f    ....    BL       sysDelayMs ; 0x4574
        0x00002e36:    2c00        .,      CMP      r4,#0
        0x00002e38:    d102        ..      BNE      0x2e40 ; doPowerOff + 28
        0x00002e3a:    6838        8h      LDR      r0,[r7,#0]
        0x00002e3c:    2800        .(      CMP      r0,#0
        0x00002e3e:    d104        ..      BNE      0x2e4a ; doPowerOff + 38
        0x00002e40:    1c76        v.      ADDS     r6,r6,#1
        0x00002e42:    2e03        ..      CMP      r6,#3
        0x00002e44:    d003        ..      BEQ      0x2e4e ; doPowerOff + 42
        0x00002e46:    2c01        .,      CMP      r4,#1
        0x00002e48:    d002        ..      BEQ      0x2e50 ; doPowerOff + 44
        0x00002e4a:    2500        .%      MOVS     r5,#0
        0x00002e4c:    e7f0        ..      B        0x2e30 ; doPowerOff + 12
        0x00002e4e:    2401        .$      MOVS     r4,#1
        0x00002e50:    1c6d        m.      ADDS     r5,r5,#1
        0x00002e52:    2d0a        .-      CMP      r5,#0xa
        0x00002e54:    d1ec        ..      BNE      0x2e30 ; doPowerOff + 12
        0x00002e56:    2000        .       MOVS     r0,#0
        0x00002e58:    f000fac8    ....    BL       ledColorSet ; 0x33ec
        0x00002e5c:    4905        .I      LDR      r1,[pc,#20] ; [0x2e74] = 0x50004260
        0x00002e5e:    2000        .       MOVS     r0,#0
        0x00002e60:    3140        @1      ADDS     r1,r1,#0x40
        0x00002e62:    6008        .`      STR      r0,[r1,#0]
        0x00002e64:    f7fefa22    ..".    BL       SYS_UnlockReg ; 0x12ac
        0x00002e68:    4904        .I      LDR      r1,[pc,#16] ; [0x2e7c] = 0xe000ed00
        0x00002e6a:    4803        .H      LDR      r0,[pc,#12] ; [0x2e78] = 0x5fa0004
        0x00002e6c:    60c8        .`      STR      r0,[r1,#0xc]
        0x00002e6e:    f3bf8f40    ..@.    DSB      #0x0
        0x00002e72:    e7fe        ..      B        0x2e72 ; doPowerOff + 78
    $d
        0x00002e74:    50004260    `B.P    DCD    1342194272
        0x00002e78:    05fa0004    ....    DCD    100270084
        0x00002e7c:    e000ed00    ....    DCD    3758157056
    $t
    i.dps
    dps
        0x00002e80:    b500        ..      PUSH     {lr}
        0x00002e82:    4803        .H      LDR      r0,[pc,#12] ; [0x2e90] = 0x4928
        0x00002e84:    f000fa80    ....    BL       iputs ; 0x3388
        0x00002e88:    4902        .I      LDR      r1,[pc,#8] ; [0x2e94] = 0x200006b4
        0x00002e8a:    2000        .       MOVS     r0,#0
        0x00002e8c:    6188        .a      STR      r0,[r1,#0x18]
        0x00002e8e:    bd00        ..      POP      {pc}
    $d
        0x00002e90:    00004928    (I..    DCD    18728
        0x00002e94:    200006b4    ...     DCD    536872628
    $t
    i.dwph83Check
    dwph83Check
        0x00002e98:    b570        p.      PUSH     {r4-r6,lr}
        0x00002e9a:    4c0d        .L      LDR      r4,[pc,#52] ; [0x2ed0] = 0x200000a4
        0x00002e9c:    4d0b        .M      LDR      r5,[pc,#44] ; [0x2ecc] = 0x55aa
        0x00002e9e:    6125        %a      STR      r5,[r4,#0x10]
        0x00002ea0:    f7fdfe74    ..t.    BL       Dwhp83CuMuDetect ; 0xb8c
        0x00002ea4:    6920         i      LDR      r0,[r4,#0x10]
        0x00002ea6:    42a8        .B      CMP      r0,r5
        0x00002ea8:    d10f        ..      BNE      0x2eca ; dwph83Check + 50
        0x00002eaa:    f7fdfed7    ....    BL       Dwhp83Slave ; 0xc5c
        0x00002eae:    2032        2       MOVS     r0,#0x32
        0x00002eb0:    f001fb60    ..`.    BL       sysDelayMs ; 0x4574
        0x00002eb4:    2000        .       MOVS     r0,#0
        0x00002eb6:    7020         p      STRB     r0,[r4,#0]
        0x00002eb8:    f001f9e4    ....    BL       setConfig ; 0x4284
        0x00002ebc:    4807        .H      LDR      r0,[pc,#28] ; [0x2edc] = 0x2000039c
        0x00002ebe:    4b05        .K      LDR      r3,[pc,#20] ; [0x2ed4] = 0x2e99
        0x00002ec0:    2200        ."      MOVS     r2,#0
        0x00002ec2:    4905        .I      LDR      r1,[pc,#20] ; [0x2ed8] = 0x9c4
        0x00002ec4:    7800        .x      LDRB     r0,[r0,#0]
        0x00002ec6:    f001fb1f    ....    BL       startATask ; 0x4508
        0x00002eca:    bd70        p.      POP      {r4-r6,pc}
    $d
        0x00002ecc:    000055aa    .U..    DCD    21930
        0x00002ed0:    200000a4    ...     DCD    536871076
        0x00002ed4:    00002e99    ....    DCD    11929
        0x00002ed8:    000009c4    ....    DCD    2500
        0x00002edc:    2000039c    ...     DCD    536871836
    $t
    i.enterStandby
    enterStandby
        0x00002ee0:    b5f8        ..      PUSH     {r3-r7,lr}
        0x00002ee2:    4d17        .M      LDR      r5,[pc,#92] ; [0x2f40] = 0x2000038c
        0x00002ee4:    2401        .$      MOVS     r4,#1
        0x00002ee6:    702c        ,p      STRB     r4,[r5,#0]
        0x00002ee8:    f001f9cc    ....    BL       setConfig ; 0x4284
        0x00002eec:    4e15        .N      LDR      r6,[pc,#84] ; [0x2f44] = 0x20000060
        0x00002eee:    2064        d       MOVS     r0,#0x64
        0x00002ef0:    7034        4p      STRB     r4,[r6,#0]
        0x00002ef2:    f001fb3f    ..?.    BL       sysDelayMs ; 0x4574
        0x00002ef6:    4914        .I      LDR      r1,[pc,#80] ; [0x2f48] = 0x20000074
        0x00002ef8:    2003        .       MOVS     r0,#3
        0x00002efa:    7008        .p      STRB     r0,[r1,#0]
        0x00002efc:    2005        .       MOVS     r0,#5
        0x00002efe:    f000ff57    ..W.    BL       playMusic ; 0x3db0
        0x00002f02:    4812        .H      LDR      r0,[pc,#72] ; [0x2f4c] = 0x2000037c
        0x00002f04:    2700        .'      MOVS     r7,#0
        0x00002f06:    6007        .`      STR      r7,[r0,#0]
        0x00002f08:    4811        .H      LDR      r0,[pc,#68] ; [0x2f50] = 0x5dc
        0x00002f0a:    f001fb33    ..3.    BL       sysDelayMs ; 0x4574
        0x00002f0e:    240f        .$      MOVS     r4,#0xf
        0x00002f10:    4620         F      MOV      r0,r4
        0x00002f12:    f7fff9eb    ....    BL       ampSetVolume ; 0x22ec
        0x00002f16:    2003        .       MOVS     r0,#3
        0x00002f18:    f001fb2c    ..,.    BL       sysDelayMs ; 0x4574
        0x00002f1c:    1e64        d.      SUBS     r4,r4,#1
        0x00002f1e:    d1f7        ..      BNE      0x2f10 ; enterStandby + 48
        0x00002f20:    2000        .       MOVS     r0,#0
        0x00002f22:    f7fff9e3    ....    BL       ampSetVolume ; 0x22ec
        0x00002f26:    f7feffab    ....    BL       ampMute ; 0x1e80
        0x00002f2a:    7037        7p      STRB     r7,[r6,#0]
        0x00002f2c:    7868        hx      LDRB     r0,[r5,#1]
        0x00002f2e:    2800        .(      CMP      r0,#0
        0x00002f30:    d002        ..      BEQ      0x2f38 ; enterStandby + 88
        0x00002f32:    f000fe31    ..1.    BL       outStandby ; 0x3b98
        0x00002f36:    bdf8        ..      POP      {r3-r7,pc}
        0x00002f38:    f000ff72    ..r.    BL       powerOff ; 0x3e20
        0x00002f3c:    bdf8        ..      POP      {r3-r7,pc}
    $d
        0x00002f3e:    0000        ..      DCW    0
        0x00002f40:    2000038c    ...     DCD    536871820
        0x00002f44:    20000060    `..     DCD    536871008
        0x00002f48:    20000074    t..     DCD    536871028
        0x00002f4c:    2000037c    |..     DCD    536871804
        0x00002f50:    000005dc    ....    DCD    1500
    $t
    i.exitGpioI2c
    exitGpioI2c
        0x00002f54:    b510        ..      PUSH     {r4,lr}
        0x00002f56:    2050        P       MOVS     r0,#0x50
        0x00002f58:    f001fb22    ..".    BL       sysDelayUs ; 0x45a0
        0x00002f5c:    4903        .I      LDR      r1,[pc,#12] ; [0x2f6c] = 0x50004228
        0x00002f5e:    2001        .       MOVS     r0,#1
        0x00002f60:    6008        .`      STR      r0,[r1,#0]
        0x00002f62:    4903        .I      LDR      r1,[pc,#12] ; [0x2f70] = 0x200000a4
        0x00002f64:    2000        .       MOVS     r0,#0
        0x00002f66:    60c8        .`      STR      r0,[r1,#0xc]
        0x00002f68:    bd10        ..      POP      {r4,pc}
    $d
        0x00002f6a:    0000        ..      DCW    0
        0x00002f6c:    50004228    (B.P    DCD    1342194216
        0x00002f70:    200000a4    ...     DCD    536871076
    $t
    i.getATask
    getATask
        0x00002f74:    4909        .I      LDR      r1,[pc,#36] ; [0x2f9c] = 0x20001948
        0x00002f76:    2000        .       MOVS     r0,#0
        0x00002f78:    220c        ."      MOVS     r2,#0xc
        0x00002f7a:    4342        BC      MULS     r2,r0,r2
        0x00002f7c:    1852        R.      ADDS     r2,r2,r1
        0x00002f7e:    7892        .x      LDRB     r2,[r2,#2]
        0x00002f80:    2a00        .*      CMP      r2,#0
        0x00002f82:    d005        ..      BEQ      0x2f90 ; getATask + 28
        0x00002f84:    1c40        @.      ADDS     r0,r0,#1
        0x00002f86:    b2c0        ..      UXTB     r0,r0
        0x00002f88:    280a        .(      CMP      r0,#0xa
        0x00002f8a:    d3f5        ..      BCC      0x2f78 ; getATask + 4
        0x00002f8c:    20ff        .       MOVS     r0,#0xff
        0x00002f8e:    4770        pG      BX       lr
        0x00002f90:    220c        ."      MOVS     r2,#0xc
        0x00002f92:    2301        .#      MOVS     r3,#1
        0x00002f94:    4342        BC      MULS     r2,r0,r2
        0x00002f96:    1851        Q.      ADDS     r1,r2,r1
        0x00002f98:    708b        .p      STRB     r3,[r1,#2]
        0x00002f9a:    4770        pG      BX       lr
    $d
        0x00002f9c:    20001948    H..     DCD    536877384
    $t
    i.getChangeVolume
    getChangeVolume
        0x00002fa0:    b500        ..      PUSH     {lr}
        0x00002fa2:    480b        .H      LDR      r0,[pc,#44] ; [0x2fd0] = 0x200003c4
        0x00002fa4:    7881        .x      LDRB     r1,[r0,#2]
        0x00002fa6:    000b        ..      MOVS     r3,r1
        0x00002fa8:    f7fefbbe    ....    BL       __ARM_common_switch8 ; 0x1728
    $d
        0x00002fac:    1007100b    ....    DCD    268898315
        0x00002fb0:    07100707    ....    DCD    118490887
        0x00002fb4:    07071010    ....    DCD    117903376
        0x00002fb8:    0010        ..      DCW    16
    $t
        0x00002fba:    4905        .I      LDR      r1,[pc,#20] ; [0x2fd0] = 0x200003c4
        0x00002fbc:    6982        .i      LDR      r2,[r0,#0x18]
        0x00002fbe:    3140        @1      ADDS     r1,r1,#0x40
        0x00002fc0:    5c89        .\      LDRB     r1,[r1,r2]
        0x00002fc2:    4a03        .J      LDR      r2,[pc,#12] ; [0x2fd0] = 0x200003c4
        0x00002fc4:    3208        .2      ADDS     r2,r2,#8
        0x00002fc6:    7091        .p      STRB     r1,[r2,#2]
        0x00002fc8:    2101        .!      MOVS     r1,#1
        0x00002fca:    7001        .p      STRB     r1,[r0,#0]
        0x00002fcc:    bd00        ..      POP      {pc}
    $d
        0x00002fce:    0000        ..      DCW    0
        0x00002fd0:    200003c4    ...     DCD    536871876
    $t
    i.getMuAddr
    getMuAddr
        0x00002fd4:    b570        p.      PUSH     {r4-r6,lr}
        0x00002fd6:    4d0e        .M      LDR      r5,[pc,#56] ; [0x3010] = 0x20000075
        0x00002fd8:    2001        .       MOVS     r0,#1
        0x00002fda:    782c        ,x      LDRB     r4,[r5,#0]
        0x00002fdc:    490d        .I      LDR      r1,[pc,#52] ; [0x3014] = 0x500042b4
        0x00002fde:    7028        (p      STRB     r0,[r5,#0]
        0x00002fe0:    6008        .`      STR      r0,[r1,#0]
        0x00002fe2:    490c        .I      LDR      r1,[pc,#48] ; [0x3014] = 0x500042b4
        0x00002fe4:    2000        .       MOVS     r0,#0
        0x00002fe6:    3908        .9      SUBS     r1,r1,#8
        0x00002fe8:    6008        .`      STR      r0,[r1,#0]
        0x00002fea:    2005        .       MOVS     r0,#5
        0x00002fec:    f001fac2    ....    BL       sysDelayMs ; 0x4574
        0x00002ff0:    4809        .H      LDR      r0,[pc,#36] ; [0x3018] = 0x2000010c
        0x00002ff2:    490a        .I      LDR      r1,[pc,#40] ; [0x301c] = 0x200000a4
        0x00002ff4:    6800        .h      LDR      r0,[r0,#0]
        0x00002ff6:    0200        ..      LSLS     r0,r0,#8
        0x00002ff8:    0c00        ..      LSRS     r0,r0,#16
        0x00002ffa:    80c8        ..      STRH     r0,[r1,#6]
        0x00002ffc:    2808        .(      CMP      r0,#8
        0x00002ffe:    d204        ..      BCS      0x300a ; getMuAddr + 54
        0x00003000:    2203        ."      MOVS     r2,#3
        0x00003002:    0200        ..      LSLS     r0,r0,#8
        0x00003004:    0212        ..      LSLS     r2,r2,#8
        0x00003006:    1880        ..      ADDS     r0,r0,r2
        0x00003008:    80c8        ..      STRH     r0,[r1,#6]
        0x0000300a:    702c        ,p      STRB     r4,[r5,#0]
        0x0000300c:    bd70        p.      POP      {r4-r6,pc}
    $d
        0x0000300e:    0000        ..      DCW    0
        0x00003010:    20000075    u..     DCD    536871029
        0x00003014:    500042b4    .B.P    DCD    1342194356
        0x00003018:    2000010c    ...     DCD    536871180
        0x0000301c:    200000a4    ...     DCD    536871076
    $t
    i.i2cAck
    i2cAck
        0x00003020:    b5f8        ..      PUSH     {r3-r7,lr}
        0x00003022:    4c0d        .L      LDR      r4,[pc,#52] ; [0x3058] = 0x5000422c
        0x00003024:    2600        .&      MOVS     r6,#0
        0x00003026:    6026        &`      STR      r6,[r4,#0]
        0x00003028:    2006        .       MOVS     r0,#6
        0x0000302a:    f001fab9    ....    BL       sysDelayUs ; 0x45a0
        0x0000302e:    2501        .%      MOVS     r5,#1
        0x00003030:    1f27        '.      SUBS     r7,r4,#4
        0x00003032:    603d        =`      STR      r5,[r7,#0]
        0x00003034:    2006        .       MOVS     r0,#6
        0x00003036:    f001fab3    ....    BL       sysDelayUs ; 0x45a0
        0x0000303a:    6025        %`      STR      r5,[r4,#0]
        0x0000303c:    2003        .       MOVS     r0,#3
        0x0000303e:    f001faaf    ....    BL       sysDelayUs ; 0x45a0
        0x00003042:    683d        =h      LDR      r5,[r7,#0]
        0x00003044:    2003        .       MOVS     r0,#3
        0x00003046:    f001faab    ....    BL       sysDelayUs ; 0x45a0
        0x0000304a:    6026        &`      STR      r6,[r4,#0]
        0x0000304c:    2006        .       MOVS     r0,#6
        0x0000304e:    f001faa7    ....    BL       sysDelayUs ; 0x45a0
        0x00003052:    4628        (F      MOV      r0,r5
        0x00003054:    bdf8        ..      POP      {r3-r7,pc}
    $d
        0x00003056:    0000        ..      DCW    0
        0x00003058:    5000422c    ,B.P    DCD    1342194220
    $t
    i.i2cReadByte
    i2cReadByte
        0x0000305c:    b5f8        ..      PUSH     {r3-r7,lr}
        0x0000305e:    2600        .&      MOVS     r6,#0
        0x00003060:    4f0c        .O      LDR      r7,[pc,#48] ; [0x3094] = 0x5000422c
        0x00003062:    2480        .$      MOVS     r4,#0x80
        0x00003064:    4635        5F      MOV      r5,r6
        0x00003066:    2000        .       MOVS     r0,#0
        0x00003068:    6038        8`      STR      r0,[r7,#0]
        0x0000306a:    2006        .       MOVS     r0,#6
        0x0000306c:    f001fa98    ....    BL       sysDelayUs ; 0x45a0
        0x00003070:    2001        .       MOVS     r0,#1
        0x00003072:    6038        8`      STR      r0,[r7,#0]
        0x00003074:    2006        .       MOVS     r0,#6
        0x00003076:    f001fa93    ....    BL       sysDelayUs ; 0x45a0
        0x0000307a:    4806        .H      LDR      r0,[pc,#24] ; [0x3094] = 0x5000422c
        0x0000307c:    1f00        ..      SUBS     r0,r0,#4
        0x0000307e:    6800        .h      LDR      r0,[r0,#0]
        0x00003080:    2800        .(      CMP      r0,#0
        0x00003082:    d000        ..      BEQ      0x3086 ; i2cReadByte + 42
        0x00003084:    4326        &C      ORRS     r6,r6,r4
        0x00003086:    0864        d.      LSRS     r4,r4,#1
        0x00003088:    1c6d        m.      ADDS     r5,r5,#1
        0x0000308a:    2d08        .-      CMP      r5,#8
        0x0000308c:    d3eb        ..      BCC      0x3066 ; i2cReadByte + 10
        0x0000308e:    4630        0F      MOV      r0,r6
        0x00003090:    bdf8        ..      POP      {r3-r7,pc}
    $d
        0x00003092:    0000        ..      DCW    0
        0x00003094:    5000422c    ,B.P    DCD    1342194220
    $t
    i.i2cRestart
    i2cRestart
        0x00003098:    b5f8        ..      PUSH     {r3-r7,lr}
        0x0000309a:    4d0c        .M      LDR      r5,[pc,#48] ; [0x30cc] = 0x5000422c
        0x0000309c:    2400        .$      MOVS     r4,#0
        0x0000309e:    602c        ,`      STR      r4,[r5,#0]
        0x000030a0:    2006        .       MOVS     r0,#6
        0x000030a2:    f001fa7d    ..}.    BL       sysDelayUs ; 0x45a0
        0x000030a6:    2601        .&      MOVS     r6,#1
        0x000030a8:    1f2f        /.      SUBS     r7,r5,#4
        0x000030aa:    603e        >`      STR      r6,[r7,#0]
        0x000030ac:    203c        <       MOVS     r0,#0x3c
        0x000030ae:    f001fa77    ..w.    BL       sysDelayUs ; 0x45a0
        0x000030b2:    602e        .`      STR      r6,[r5,#0]
        0x000030b4:    2006        .       MOVS     r0,#6
        0x000030b6:    f001fa73    ..s.    BL       sysDelayUs ; 0x45a0
        0x000030ba:    603c        <`      STR      r4,[r7,#0]
        0x000030bc:    2006        .       MOVS     r0,#6
        0x000030be:    f001fa6f    ..o.    BL       sysDelayUs ; 0x45a0
        0x000030c2:    602c        ,`      STR      r4,[r5,#0]
        0x000030c4:    2006        .       MOVS     r0,#6
        0x000030c6:    f001fa6b    ..k.    BL       sysDelayUs ; 0x45a0
        0x000030ca:    bdf8        ..      POP      {r3-r7,pc}
    $d
        0x000030cc:    5000422c    ,B.P    DCD    1342194220
    $t
    i.i2cSpirit
    i2cSpirit
        0x000030d0:    b5f8        ..      PUSH     {r3-r7,lr}
        0x000030d2:    4834        4H      LDR      r0,[pc,#208] ; [0x31a4] = 0x200002cc
        0x000030d4:    2500        .%      MOVS     r5,#0
        0x000030d6:    6005        .`      STR      r5,[r0,#0]
        0x000030d8:    4833        3H      LDR      r0,[pc,#204] ; [0x31a8] = 0x200002c8
        0x000030da:    4c34        4L      LDR      r4,[pc,#208] ; [0x31ac] = 0x20000114
        0x000030dc:    6005        .`      STR      r5,[r0,#0]
        0x000030de:    7821        !x      LDRB     r1,[r4,#0]
        0x000030e0:    26a2        .&      MOVS     r6,#0xa2
        0x000030e2:    4b33        3K      LDR      r3,[pc,#204] ; [0x31b0] = 0x40020000
        0x000030e4:    29a0        .)      CMP      r1,#0xa0
        0x000030e6:    d006        ..      BEQ      0x30f6 ; i2cSpirit + 38
        0x000030e8:    29a1        .)      CMP      r1,#0xa1
        0x000030ea:    d030        0.      BEQ      0x314e ; i2cSpirit + 126
        0x000030ec:    29a2        .)      CMP      r1,#0xa2
        0x000030ee:    d04f        O.      BEQ      0x3190 ; i2cSpirit + 192
        0x000030f0:    29a3        .)      CMP      r1,#0xa3
        0x000030f2:    d154        T.      BNE      0x319e ; i2cSpirit + 206
        0x000030f4:    e00f        ..      B        0x3116 ; i2cSpirit + 70
        0x000030f6:    f001f833    ..3.    BL       readI2cChain ; 0x4160
        0x000030fa:    68e0        .h      LDR      r0,[r4,#0xc]
        0x000030fc:    2800        .(      CMP      r0,#0
        0x000030fe:    d04e        N.      BEQ      0x319e ; i2cSpirit + 206
        0x00003100:    7026        &p      STRB     r6,[r4,#0]
        0x00003102:    461e        .F      MOV      r6,r3
        0x00003104:    4618        .F      MOV      r0,r3
        0x00003106:    f7fdff28    ..(.    BL       I2C_START ; 0xf5a
        0x0000310a:    6970        pi      LDR      r0,[r6,#0x14]
        0x0000310c:    2104        .!      MOVS     r1,#4
        0x0000310e:    4308        .C      ORRS     r0,r0,r1
        0x00003110:    6170        pa      STR      r0,[r6,#0x14]
        0x00003112:    6125        %a      STR      r5,[r4,#0x10]
        0x00003114:    e043        C.      B        0x319e ; i2cSpirit + 206
        0x00003116:    6920         i      LDR      r0,[r4,#0x10]
        0x00003118:    1c40        @.      ADDS     r0,r0,#1
        0x0000311a:    6120         a      STR      r0,[r4,#0x10]
        0x0000311c:    2801        .(      CMP      r0,#1
        0x0000311e:    68e0        .h      LDR      r0,[r4,#0xc]
        0x00003120:    d910        ..      BLS      0x3144 ; i2cSpirit + 116
        0x00003122:    2800        .(      CMP      r0,#0
        0x00003124:    d002        ..      BEQ      0x312c ; i2cSpirit + 92
        0x00003126:    6880        .h      LDR      r0,[r0,#8]
        0x00003128:    21a3        .!      MOVS     r1,#0xa3
        0x0000312a:    7001        .p      STRB     r1,[r0,#0]
        0x0000312c:    f001f818    ....    BL       readI2cChain ; 0x4160
        0x00003130:    20a0        .       MOVS     r0,#0xa0
        0x00003132:    7020         p      STRB     r0,[r4,#0]
        0x00003134:    68e0        .h      LDR      r0,[r4,#0xc]
        0x00003136:    2800        .(      CMP      r0,#0
        0x00003138:    d031        1.      BEQ      0x319e ; i2cSpirit + 206
        0x0000313a:    7026        &p      STRB     r6,[r4,#0]
        0x0000313c:    4618        .F      MOV      r0,r3
        0x0000313e:    f7fdff0c    ....    BL       I2C_START ; 0xf5a
        0x00003142:    e02c        ,.      B        0x319e ; i2cSpirit + 206
        0x00003144:    2800        .(      CMP      r0,#0
        0x00003146:    d02a        *.      BEQ      0x319e ; i2cSpirit + 206
        0x00003148:    7901        .y      LDRB     r1,[r0,#4]
        0x0000314a:    70c1        .p      STRB     r1,[r0,#3]
        0x0000314c:    e7f5        ..      B        0x313a ; i2cSpirit + 106
        0x0000314e:    6818        .h      LDR      r0,[r3,#0]
        0x00003150:    2740        @'      MOVS     r7,#0x40
        0x00003152:    43b8        .C      BICS     r0,r0,r7
        0x00003154:    6018        .`      STR      r0,[r3,#0]
        0x00003156:    4917        .I      LDR      r1,[pc,#92] ; [0x31b4] = 0x50000200
        0x00003158:    00b8        ..      LSLS     r0,r7,#2
        0x0000315a:    688a        .h      LDR      r2,[r1,#8]
        0x0000315c:    4382        .C      BICS     r2,r2,r0
        0x0000315e:    608a        .`      STR      r2,[r1,#8]
        0x00003160:    2205        ."      MOVS     r2,#5
        0x00003162:    0712        ..      LSLS     r2,r2,#28
        0x00003164:    68d6        .h      LDR      r6,[r2,#0xc]
        0x00003166:    4306        .C      ORRS     r6,r6,r0
        0x00003168:    60d6        .`      STR      r6,[r2,#0xc]
        0x0000316a:    68d6        .h      LDR      r6,[r2,#0xc]
        0x0000316c:    4386        .C      BICS     r6,r6,r0
        0x0000316e:    60d6        .`      STR      r6,[r2,#0xc]
        0x00003170:    688a        .h      LDR      r2,[r1,#8]
        0x00003172:    4302        .C      ORRS     r2,r2,r0
        0x00003174:    608a        .`      STR      r2,[r1,#8]
        0x00003176:    4810        .H      LDR      r0,[pc,#64] ; [0x31b8] = 0x249f0
        0x00003178:    6919        .i      LDR      r1,[r3,#0x10]
        0x0000317a:    4301        .C      ORRS     r1,r1,r0
        0x0000317c:    6119        .a      STR      r1,[r3,#0x10]
        0x0000317e:    6818        .h      LDR      r0,[r3,#0]
        0x00003180:    4338        8C      ORRS     r0,r0,r7
        0x00003182:    6018        .`      STR      r0,[r3,#0]
        0x00003184:    6818        .h      LDR      r0,[r3,#0]
        0x00003186:    2180        .!      MOVS     r1,#0x80
        0x00003188:    4308        .C      ORRS     r0,r0,r1
        0x0000318a:    6018        .`      STR      r0,[r3,#0]
        0x0000318c:    20a3        .       MOVS     r0,#0xa3
        0x0000318e:    e005        ..      B        0x319c ; i2cSpirit + 204
        0x00003190:    6960        `i      LDR      r0,[r4,#0x14]
        0x00003192:    1c40        @.      ADDS     r0,r0,#1
        0x00003194:    6160        `a      STR      r0,[r4,#0x14]
        0x00003196:    2814        .(      CMP      r0,#0x14
        0x00003198:    d902        ..      BLS      0x31a0 ; i2cSpirit + 208
        0x0000319a:    20a1        .       MOVS     r0,#0xa1
        0x0000319c:    7020         p      STRB     r0,[r4,#0]
        0x0000319e:    6165        ea      STR      r5,[r4,#0x14]
        0x000031a0:    bdf8        ..      POP      {r3-r7,pc}
    $d
        0x000031a2:    0000        ..      DCW    0
        0x000031a4:    200002cc    ...     DCD    536871628
        0x000031a8:    200002c8    ...     DCD    536871624
        0x000031ac:    20000114    ...     DCD    536871188
        0x000031b0:    40020000    ...@    DCD    1073872896
        0x000031b4:    50000200    ...P    DCD    1342177792
        0x000031b8:    000249f0    .I..    DCD    150000
    $t
    i.i2cStart
    i2cStart
        0x000031bc:    b570        p.      PUSH     {r4-r6,lr}
        0x000031be:    4605        .F      MOV      r5,r0
        0x000031c0:    4c10        .L      LDR      r4,[pc,#64] ; [0x3204] = 0x50004228
        0x000031c2:    2001        .       MOVS     r0,#1
        0x000031c4:    6020         `      STR      r0,[r4,#0]
        0x000031c6:    1d21        !.      ADDS     r1,r4,#4
        0x000031c8:    6008        .`      STR      r0,[r1,#0]
        0x000031ca:    4e0f        .N      LDR      r6,[pc,#60] ; [0x3208] = 0x50004000
        0x000031cc:    2202        ."      MOVS     r2,#2
        0x000031ce:    210a        .!      MOVS     r1,#0xa
        0x000031d0:    4630        0F      MOV      r0,r6
        0x000031d2:    f7fdfdd7    ....    BL       GPIO_SET_MODE ; 0xd84
        0x000031d6:    2202        ."      MOVS     r2,#2
        0x000031d8:    210b        .!      MOVS     r1,#0xb
        0x000031da:    4630        0F      MOV      r0,r6
        0x000031dc:    f7fdfdd2    ....    BL       GPIO_SET_MODE ; 0xd84
        0x000031e0:    200a        .       MOVS     r0,#0xa
        0x000031e2:    f001f9dd    ....    BL       sysDelayUs ; 0x45a0
        0x000031e6:    2000        .       MOVS     r0,#0
        0x000031e8:    6020         `      STR      r0,[r4,#0]
        0x000031ea:    2014        .       MOVS     r0,#0x14
        0x000031ec:    f001f9d8    ....    BL       sysDelayUs ; 0x45a0
        0x000031f0:    4628        (F      MOV      r0,r5
        0x000031f2:    f000f859    ..Y.    BL       i2cWriteByte ; 0x32a8
        0x000031f6:    f7ffff13    ....    BL       i2cAck ; 0x3020
        0x000031fa:    2800        .(      CMP      r0,#0
        0x000031fc:    d000        ..      BEQ      0x3200 ; i2cStart + 68
        0x000031fe:    2001        .       MOVS     r0,#1
        0x00003200:    bd70        p.      POP      {r4-r6,pc}
    $d
        0x00003202:    0000        ..      DCW    0
        0x00003204:    50004228    (B.P    DCD    1342194216
        0x00003208:    50004000    .@.P    DCD    1342193664
    $t
    i.i2cStop
    i2cStop
        0x0000320c:    b570        p.      PUSH     {r4-r6,lr}
        0x0000320e:    4d08        .M      LDR      r5,[pc,#32] ; [0x3230] = 0x50004228
        0x00003210:    2000        .       MOVS     r0,#0
        0x00003212:    6028        (`      STR      r0,[r5,#0]
        0x00003214:    2006        .       MOVS     r0,#6
        0x00003216:    f001f9c3    ....    BL       sysDelayUs ; 0x45a0
        0x0000321a:    2401        .$      MOVS     r4,#1
        0x0000321c:    1d28        (.      ADDS     r0,r5,#4
        0x0000321e:    6004        .`      STR      r4,[r0,#0]
        0x00003220:    2006        .       MOVS     r0,#6
        0x00003222:    f001f9bd    ....    BL       sysDelayUs ; 0x45a0
        0x00003226:    602c        ,`      STR      r4,[r5,#0]
        0x00003228:    2006        .       MOVS     r0,#6
        0x0000322a:    f001f9b9    ....    BL       sysDelayUs ; 0x45a0
        0x0000322e:    bd70        p.      POP      {r4-r6,pc}
    $d
        0x00003230:    50004228    (B.P    DCD    1342194216
    $t
    i.i2cSysInit
    i2cSysInit
        0x00003234:    b570        p.      PUSH     {r4-r6,lr}
        0x00003236:    4c17        .L      LDR      r4,[pc,#92] ; [0x3294] = 0x50004140
        0x00003238:    2202        ."      MOVS     r2,#2
        0x0000323a:    2103        .!      MOVS     r1,#3
        0x0000323c:    4620         F      MOV      r0,r4
        0x0000323e:    f7fdfdab    ....    BL       GPIO_SET_MODE ; 0xd98
        0x00003242:    2202        ."      MOVS     r2,#2
        0x00003244:    4611        .F      MOV      r1,r2
        0x00003246:    4620         F      MOV      r0,r4
        0x00003248:    f7fdfda6    ....    BL       GPIO_SET_MODE ; 0xd98
        0x0000324c:    4812        .H      LDR      r0,[pc,#72] ; [0x3298] = 0x50000040
        0x0000324e:    6841        Ah      LDR      r1,[r0,#4]
        0x00003250:    220c        ."      MOVS     r2,#0xc
        0x00003252:    4311        .C      ORRS     r1,r1,r2
        0x00003254:    6041        A`      STR      r1,[r0,#4]
        0x00003256:    6941        Ai      LDR      r1,[r0,#0x14]
        0x00003258:    220f        ."      MOVS     r2,#0xf
        0x0000325a:    0612        ..      LSLS     r2,r2,#24
        0x0000325c:    4391        .C      BICS     r1,r1,r2
        0x0000325e:    04e2        ..      LSLS     r2,r4,#19
        0x00003260:    1889        ..      ADDS     r1,r1,r2
        0x00003262:    6141        Aa      STR      r1,[r0,#0x14]
        0x00003264:    490d        .I      LDR      r1,[pc,#52] ; [0x329c] = 0xe000e410
        0x00003266:    6808        .h      LDR      r0,[r1,#0]
        0x00003268:    22ff        ."      MOVS     r2,#0xff
        0x0000326a:    0412        ..      LSLS     r2,r2,#16
        0x0000326c:    2502        .%      MOVS     r5,#2
        0x0000326e:    4390        .C      BICS     r0,r0,r2
        0x00003270:    05aa        ..      LSLS     r2,r5,#22
        0x00003272:    4310        .C      ORRS     r0,r0,r2
        0x00003274:    6008        .`      STR      r0,[r1,#0]
        0x00003276:    4c0b        .L      LDR      r4,[pc,#44] ; [0x32a4] = 0x40020000
        0x00003278:    2201        ."      MOVS     r2,#1
        0x0000327a:    4909        .I      LDR      r1,[pc,#36] ; [0x32a0] = 0x249f0
        0x0000327c:    4620         F      MOV      r0,r4
        0x0000327e:    f7fdfae1    ....    BL       DrvI2C_Init ; 0x844
        0x00003282:    6960        `i      LDR      r0,[r4,#0x14]
        0x00003284:    4328        (C      ORRS     r0,r0,r5
        0x00003286:    6160        `a      STR      r0,[r4,#0x14]
        0x00003288:    6960        `i      LDR      r0,[r4,#0x14]
        0x0000328a:    2104        .!      MOVS     r1,#4
        0x0000328c:    4308        .C      ORRS     r0,r0,r1
        0x0000328e:    6160        `a      STR      r0,[r4,#0x14]
        0x00003290:    bd70        p.      POP      {r4-r6,pc}
    $d
        0x00003292:    0000        ..      DCW    0
        0x00003294:    50004140    @A.P    DCD    1342193984
        0x00003298:    50000040    @..P    DCD    1342177344
        0x0000329c:    e000e410    ....    DCD    3758154768
        0x000032a0:    000249f0    .I..    DCD    150000
        0x000032a4:    40020000    ...@    DCD    1073872896
    $t
    i.i2cWriteByte
    i2cWriteByte
        0x000032a8:    b5f1        ..      PUSH     {r0,r4-r7,lr}
        0x000032aa:    2480        .$      MOVS     r4,#0x80
        0x000032ac:    2500        .%      MOVS     r5,#0
        0x000032ae:    4f0f        .O      LDR      r7,[pc,#60] ; [0x32ec] = 0x5000422c
        0x000032b0:    462e        .F      MOV      r6,r5
        0x000032b2:    603e        >`      STR      r6,[r7,#0]
        0x000032b4:    2003        .       MOVS     r0,#3
        0x000032b6:    f001f973    ..s.    BL       sysDelayUs ; 0x45a0
        0x000032ba:    9800        ..      LDR      r0,[sp,#0]
        0x000032bc:    4220         B      TST      r0,r4
        0x000032be:    d004        ..      BEQ      0x32ca ; i2cWriteByte + 34
        0x000032c0:    490a        .I      LDR      r1,[pc,#40] ; [0x32ec] = 0x5000422c
        0x000032c2:    2001        .       MOVS     r0,#1
        0x000032c4:    1f09        ..      SUBS     r1,r1,#4
        0x000032c6:    6008        .`      STR      r0,[r1,#0]
        0x000032c8:    e002        ..      B        0x32d0 ; i2cWriteByte + 40
        0x000032ca:    4808        .H      LDR      r0,[pc,#32] ; [0x32ec] = 0x5000422c
        0x000032cc:    1f00        ..      SUBS     r0,r0,#4
        0x000032ce:    6006        .`      STR      r6,[r0,#0]
        0x000032d0:    2003        .       MOVS     r0,#3
        0x000032d2:    f001f965    ..e.    BL       sysDelayUs ; 0x45a0
        0x000032d6:    2001        .       MOVS     r0,#1
        0x000032d8:    6038        8`      STR      r0,[r7,#0]
        0x000032da:    2006        .       MOVS     r0,#6
        0x000032dc:    f001f960    ..`.    BL       sysDelayUs ; 0x45a0
        0x000032e0:    0864        d.      LSRS     r4,r4,#1
        0x000032e2:    1c6d        m.      ADDS     r5,r5,#1
        0x000032e4:    2d08        .-      CMP      r5,#8
        0x000032e6:    d3e4        ..      BCC      0x32b2 ; i2cWriteByte + 10
        0x000032e8:    bdf8        ..      POP      {r3-r7,pc}
    $d
        0x000032ea:    0000        ..      DCW    0
        0x000032ec:    5000422c    ,B.P    DCD    1342194220
    $t
    i.i2sStart
    i2sStart
        0x000032f0:    b510        ..      PUSH     {r4,lr}
        0x000032f2:    f7fdfea3    ....    BL       I2S_CLR_TXFIFO ; 0x103c
        0x000032f6:    4c0b        .L      LDR      r4,[pc,#44] ; [0x3324] = 0x401a0000
        0x000032f8:    6820         h      LDR      r0,[r4,#0]
        0x000032fa:    2102        .!      MOVS     r1,#2
        0x000032fc:    4308        .C      ORRS     r0,r0,r1
        0x000032fe:    6020         `      STR      r0,[r4,#0]
        0x00003300:    f7fdfe92    ....    BL       I2S_CLR_RXFIFO ; 0x1028
        0x00003304:    6820         h      LDR      r0,[r4,#0]
        0x00003306:    2104        .!      MOVS     r1,#4
        0x00003308:    4308        .C      ORRS     r0,r0,r1
        0x0000330a:    6020         `      STR      r0,[r4,#0]
        0x0000330c:    4608        .F      MOV      r0,r1
        0x0000330e:    f7fdfadb    ....    BL       DrvI2S_EnableInt ; 0x8c8
        0x00003312:    4805        .H      LDR      r0,[pc,#20] ; [0x3328] = 0xe000e418
        0x00003314:    6801        .h      LDR      r1,[r0,#0]
        0x00003316:    0209        ..      LSLS     r1,r1,#8
        0x00003318:    0a09        ..      LSRS     r1,r1,#8
        0x0000331a:    0362        b.      LSLS     r2,r4,#13
        0x0000331c:    4311        .C      ORRS     r1,r1,r2
        0x0000331e:    6001        .`      STR      r1,[r0,#0]
        0x00003320:    bd10        ..      POP      {r4,pc}
    $d
        0x00003322:    0000        ..      DCW    0
        0x00003324:    401a0000    ...@    DCD    1075445760
        0x00003328:    e000e418    ....    DCD    3758154776
    $t
    i.initI2cDataBlock
    initI2cDataBlock
        0x0000332c:    b530        0.      PUSH     {r4,r5,lr}
        0x0000332e:    9d04        ..      LDR      r5,[sp,#0x10]
        0x00003330:    9c03        ..      LDR      r4,[sp,#0xc]
        0x00003332:    7001        .p      STRB     r1,[r0,#0]
        0x00003334:    7042        Bp      STRB     r2,[r0,#1]
        0x00003336:    7083        .p      STRB     r3,[r0,#2]
        0x00003338:    70c4        .p      STRB     r4,[r0,#3]
        0x0000333a:    7104        .q      STRB     r4,[r0,#4]
        0x0000333c:    2100        .!      MOVS     r1,#0
        0x0000333e:    6085        .`      STR      r5,[r0,#8]
        0x00003340:    60c1        .`      STR      r1,[r0,#0xc]
        0x00003342:    bd30        0.      POP      {r4,r5,pc}
    i.iputc
    iputc
        0x00003344:    b530        0.      PUSH     {r4,r5,lr}
        0x00003346:    4a0d        .J      LDR      r2,[pc,#52] ; [0x337c] = 0x40050000
        0x00003348:    2102        .!      MOVS     r1,#2
        0x0000334a:    6853        Sh      LDR      r3,[r2,#4]
        0x0000334c:    438b        .C      BICS     r3,r3,r1
        0x0000334e:    6053        S`      STR      r3,[r2,#4]
        0x00003350:    4b0b        .K      LDR      r3,[pc,#44] ; [0x3380] = 0x200006b4
        0x00003352:    4d0c        .M      LDR      r5,[pc,#48] ; [0x3384] = 0x20001ac0
        0x00003354:    68d9        .h      LDR      r1,[r3,#0xc]
        0x00003356:    05cc        ..      LSLS     r4,r1,#23
        0x00003358:    0de4        ..      LSRS     r4,r4,#23
        0x0000335a:    5528        (U      STRB     r0,[r5,r4]
        0x0000335c:    1c49        I.      ADDS     r1,r1,#1
        0x0000335e:    60d9        .`      STR      r1,[r3,#0xc]
        0x00003360:    6851        Qh      LDR      r1,[r2,#4]
        0x00003362:    2002        .       MOVS     r0,#2
        0x00003364:    4301        .C      ORRS     r1,r1,r0
        0x00003366:    6051        Q`      STR      r1,[r2,#4]
        0x00003368:    6958        Xi      LDR      r0,[r3,#0x14]
        0x0000336a:    2801        .(      CMP      r0,#1
        0x0000336c:    d105        ..      BNE      0x337a ; iputc + 54
        0x0000336e:    2000        .       MOVS     r0,#0
        0x00003370:    6158        Xa      STR      r0,[r3,#0x14]
        0x00003372:    6851        Qh      LDR      r1,[r2,#4]
        0x00003374:    2002        .       MOVS     r0,#2
        0x00003376:    4301        .C      ORRS     r1,r1,r0
        0x00003378:    6051        Q`      STR      r1,[r2,#4]
        0x0000337a:    bd30        0.      POP      {r4,r5,pc}
    $d
        0x0000337c:    40050000    ...@    DCD    1074069504
        0x00003380:    200006b4    ...     DCD    536872628
        0x00003384:    20001ac0    ...     DCD    536877760
    $t
    i.iputs
    iputs
        0x00003388:    b5f0        ..      PUSH     {r4-r7,lr}
        0x0000338a:    4f10        .O      LDR      r7,[pc,#64] ; [0x33cc] = 0x40050000
        0x0000338c:    2100        .!      MOVS     r1,#0
        0x0000338e:    687b        {h      LDR      r3,[r7,#4]
        0x00003390:    2202        ."      MOVS     r2,#2
        0x00003392:    4393        .C      BICS     r3,r3,r2
        0x00003394:    607b        {`      STR      r3,[r7,#4]
        0x00003396:    4e0e        .N      LDR      r6,[pc,#56] ; [0x33d0] = 0x200006b4
        0x00003398:    4c0e        .L      LDR      r4,[pc,#56] ; [0x33d4] = 0x20001ac0
        0x0000339a:    e006        ..      B        0x33aa ; iputs + 34
        0x0000339c:    68f2        .h      LDR      r2,[r6,#0xc]
        0x0000339e:    05d5        ..      LSLS     r5,r2,#23
        0x000033a0:    0ded        ..      LSRS     r5,r5,#23
        0x000033a2:    1c52        R.      ADDS     r2,r2,#1
        0x000033a4:    5563        cU      STRB     r3,[r4,r5]
        0x000033a6:    1c49        I.      ADDS     r1,r1,#1
        0x000033a8:    60f2        .`      STR      r2,[r6,#0xc]
        0x000033aa:    5c43        C\      LDRB     r3,[r0,r1]
        0x000033ac:    2b00        .+      CMP      r3,#0
        0x000033ae:    d1f5        ..      BNE      0x339c ; iputs + 20
        0x000033b0:    6879        yh      LDR      r1,[r7,#4]
        0x000033b2:    2002        .       MOVS     r0,#2
        0x000033b4:    4301        .C      ORRS     r1,r1,r0
        0x000033b6:    6079        y`      STR      r1,[r7,#4]
        0x000033b8:    6970        pi      LDR      r0,[r6,#0x14]
        0x000033ba:    2801        .(      CMP      r0,#1
        0x000033bc:    d105        ..      BNE      0x33ca ; iputs + 66
        0x000033be:    2000        .       MOVS     r0,#0
        0x000033c0:    6170        pa      STR      r0,[r6,#0x14]
        0x000033c2:    6879        yh      LDR      r1,[r7,#4]
        0x000033c4:    2002        .       MOVS     r0,#2
        0x000033c6:    4301        .C      ORRS     r1,r1,r0
        0x000033c8:    6079        y`      STR      r1,[r7,#4]
        0x000033ca:    bdf0        ..      POP      {r4-r7,pc}
    $d
        0x000033cc:    40050000    ...@    DCD    1074069504
        0x000033d0:    200006b4    ...     DCD    536872628
        0x000033d4:    20001ac0    ...     DCD    536877760
    $t
    i.isDwhp83Linked
    isDwhp83Linked
        0x000033d8:    4803        .H      LDR      r0,[pc,#12] ; [0x33e8] = 0x200000a4
        0x000033da:    6980        .i      LDR      r0,[r0,#0x18]
        0x000033dc:    2804        .(      CMP      r0,#4
        0x000033de:    d901        ..      BLS      0x33e4 ; isDwhp83Linked + 12
        0x000033e0:    2000        .       MOVS     r0,#0
        0x000033e2:    4770        pG      BX       lr
        0x000033e4:    2001        .       MOVS     r0,#1
        0x000033e6:    4770        pG      BX       lr
    $d
        0x000033e8:    200000a4    ...     DCD    536871076
    $t
    i.ledColorSet
    ledColorSet
        0x000033ec:    b5f0        ..      PUSH     {r4-r7,lr}
        0x000033ee:    2200        ."      MOVS     r2,#0
        0x000033f0:    4915        .I      LDR      r1,[pc,#84] ; [0x3448] = 0x200002d0
        0x000033f2:    2610        .&      MOVS     r6,#0x10
        0x000033f4:    2414        .$      MOVS     r4,#0x14
        0x000033f6:    250a        .%      MOVS     r5,#0xa
        0x000033f8:    2712        .'      MOVS     r7,#0x12
        0x000033fa:    0003        ..      MOVS     r3,r0
        0x000033fc:    f7fef994    ....    BL       __ARM_common_switch8 ; 0x1728
    $d
        0x00003400:    0d08060a    ....    DCD    218629642
        0x00003404:    1f1c180b    ....    DCD    521934859
        0x00003408:    170b1410    ....    DCD    386602000
    $t
        0x0000340c:    618a        .a      STR      r2,[r1,#0x18]
        0x0000340e:    e000        ..      B        0x3412 ; ledColorSet + 38
        0x00003410:    618e        .a      STR      r6,[r1,#0x18]
        0x00003412:    620a        .b      STR      r2,[r1,#0x20]
        0x00003414:    e00e        ..      B        0x3434 ; ledColorSet + 72
        0x00003416:    618a        .a      STR      r2,[r1,#0x18]
        0x00003418:    e00f        ..      B        0x343a ; ledColorSet + 78
        0x0000341a:    620d        .b      STR      r5,[r1,#0x20]
        0x0000341c:    618a        .a      STR      r2,[r1,#0x18]
        0x0000341e:    e009        ..      B        0x3434 ; ledColorSet + 72
        0x00003420:    2005        .       MOVS     r0,#5
        0x00003422:    618d        .a      STR      r5,[r1,#0x18]
        0x00003424:    6208        .b      STR      r0,[r1,#0x20]
        0x00003426:    e001        ..      B        0x342c ; ledColorSet + 64
        0x00003428:    620d        .b      STR      r5,[r1,#0x20]
        0x0000342a:    618a        .a      STR      r2,[r1,#0x18]
        0x0000342c:    61cd        .a      STR      r5,[r1,#0x1c]
        0x0000342e:    bdf0        ..      POP      {r4-r7,pc}
        0x00003430:    620f        .b      STR      r7,[r1,#0x20]
        0x00003432:    618e        .a      STR      r6,[r1,#0x18]
        0x00003434:    61ca        .a      STR      r2,[r1,#0x1c]
        0x00003436:    bdf0        ..      POP      {r4-r7,pc}
        0x00003438:    618c        .a      STR      r4,[r1,#0x18]
        0x0000343a:    620a        .b      STR      r2,[r1,#0x20]
        0x0000343c:    e002        ..      B        0x3444 ; ledColorSet + 88
        0x0000343e:    200d        .       MOVS     r0,#0xd
        0x00003440:    620f        .b      STR      r7,[r1,#0x20]
        0x00003442:    6188        .a      STR      r0,[r1,#0x18]
        0x00003444:    61cc        .a      STR      r4,[r1,#0x1c]
        0x00003446:    bdf0        ..      POP      {r4-r7,pc}
    $d
        0x00003448:    200002d0    ...     DCD    536871632
    $t
    i.ledInit
    ledInit
        0x0000344c:    b510        ..      PUSH     {r4,lr}
        0x0000344e:    490e        .I      LDR      r1,[pc,#56] ; [0x3488] = 0x50004230
        0x00003450:    2000        .       MOVS     r0,#0
        0x00003452:    6008        .`      STR      r0,[r1,#0]
        0x00003454:    1d09        ..      ADDS     r1,r1,#4
        0x00003456:    6008        .`      STR      r0,[r1,#0]
        0x00003458:    1d09        ..      ADDS     r1,r1,#4
        0x0000345a:    6008        .`      STR      r0,[r1,#0]
        0x0000345c:    4c0b        .L      LDR      r4,[pc,#44] ; [0x348c] = 0x50004000
        0x0000345e:    2201        ."      MOVS     r2,#1
        0x00003460:    210c        .!      MOVS     r1,#0xc
        0x00003462:    4620         F      MOV      r0,r4
        0x00003464:    f7fdfca2    ....    BL       GPIO_SET_MODE ; 0xdac
        0x00003468:    2201        ."      MOVS     r2,#1
        0x0000346a:    210d        .!      MOVS     r1,#0xd
        0x0000346c:    4620         F      MOV      r0,r4
        0x0000346e:    f7fdfc9d    ....    BL       GPIO_SET_MODE ; 0xdac
        0x00003472:    2201        ."      MOVS     r2,#1
        0x00003474:    210e        .!      MOVS     r1,#0xe
        0x00003476:    4620         F      MOV      r0,r4
        0x00003478:    f7fdfc98    ....    BL       GPIO_SET_MODE ; 0xdac
        0x0000347c:    2000        .       MOVS     r0,#0
        0x0000347e:    f7ffffb5    ....    BL       ledColorSet ; 0x33ec
        0x00003482:    f001f8b1    ....    BL       timerInit ; 0x45e8
        0x00003486:    bd10        ..      POP      {r4,pc}
    $d
        0x00003488:    50004230    0B.P    DCD    1342194224
        0x0000348c:    50004000    .@.P    DCD    1342193664
    $t
    i.ledTask
    ledTask
        0x00003490:    b5f8        ..      PUSH     {r3-r7,lr}
        0x00003492:    48fe        .H      LDR      r0,[pc,#1016] ; [0x388c] = 0x20000074
        0x00003494:    4dfe        .M      LDR      r5,[pc,#1016] ; [0x3890] = 0x200002d0
        0x00003496:    7801        .x      LDRB     r1,[r0,#0]
        0x00003498:    2900        .)      CMP      r1,#0
        0x0000349a:    d07b        {.      BEQ      0x3594 ; ledTask + 260
        0x0000349c:    6ba8        .k      LDR      r0,[r5,#0x38]
        0x0000349e:    4ffd        .O      LDR      r7,[pc,#1012] ; [0x3894] = 0x200000dc
        0x000034a0:    1c40        @.      ADDS     r0,r0,#1
        0x000034a2:    2601        .&      MOVS     r6,#1
        0x000034a4:    2400        .$      MOVS     r4,#0
        0x000034a6:    63a8        .c      STR      r0,[r5,#0x38]
        0x000034a8:    2864        d(      CMP      r0,#0x64
        0x000034aa:    d10b        ..      BNE      0x34c4 ; ledTask + 52
        0x000034ac:    48fa        .H      LDR      r0,[pc,#1000] ; [0x3898] = 0x20000062
        0x000034ae:    7800        .x      LDRB     r0,[r0,#0]
        0x000034b0:    2800        .(      CMP      r0,#0
        0x000034b2:    d106        ..      BNE      0x34c2 ; ledTask + 50
        0x000034b4:    2901        .)      CMP      r1,#1
        0x000034b6:    d104        ..      BNE      0x34c2 ; ledTask + 50
        0x000034b8:    f7fefc3e    ..>.    BL       ampGetStatus ; 0x1d38
        0x000034bc:    2800        .(      CMP      r0,#0
        0x000034be:    d000        ..      BEQ      0x34c2 ; ledTask + 50
        0x000034c0:    703e        >p      STRB     r6,[r7,#0]
        0x000034c2:    63ac        .c      STR      r4,[r5,#0x38]
        0x000034c4:    f7feff44    ..D.    BL       amp_i2c_status_check ; 0x2350
        0x000034c8:    2800        .(      CMP      r0,#0
        0x000034ca:    d022        ".      BEQ      0x3512 ; ledTask + 130
        0x000034cc:    6b68        hk      LDR      r0,[r5,#0x34]
        0x000034ce:    1c40        @.      ADDS     r0,r0,#1
        0x000034d0:    6368        hc      STR      r0,[r5,#0x34]
        0x000034d2:    2823        #(      CMP      r0,#0x23
        0x000034d4:    d901        ..      BLS      0x34da ; ledTask + 74
        0x000034d6:    636c        lc      STR      r4,[r5,#0x34]
        0x000034d8:    703e        >p      STRB     r6,[r7,#0]
        0x000034da:    4ff0        .O      LDR      r7,[pc,#960] ; [0x389c] = 0x200006ec
        0x000034dc:    7838        8x      LDRB     r0,[r7,#0]
        0x000034de:    2801        .(      CMP      r0,#1
        0x000034e0:    d019        ..      BEQ      0x3516 ; ledTask + 134
        0x000034e2:    49ef        .I      LDR      r1,[pc,#956] ; [0x38a0] = 0x200006ed
        0x000034e4:    7809        .x      LDRB     r1,[r1,#0]
        0x000034e6:    4281        .B      CMP      r1,r0
        0x000034e8:    d005        ..      BEQ      0x34f6 ; ledTask + 102
        0x000034ea:    2002        .       MOVS     r0,#2
        0x000034ec:    f000fc60    ..`.    BL       playMusic ; 0x3db0
        0x000034f0:    48eb        .H      LDR      r0,[pc,#940] ; [0x38a0] = 0x200006ed
        0x000034f2:    7839        9x      LDRB     r1,[r7,#0]
        0x000034f4:    7001        .p      STRB     r1,[r0,#0]
        0x000034f6:    49eb        .I      LDR      r1,[pc,#940] ; [0x38a4] = 0x20000071
        0x000034f8:    4aeb        .J      LDR      r2,[pc,#940] ; [0x38a8] = 0x20000070
        0x000034fa:    7808        .x      LDRB     r0,[r1,#0]
        0x000034fc:    7813        .x      LDRB     r3,[r2,#0]
        0x000034fe:    4298        .B      CMP      r0,r3
        0x00003500:    d017        ..      BEQ      0x3532 ; ledTask + 162
        0x00003502:    4aea        .J      LDR      r2,[pc,#936] ; [0x38ac] = 0x20000072
        0x00003504:    7810        .x      LDRB     r0,[r2,#0]
        0x00003506:    1c40        @.      ADDS     r0,r0,#1
        0x00003508:    b2c0        ..      UXTB     r0,r0
        0x0000350a:    7010        .p      STRB     r0,[r2,#0]
        0x0000350c:    283c        <(      CMP      r0,#0x3c
        0x0000350e:    d00e        ..      BEQ      0x352e ; ledTask + 158
        0x00003510:    e00f        ..      B        0x3532 ; ledTask + 162
        0x00003512:    636c        lc      STR      r4,[r5,#0x34]
        0x00003514:    e7e1        ..      B        0x34da ; ledTask + 74
        0x00003516:    48e2        .H      LDR      r0,[pc,#904] ; [0x38a0] = 0x200006ed
        0x00003518:    7800        .x      LDRB     r0,[r0,#0]
        0x0000351a:    2801        .(      CMP      r0,#1
        0x0000351c:    d0eb        ..      BEQ      0x34f6 ; ledTask + 102
        0x0000351e:    2003        .       MOVS     r0,#3
        0x00003520:    f000fc46    ..F.    BL       playMusic ; 0x3db0
        0x00003524:    48de        .H      LDR      r0,[pc,#888] ; [0x38a0] = 0x200006ed
        0x00003526:    7839        9x      LDRB     r1,[r7,#0]
        0x00003528:    7001        .p      STRB     r1,[r0,#0]
        0x0000352a:    612c        ,a      STR      r4,[r5,#0x10]
        0x0000352c:    e7e3        ..      B        0x34f6 ; ledTask + 102
        0x0000352e:    7014        .p      STRB     r4,[r2,#0]
        0x00003530:    700b        .p      STRB     r3,[r1,#0]
        0x00003532:    7808        .x      LDRB     r0,[r1,#0]
        0x00003534:    2800        .(      CMP      r0,#0
        0x00003536:    d02e        ..      BEQ      0x3596 ; ledTask + 262
        0x00003538:    7838        8x      LDRB     r0,[r7,#0]
        0x0000353a:    2800        .(      CMP      r0,#0
        0x0000353c:    d02b        +.      BEQ      0x3596 ; ledTask + 262
        0x0000353e:    48dc        .H      LDR      r0,[pc,#880] ; [0x38b0] = 0x20000075
        0x00003540:    7800        .x      LDRB     r0,[r0,#0]
        0x00003542:    2801        .(      CMP      r0,#1
        0x00003544:    d005        ..      BEQ      0x3552 ; ledTask + 194
        0x00003546:    2802        .(      CMP      r0,#2
        0x00003548:    d123        #.      BNE      0x3592 ; ledTask + 258
        0x0000354a:    48da        .H      LDR      r0,[pc,#872] ; [0x38b4] = 0x20000064
        0x0000354c:    7800        .x      LDRB     r0,[r0,#0]
        0x0000354e:    2800        .(      CMP      r0,#0
        0x00003550:    d11f        ..      BNE      0x3592 ; ledTask + 258
        0x00003552:    f7fefc95    ....    BL       ampMute ; 0x1e80
        0x00003556:    48d8        .H      LDR      r0,[pc,#864] ; [0x38b8] = 0x20000060
        0x00003558:    7006        .p      STRB     r6,[r0,#0]
        0x0000355a:    48d8        .H      LDR      r0,[pc,#864] ; [0x38bc] = 0x20000061
        0x0000355c:    7004        .p      STRB     r4,[r0,#0]
        0x0000355e:    48d4        .H      LDR      r0,[pc,#848] ; [0x38b0] = 0x20000075
        0x00003560:    7004        .p      STRB     r4,[r0,#0]
        0x00003562:    48d7        .H      LDR      r0,[pc,#860] ; [0x38c0] = 0x20000076
        0x00003564:    7800        .x      LDRB     r0,[r0,#0]
        0x00003566:    7028        (p      STRB     r0,[r5,#0]
        0x00003568:    f7ffff40    ..@.    BL       ledColorSet ; 0x33ec
        0x0000356c:    48d5        .H      LDR      r0,[pc,#852] ; [0x38c4] = 0x500042b4
        0x0000356e:    6006        .`      STR      r6,[r0,#0]
        0x00003570:    48d4        .H      LDR      r0,[pc,#848] ; [0x38c4] = 0x500042b4
        0x00003572:    3808        .8      SUBS     r0,r0,#8
        0x00003574:    6006        .`      STR      r6,[r0,#0]
        0x00003576:    20ff        .       MOVS     r0,#0xff
        0x00003578:    30f5        .0      ADDS     r0,r0,#0xf5
        0x0000357a:    f000fffb    ....    BL       sysDelayMs ; 0x4574
        0x0000357e:    f001f97b    ..{.    BL       unMute ; 0x4878
        0x00003582:    2014        .       MOVS     r0,#0x14
        0x00003584:    f000fff6    ....    BL       sysDelayMs ; 0x4574
        0x00003588:    48cf        .H      LDR      r0,[pc,#828] ; [0x38c8] = 0x2000006c
        0x0000358a:    6004        .`      STR      r4,[r0,#0]
        0x0000358c:    48cf        .H      LDR      r0,[pc,#828] ; [0x38cc] = 0x20000065
        0x0000358e:    7004        .p      STRB     r4,[r0,#0]
        0x00003590:    612c        ,a      STR      r4,[r5,#0x10]
        0x00003592:    e07a        z.      B        0x368a ; ledTask + 506
        0x00003594:    e177        w.      B        0x3886 ; ledTask + 1014
        0x00003596:    48c6        .H      LDR      r0,[pc,#792] ; [0x38b0] = 0x20000075
        0x00003598:    7800        .x      LDRB     r0,[r0,#0]
        0x0000359a:    2800        .(      CMP      r0,#0
        0x0000359c:    d005        ..      BEQ      0x35aa ; ledTask + 282
        0x0000359e:    2802        .(      CMP      r0,#2
        0x000035a0:    d146        F.      BNE      0x3630 ; ledTask + 416
        0x000035a2:    48c4        .H      LDR      r0,[pc,#784] ; [0x38b4] = 0x20000064
        0x000035a4:    7800        .x      LDRB     r0,[r0,#0]
        0x000035a6:    2800        .(      CMP      r0,#0
        0x000035a8:    d16f        o.      BNE      0x368a ; ledTask + 506
        0x000035aa:    f7fcfe35    ..5.    BL       AUX_DETECT ; 0x218
        0x000035ae:    2800        .(      CMP      r0,#0
        0x000035b0:    d003        ..      BEQ      0x35ba ; ledTask + 298
        0x000035b2:    48c7        .H      LDR      r0,[pc,#796] ; [0x38d0] = 0x200006ee
        0x000035b4:    7800        .x      LDRB     r0,[r0,#0]
        0x000035b6:    2800        .(      CMP      r0,#0
        0x000035b8:    d004        ..      BEQ      0x35c4 ; ledTask + 308
        0x000035ba:    48bd        .H      LDR      r0,[pc,#756] ; [0x38b0] = 0x20000075
        0x000035bc:    7800        .x      LDRB     r0,[r0,#0]
        0x000035be:    2802        .(      CMP      r0,#2
        0x000035c0:    d013        ..      BEQ      0x35ea ; ledTask + 346
        0x000035c2:    e035        5.      B        0x3630 ; ledTask + 416
        0x000035c4:    f7fefc5c    ..\.    BL       ampMute ; 0x1e80
        0x000035c8:    48bb        .H      LDR      r0,[pc,#748] ; [0x38b8] = 0x20000060
        0x000035ca:    7006        .p      STRB     r6,[r0,#0]
        0x000035cc:    48bb        .H      LDR      r0,[pc,#748] ; [0x38bc] = 0x20000061
        0x000035ce:    7004        .p      STRB     r4,[r0,#0]
        0x000035d0:    48b7        .H      LDR      r0,[pc,#732] ; [0x38b0] = 0x20000075
        0x000035d2:    7006        .p      STRB     r6,[r0,#0]
        0x000035d4:    48ba        .H      LDR      r0,[pc,#744] ; [0x38c0] = 0x20000076
        0x000035d6:    7840        @x      LDRB     r0,[r0,#1]
        0x000035d8:    7028        (p      STRB     r0,[r5,#0]
        0x000035da:    f7ffff07    ....    BL       ledColorSet ; 0x33ec
        0x000035de:    48b9        .H      LDR      r0,[pc,#740] ; [0x38c4] = 0x500042b4
        0x000035e0:    6006        .`      STR      r6,[r0,#0]
        0x000035e2:    48b8        .H      LDR      r0,[pc,#736] ; [0x38c4] = 0x500042b4
        0x000035e4:    3808        .8      SUBS     r0,r0,#8
        0x000035e6:    6004        .`      STR      r4,[r0,#0]
        0x000035e8:    e015        ..      B        0x3616 ; ledTask + 390
        0x000035ea:    48b2        .H      LDR      r0,[pc,#712] ; [0x38b4] = 0x20000064
        0x000035ec:    7800        .x      LDRB     r0,[r0,#0]
        0x000035ee:    2800        .(      CMP      r0,#0
        0x000035f0:    d14b        K.      BNE      0x368a ; ledTask + 506
        0x000035f2:    f7fefc45    ..E.    BL       ampMute ; 0x1e80
        0x000035f6:    48b0        .H      LDR      r0,[pc,#704] ; [0x38b8] = 0x20000060
        0x000035f8:    7006        .p      STRB     r6,[r0,#0]
        0x000035fa:    48b0        .H      LDR      r0,[pc,#704] ; [0x38bc] = 0x20000061
        0x000035fc:    7004        .p      STRB     r4,[r0,#0]
        0x000035fe:    48ac        .H      LDR      r0,[pc,#688] ; [0x38b0] = 0x20000075
        0x00003600:    7004        .p      STRB     r4,[r0,#0]
        0x00003602:    48af        .H      LDR      r0,[pc,#700] ; [0x38c0] = 0x20000076
        0x00003604:    7800        .x      LDRB     r0,[r0,#0]
        0x00003606:    7028        (p      STRB     r0,[r5,#0]
        0x00003608:    f7fffef0    ....    BL       ledColorSet ; 0x33ec
        0x0000360c:    48ad        .H      LDR      r0,[pc,#692] ; [0x38c4] = 0x500042b4
        0x0000360e:    6006        .`      STR      r6,[r0,#0]
        0x00003610:    48ac        .H      LDR      r0,[pc,#688] ; [0x38c4] = 0x500042b4
        0x00003612:    3808        .8      SUBS     r0,r0,#8
        0x00003614:    6006        .`      STR      r6,[r0,#0]
        0x00003616:    20ff        .       MOVS     r0,#0xff
        0x00003618:    30f5        .0      ADDS     r0,r0,#0xf5
        0x0000361a:    f000ffab    ....    BL       sysDelayMs ; 0x4574
        0x0000361e:    f001f92b    ..+.    BL       unMute ; 0x4878
        0x00003622:    2014        .       MOVS     r0,#0x14
        0x00003624:    f000ffa6    ....    BL       sysDelayMs ; 0x4574
        0x00003628:    48a7        .H      LDR      r0,[pc,#668] ; [0x38c8] = 0x2000006c
        0x0000362a:    6004        .`      STR      r4,[r0,#0]
        0x0000362c:    48a7        .H      LDR      r0,[pc,#668] ; [0x38cc] = 0x20000065
        0x0000362e:    7004        .p      STRB     r4,[r0,#0]
        0x00003630:    489f        .H      LDR      r0,[pc,#636] ; [0x38b0] = 0x20000075
        0x00003632:    7800        .x      LDRB     r0,[r0,#0]
        0x00003634:    2801        .(      CMP      r0,#1
        0x00003636:    d128        (.      BNE      0x368a ; ledTask + 506
        0x00003638:    f7fcfdee    ....    BL       AUX_DETECT ; 0x218
        0x0000363c:    2800        .(      CMP      r0,#0
        0x0000363e:    d005        ..      BEQ      0x364c ; ledTask + 444
        0x00003640:    48a3        .H      LDR      r0,[pc,#652] ; [0x38d0] = 0x200006ee
        0x00003642:    7800        .x      LDRB     r0,[r0,#0]
        0x00003644:    2804        .(      CMP      r0,#4
        0x00003646:    d001        ..      BEQ      0x364c ; ledTask + 444
        0x00003648:    2802        .(      CMP      r0,#2
        0x0000364a:    d11e        ..      BNE      0x368a ; ledTask + 506
        0x0000364c:    f7fefc18    ....    BL       ampMute ; 0x1e80
        0x00003650:    4899        .H      LDR      r0,[pc,#612] ; [0x38b8] = 0x20000060
        0x00003652:    7006        .p      STRB     r6,[r0,#0]
        0x00003654:    4899        .H      LDR      r0,[pc,#612] ; [0x38bc] = 0x20000061
        0x00003656:    7004        .p      STRB     r4,[r0,#0]
        0x00003658:    4895        .H      LDR      r0,[pc,#596] ; [0x38b0] = 0x20000075
        0x0000365a:    7004        .p      STRB     r4,[r0,#0]
        0x0000365c:    4898        .H      LDR      r0,[pc,#608] ; [0x38c0] = 0x20000076
        0x0000365e:    7800        .x      LDRB     r0,[r0,#0]
        0x00003660:    7028        (p      STRB     r0,[r5,#0]
        0x00003662:    f7fffec3    ....    BL       ledColorSet ; 0x33ec
        0x00003666:    4897        .H      LDR      r0,[pc,#604] ; [0x38c4] = 0x500042b4
        0x00003668:    6006        .`      STR      r6,[r0,#0]
        0x0000366a:    4896        .H      LDR      r0,[pc,#600] ; [0x38c4] = 0x500042b4
        0x0000366c:    3808        .8      SUBS     r0,r0,#8
        0x0000366e:    6006        .`      STR      r6,[r0,#0]
        0x00003670:    20ff        .       MOVS     r0,#0xff
        0x00003672:    30f5        .0      ADDS     r0,r0,#0xf5
        0x00003674:    f000ff7e    ..~.    BL       sysDelayMs ; 0x4574
        0x00003678:    f001f8fe    ....    BL       unMute ; 0x4878
        0x0000367c:    2014        .       MOVS     r0,#0x14
        0x0000367e:    f000ff79    ..y.    BL       sysDelayMs ; 0x4574
        0x00003682:    4891        .H      LDR      r0,[pc,#580] ; [0x38c8] = 0x2000006c
        0x00003684:    6004        .`      STR      r4,[r0,#0]
        0x00003686:    4891        .H      LDR      r0,[pc,#580] ; [0x38cc] = 0x20000065
        0x00003688:    7004        .p      STRB     r4,[r0,#0]
        0x0000368a:    498b        .I      LDR      r1,[pc,#556] ; [0x38b8] = 0x20000060
        0x0000368c:    7808        .x      LDRB     r0,[r1,#0]
        0x0000368e:    2801        .(      CMP      r0,#1
        0x00003690:    d103        ..      BNE      0x369a ; ledTask + 522
        0x00003692:    4a8a        .J      LDR      r2,[pc,#552] ; [0x38bc] = 0x20000061
        0x00003694:    7810        .x      LDRB     r0,[r2,#0]
        0x00003696:    1c40        @.      ADDS     r0,r0,#1
        0x00003698:    7010        .p      STRB     r0,[r2,#0]
        0x0000369a:    4888        .H      LDR      r0,[pc,#544] ; [0x38bc] = 0x20000061
        0x0000369c:    7800        .x      LDRB     r0,[r0,#0]
        0x0000369e:    280a        .(      CMP      r0,#0xa
        0x000036a0:    d900        ..      BLS      0x36a4 ; ledTask + 532
        0x000036a2:    700c        .p      STRB     r4,[r1,#0]
        0x000036a4:    70ac        .p      STRB     r4,[r5,#2]
        0x000036a6:    f7fdfa71    ..q.    BL       Dwhp83CuMuDetect ; 0xb8c
        0x000036aa:    2800        .(      CMP      r0,#0
        0x000036ac:    d006        ..      BEQ      0x36bc ; ledTask + 556
        0x000036ae:    6ce8        .l      LDR      r0,[r5,#0x4c]
        0x000036b0:    2800        .(      CMP      r0,#0
        0x000036b2:    d104        ..      BNE      0x36be ; ledTask + 558
        0x000036b4:    f7fcffa2    ....    BL       DWP83CuCV ; 0x5fc
        0x000036b8:    64ee        .d      STR      r6,[r5,#0x4c]
        0x000036ba:    e000        ..      B        0x36be ; ledTask + 558
        0x000036bc:    64ec        .d      STR      r4,[r5,#0x4c]
        0x000036be:    7828        (x      LDRB     r0,[r5,#0]
        0x000036c0:    2808        .(      CMP      r0,#8
        0x000036c2:    d014        ..      BEQ      0x36ee ; ledTask + 606
        0x000036c4:    2000        .       MOVS     r0,#0
        0x000036c6:    4204        .B      TST      r4,r0
        0x000036c8:    d002        ..      BEQ      0x36d0 ; ledTask + 576
        0x000036ca:    68e8        .h      LDR      r0,[r5,#0xc]
        0x000036cc:    2801        .(      CMP      r0,#1
        0x000036ce:    d010        ..      BEQ      0x36f2 ; ledTask + 610
        0x000036d0:    4877        wH      LDR      r0,[pc,#476] ; [0x38b0] = 0x20000075
        0x000036d2:    7800        .x      LDRB     r0,[r0,#0]
        0x000036d4:    2802        .(      CMP      r0,#2
        0x000036d6:    d019        ..      BEQ      0x370c ; ledTask + 636
        0x000036d8:    2800        .(      CMP      r0,#0
        0x000036da:    d02a        *.      BEQ      0x3732 ; ledTask + 674
        0x000036dc:    486b        kH      LDR      r0,[pc,#428] ; [0x388c] = 0x20000074
        0x000036de:    7800        .x      LDRB     r0,[r0,#0]
        0x000036e0:    2802        .(      CMP      r0,#2
        0x000036e2:    d04c        L.      BEQ      0x377e ; ledTask + 750
        0x000036e4:    487b        {H      LDR      r0,[pc,#492] ; [0x38d4] = 0x20000067
        0x000036e6:    7800        .x      LDRB     r0,[r0,#0]
        0x000036e8:    2801        .(      CMP      r0,#1
        0x000036ea:    d042        B.      BEQ      0x3772 ; ledTask + 738
        0x000036ec:    e047        G.      B        0x377e ; ledTask + 750
        0x000036ee:    2001        .       MOVS     r0,#1
        0x000036f0:    e7e9        ..      B        0x36c6 ; ledTask + 566
        0x000036f2:    200a        .       MOVS     r0,#0xa
        0x000036f4:    60ec        .`      STR      r4,[r5,#0xc]
        0x000036f6:    63e8        .c      STR      r0,[r5,#0x3c]
        0x000036f8:    2003        .       MOVS     r0,#3
        0x000036fa:    f000fb59    ..Y.    BL       playMusic ; 0x3db0
        0x000036fe:    2038        8       MOVS     r0,#0x38
        0x00003700:    f000f93d    ..=.    BL       logEvent ; 0x397e
        0x00003704:    2200        ."      MOVS     r2,#0
        0x00003706:    4b74        tK      LDR      r3,[pc,#464] ; [0x38d8] = 0x251d
        0x00003708:    21c8        .!      MOVS     r1,#0xc8
        0x0000370a:    e115        ..      B        0x3938 ; ledTask + 1192
        0x0000370c:    6968        hi      LDR      r0,[r5,#0x14]
        0x0000370e:    2800        .(      CMP      r0,#0
        0x00003710:    d002        ..      BEQ      0x3718 ; ledTask + 648
        0x00003712:    1e40        @.      SUBS     r0,r0,#1
        0x00003714:    6168        ha      STR      r0,[r5,#0x14]
        0x00003716:    e7e5        ..      B        0x36e4 ; ledTask + 596
        0x00003718:    f7fffe5e    ..^.    BL       isDwhp83Linked ; 0x33d8
        0x0000371c:    2800        .(      CMP      r0,#0
        0x0000371e:    d1e1        ..      BNE      0x36e4 ; ledTask + 596
        0x00003720:    6ca8        .l      LDR      r0,[r5,#0x48]
        0x00003722:    1c40        @.      ADDS     r0,r0,#1
        0x00003724:    64a8        .d      STR      r0,[r5,#0x48]
        0x00003726:    2805        .(      CMP      r0,#5
        0x00003728:    d9dc        ..      BLS      0x36e4 ; ledTask + 596
        0x0000372a:    2003        .       MOVS     r0,#3
        0x0000372c:    64ac        .d      STR      r4,[r5,#0x48]
        0x0000372e:    6068        h`      STR      r0,[r5,#4]
        0x00003730:    e7d8        ..      B        0x36e4 ; ledTask + 596
        0x00003732:    7839        9x      LDRB     r1,[r7,#0]
        0x00003734:    2900        .)      CMP      r1,#0
        0x00003736:    d003        ..      BEQ      0x3740 ; ledTask + 688
        0x00003738:    4865        eH      LDR      r0,[pc,#404] ; [0x38d0] = 0x200006ee
        0x0000373a:    7800        .x      LDRB     r0,[r0,#0]
        0x0000373c:    2802        .(      CMP      r0,#2
        0x0000373e:    d10b        ..      BNE      0x3758 ; ledTask + 712
        0x00003740:    6be8        .k      LDR      r0,[r5,#0x3c]
        0x00003742:    2800        .(      CMP      r0,#0
        0x00003744:    d002        ..      BEQ      0x374c ; ledTask + 700
        0x00003746:    1e40        @.      SUBS     r0,r0,#1
        0x00003748:    63e8        .c      STR      r0,[r5,#0x3c]
        0x0000374a:    e005        ..      B        0x3758 ; ledTask + 712
        0x0000374c:    2900        .)      CMP      r1,#0
        0x0000374e:    d00c        ..      BEQ      0x376a ; ledTask + 730
        0x00003750:    2006        .       MOVS     r0,#6
        0x00003752:    63e8        .c      STR      r0,[r5,#0x3c]
        0x00003754:    2003        .       MOVS     r0,#3
        0x00003756:    6068        h`      STR      r0,[r5,#4]
        0x00003758:    485d        ]H      LDR      r0,[pc,#372] ; [0x38d0] = 0x200006ee
        0x0000375a:    7800        .x      LDRB     r0,[r0,#0]
        0x0000375c:    2800        .(      CMP      r0,#0
        0x0000375e:    d00e        ..      BEQ      0x377e ; ledTask + 750
        0x00003760:    4859        YH      LDR      r0,[pc,#356] ; [0x38c8] = 0x2000006c
        0x00003762:    6004        .`      STR      r4,[r0,#0]
        0x00003764:    4859        YH      LDR      r0,[pc,#356] ; [0x38cc] = 0x20000065
        0x00003766:    7004        .p      STRB     r4,[r0,#0]
        0x00003768:    e7bc        ..      B        0x36e4 ; ledTask + 596
        0x0000376a:    2008        .       MOVS     r0,#8
        0x0000376c:    63e8        .c      STR      r0,[r5,#0x3c]
        0x0000376e:    2005        .       MOVS     r0,#5
        0x00003770:    e7f1        ..      B        0x3756 ; ledTask + 710
        0x00003772:    213f        ?!      MOVS     r1,#0x3f
        0x00003774:    2000        .       MOVS     r0,#0
        0x00003776:    f7fefc21    ..!.    BL       ampSendEqs_38 ; 0x1fbc
        0x0000377a:    4856        VH      LDR      r0,[pc,#344] ; [0x38d4] = 0x20000067
        0x0000377c:    7004        .p      STRB     r4,[r0,#0]
        0x0000377e:    6c28        (l      LDR      r0,[r5,#0x40]
        0x00003780:    2800        .(      CMP      r0,#0
        0x00003782:    d013        ..      BEQ      0x37ac ; ledTask + 796
        0x00003784:    2039        9       MOVS     r0,#0x39
        0x00003786:    f000f8fa    ....    BL       logEvent ; 0x397e
        0x0000378a:    f7fcff2b    ..+.    BL       DWHP83UnMute ; 0x5e4
        0x0000378e:    f7fefdc5    ....    BL       ampUnMuteBass ; 0x231c
        0x00003792:    6c28        (l      LDR      r0,[r5,#0x40]
        0x00003794:    2802        .(      CMP      r0,#2
        0x00003796:    d018        ..      BEQ      0x37ca ; ledTask + 826
        0x00003798:    2803        .(      CMP      r0,#3
        0x0000379a:    d019        ..      BEQ      0x37d0 ; ledTask + 832
        0x0000379c:    2009        .       MOVS     r0,#9
        0x0000379e:    7028        (p      STRB     r0,[r5,#0]
        0x000037a0:    f7fffe24    ..$.    BL       ledColorSet ; 0x33ec
        0x000037a4:    2007        .       MOVS     r0,#7
        0x000037a6:    f7feff5f    .._.    BL       changeInputVolumeDown ; 0x2668
        0x000037aa:    642c        ,d      STR      r4,[r5,#0x40]
        0x000037ac:    6928        (i      LDR      r0,[r5,#0x10]
        0x000037ae:    1c40        @.      ADDS     r0,r0,#1
        0x000037b0:    6128        (a      STR      r0,[r5,#0x10]
        0x000037b2:    28b4        .(      CMP      r0,#0xb4
        0x000037b4:    d916        ..      BLS      0x37e4 ; ledTask + 852
        0x000037b6:    201c        .       MOVS     r0,#0x1c
        0x000037b8:    612c        ,a      STR      r4,[r5,#0x10]
        0x000037ba:    60a8        .`      STR      r0,[r5,#8]
        0x000037bc:    6c68        hl      LDR      r0,[r5,#0x44]
        0x000037be:    1c40        @.      ADDS     r0,r0,#1
        0x000037c0:    6468        hd      STR      r0,[r5,#0x44]
        0x000037c2:    2801        .(      CMP      r0,#1
        0x000037c4:    d911        ..      BLS      0x37ea ; ledTask + 858
        0x000037c6:    646c        ld      STR      r4,[r5,#0x44]
        0x000037c8:    e00f        ..      B        0x37ea ; ledTask + 858
        0x000037ca:    4839        9H      LDR      r0,[pc,#228] ; [0x38b0] = 0x20000075
        0x000037cc:    7004        .p      STRB     r4,[r0,#0]
        0x000037ce:    e001        ..      B        0x37d4 ; ledTask + 836
        0x000037d0:    4837        7H      LDR      r0,[pc,#220] ; [0x38b0] = 0x20000075
        0x000037d2:    7006        .p      STRB     r6,[r0,#0]
        0x000037d4:    2001        .       MOVS     r0,#1
        0x000037d6:    f7feff47    ..G.    BL       changeInputVolumeDown ; 0x2668
        0x000037da:    4840        @H      LDR      r0,[pc,#256] ; [0x38dc] = 0x200003d4
        0x000037dc:    6801        .h      LDR      r1,[r0,#0]
        0x000037de:    4840        @H      LDR      r0,[pc,#256] ; [0x38e0] = 0x200003dc
        0x000037e0:    6001        .`      STR      r1,[r0,#0]
        0x000037e2:    e7e2        ..      B        0x37aa ; ledTask + 794
        0x000037e4:    68a8        .h      LDR      r0,[r5,#8]
        0x000037e6:    2800        .(      CMP      r0,#0
        0x000037e8:    d04d        M.      BEQ      0x3886 ; ledTask + 1014
        0x000037ea:    f7fcfea9    ....    BL       DECT_DC ; 0x540
        0x000037ee:    2800        .(      CMP      r0,#0
        0x000037f0:    d149        I.      BNE      0x3886 ; ledTask + 1014
        0x000037f2:    483c        <H      LDR      r0,[pc,#240] ; [0x38e4] = 0x20000398
        0x000037f4:    4e3c        <N      LDR      r6,[pc,#240] ; [0x38e8] = 0x200000a0
        0x000037f6:    7800        .x      LDRB     r0,[r0,#0]
        0x000037f8:    2801        .(      CMP      r0,#1
        0x000037fa:    d014        ..      BEQ      0x3826 ; ledTask + 918
        0x000037fc:    2802        .(      CMP      r0,#2
        0x000037fe:    d002        ..      BEQ      0x3806 ; ledTask + 886
        0x00003800:    2803        .(      CMP      r0,#3
        0x00003802:    d130        0.      BNE      0x3866 ; ledTask + 982
        0x00003804:    e014        ..      B        0x3830 ; ledTask + 928
        0x00003806:    7830        0x      LDRB     r0,[r6,#0]
        0x00003808:    2860        `(      CMP      r0,#0x60
        0x0000380a:    d002        ..      BEQ      0x3812 ; ledTask + 898
        0x0000380c:    2060        `       MOVS     r0,#0x60
        0x0000380e:    f000f8b6    ....    BL       logEvent ; 0x397e
        0x00003812:    f7fcfe95    ....    BL       DECT_DC ; 0x540
        0x00003816:    2800        .(      CMP      r0,#0
        0x00003818:    d120         .      BNE      0x385c ; ledTask + 972
        0x0000381a:    2001        .       MOVS     r0,#1
        0x0000381c:    f7fffde6    ....    BL       ledColorSet ; 0x33ec
        0x00003820:    4832        2H      LDR      r0,[pc,#200] ; [0x38ec] = 0x20000073
        0x00003822:    7004        .p      STRB     r4,[r0,#0]
        0x00003824:    e01a        ..      B        0x385c ; ledTask + 972
        0x00003826:    f7fcfe8b    ....    BL       DECT_DC ; 0x540
        0x0000382a:    2800        .(      CMP      r0,#0
        0x0000382c:    d116        ..      BNE      0x385c ; ledTask + 972
        0x0000382e:    e01a        ..      B        0x3866 ; ledTask + 982
        0x00003830:    f7fcfe86    ....    BL       DECT_DC ; 0x540
        0x00003834:    2800        .(      CMP      r0,#0
        0x00003836:    d016        ..      BEQ      0x3866 ; ledTask + 982
        0x00003838:    7838        8x      LDRB     r0,[r7,#0]
        0x0000383a:    2800        .(      CMP      r0,#0
        0x0000383c:    7828        (x      LDRB     r0,[r5,#0]
        0x0000383e:    d005        ..      BEQ      0x384c ; ledTask + 956
        0x00003840:    2809        .(      CMP      r0,#9
        0x00003842:    d105        ..      BNE      0x3850 ; ledTask + 960
        0x00003844:    6c68        hl      LDR      r0,[r5,#0x44]
        0x00003846:    2800        .(      CMP      r0,#0
        0x00003848:    d002        ..      BEQ      0x3850 ; ledTask + 960
        0x0000384a:    e007        ..      B        0x385c ; ledTask + 972
        0x0000384c:    2809        .(      CMP      r0,#9
        0x0000384e:    d005        ..      BEQ      0x385c ; ledTask + 972
        0x00003850:    7830        0x      LDRB     r0,[r6,#0]
        0x00003852:    285f        _(      CMP      r0,#0x5f
        0x00003854:    d002        ..      BEQ      0x385c ; ledTask + 972
        0x00003856:    205f        _       MOVS     r0,#0x5f
        0x00003858:    f000f891    ....    BL       logEvent ; 0x397e
        0x0000385c:    f7fcfe70    ..p.    BL       DECT_DC ; 0x540
        0x00003860:    2800        .(      CMP      r0,#0
        0x00003862:    d049        I.      BEQ      0x38f8 ; ledTask + 1128
        0x00003864:    e065        e.      B        0x3932 ; ledTask + 1186
        0x00003866:    f7fcfe6b    ..k.    BL       DECT_DC ; 0x540
        0x0000386a:    2800        .(      CMP      r0,#0
        0x0000386c:    d008        ..      BEQ      0x3880 ; ledTask + 1008
        0x0000386e:    68a8        .h      LDR      r0,[r5,#8]
        0x00003870:    280c        .(      CMP      r0,#0xc
        0x00003872:    d105        ..      BNE      0x3880 ; ledTask + 1008
        0x00003874:    7830        0x      LDRB     r0,[r6,#0]
        0x00003876:    2861        a(      CMP      r0,#0x61
        0x00003878:    d002        ..      BEQ      0x3880 ; ledTask + 1008
        0x0000387a:    2061        a       MOVS     r0,#0x61
        0x0000387c:    f000f87f    ....    BL       logEvent ; 0x397e
        0x00003880:    68a8        .h      LDR      r0,[r5,#8]
        0x00003882:    1e40        @.      SUBS     r0,r0,#1
        0x00003884:    60a8        .`      STR      r0,[r5,#8]
        0x00003886:    4811        .H      LDR      r0,[pc,#68] ; [0x38cc] = 0x20000065
        0x00003888:    7800        .x      LDRB     r0,[r0,#0]
        0x0000388a:    e031        1.      B        0x38f0 ; ledTask + 1120
    $d
        0x0000388c:    20000074    t..     DCD    536871028
        0x00003890:    200002d0    ...     DCD    536871632
        0x00003894:    200000dc    ...     DCD    536871132
        0x00003898:    20000062    b..     DCD    536871010
        0x0000389c:    200006ec    ...     DCD    536872684
        0x000038a0:    200006ed    ...     DCD    536872685
        0x000038a4:    20000071    q..     DCD    536871025
        0x000038a8:    20000070    p..     DCD    536871024
        0x000038ac:    20000072    r..     DCD    536871026
        0x000038b0:    20000075    u..     DCD    536871029
        0x000038b4:    20000064    d..     DCD    536871012
        0x000038b8:    20000060    `..     DCD    536871008
        0x000038bc:    20000061    a..     DCD    536871009
        0x000038c0:    20000076    v..     DCD    536871030
        0x000038c4:    500042b4    .B.P    DCD    1342194356
        0x000038c8:    2000006c    l..     DCD    536871020
        0x000038cc:    20000065    e..     DCD    536871013
        0x000038d0:    200006ee    ...     DCD    536872686
        0x000038d4:    20000067    g..     DCD    536871015
        0x000038d8:    0000251d    .%..    DCD    9501
        0x000038dc:    200003d4    ...     DCD    536871892
        0x000038e0:    200003dc    ...     DCD    536871900
        0x000038e4:    20000398    ...     DCD    536871832
        0x000038e8:    200000a0    ...     DCD    536871072
        0x000038ec:    20000073    s..     DCD    536871027
    $t
        0x000038f0:    2800        .(      CMP      r0,#0
        0x000038f2:    d005        ..      BEQ      0x3900 ; ledTask + 1136
        0x000038f4:    2000        .       MOVS     r0,#0
        0x000038f6:    e01a        ..      B        0x392e ; ledTask + 1182
        0x000038f8:    68a8        .h      LDR      r0,[r5,#8]
        0x000038fa:    1e40        @.      SUBS     r0,r0,#1
        0x000038fc:    60a8        .`      STR      r0,[r5,#8]
        0x000038fe:    e018        ..      B        0x3932 ; ledTask + 1186
        0x00003900:    6aa8        .j      LDR      r0,[r5,#0x28]
        0x00003902:    28ff        .(      CMP      r0,#0xff
        0x00003904:    d002        ..      BEQ      0x390c ; ledTask + 1148
        0x00003906:    f7fefd75    ..u.    BL       breathingColor ; 0x23f4
        0x0000390a:    e012        ..      B        0x3932 ; ledTask + 1186
        0x0000390c:    6868        hh      LDR      r0,[r5,#4]
        0x0000390e:    2800        .(      CMP      r0,#0
        0x00003910:    480c        .H      LDR      r0,[pc,#48] ; [0x3944] = 0x20000074
        0x00003912:    7800        .x      LDRB     r0,[r0,#0]
        0x00003914:    d008        ..      BEQ      0x3928 ; ledTask + 1176
        0x00003916:    2802        .(      CMP      r0,#2
        0x00003918:    d008        ..      BEQ      0x392c ; ledTask + 1180
        0x0000391a:    2000        .       MOVS     r0,#0
        0x0000391c:    f7fffd66    ..f.    BL       ledColorSet ; 0x33ec
        0x00003920:    6868        hh      LDR      r0,[r5,#4]
        0x00003922:    1e40        @.      SUBS     r0,r0,#1
        0x00003924:    6068        h`      STR      r0,[r5,#4]
        0x00003926:    e004        ..      B        0x3932 ; ledTask + 1186
        0x00003928:    2800        .(      CMP      r0,#0
        0x0000392a:    d009        ..      BEQ      0x3940 ; ledTask + 1200
        0x0000392c:    7828        (x      LDRB     r0,[r5,#0]
        0x0000392e:    f7fffd5d    ..].    BL       ledColorSet ; 0x33ec
        0x00003932:    4b05        .K      LDR      r3,[pc,#20] ; [0x3948] = 0x3491
        0x00003934:    2200        ."      MOVS     r2,#0
        0x00003936:    211e        .!      MOVS     r1,#0x1e
        0x00003938:    7868        hx      LDRB     r0,[r5,#1]
        0x0000393a:    f000fde5    ....    BL       startATask ; 0x4508
        0x0000393e:    bdf8        ..      POP      {r3-r7,pc}
        0x00003940:    2007        .       MOVS     r0,#7
        0x00003942:    e7f4        ..      B        0x392e ; ledTask + 1182
    $d
        0x00003944:    20000074    t..     DCD    536871028
        0x00003948:    00003491    .4..    DCD    13457
    $t
    i.ledTaskInit
    ledTaskInit
        0x0000394c:    b510        ..      PUSH     {r4,lr}
        0x0000394e:    f7fffb11    ....    BL       getATask ; 0x2f74
        0x00003952:    4c07        .L      LDR      r4,[pc,#28] ; [0x3970] = 0x200002d0
        0x00003954:    7060        `p      STRB     r0,[r4,#1]
        0x00003956:    f7fffb0d    ....    BL       getATask ; 0x2f74
        0x0000395a:    4906        .I      LDR      r1,[pc,#24] ; [0x3974] = 0x2000008c
        0x0000395c:    7008        .p      STRB     r0,[r1,#0]
        0x0000395e:    7860        `x      LDRB     r0,[r4,#1]
        0x00003960:    28ff        .(      CMP      r0,#0xff
        0x00003962:    d004        ..      BEQ      0x396e ; ledTaskInit + 34
        0x00003964:    4b04        .K      LDR      r3,[pc,#16] ; [0x3978] = 0x3491
        0x00003966:    2200        ."      MOVS     r2,#0
        0x00003968:    211e        .!      MOVS     r1,#0x1e
        0x0000396a:    f000fdcd    ....    BL       startATask ; 0x4508
        0x0000396e:    bd10        ..      POP      {r4,pc}
    $d
        0x00003970:    200002d0    ...     DCD    536871632
        0x00003974:    2000008c    ...     DCD    536871052
        0x00003978:    00003491    .4..    DCD    13457
    $t
    i.logClose
    logClose
        0x0000397c:    4770        pG      BX       lr
    i.logEvent
    logEvent
        0x0000397e:    4770        pG      BX       lr
    i.main
    main
        0x00003980:    b510        ..      PUSH     {r4,lr}
        0x00003982:    f7fdfa27    ..'.    BL       Hal_Init ; 0xdd4
        0x00003986:    f7ffffe1    ....    BL       ledTaskInit ; 0x394c
        0x0000398a:    f000fb9b    ....    BL       pt2314Init ; 0x40c4
        0x0000398e:    f7fefa49    ..I.    BL       ampInit ; 0x1e24
        0x00003992:    f7fef8ed    ....    BL       adckeyTaskInit ; 0x1b70
        0x00003996:    f7fcfee9    ....    BL       DWPH83Init ; 0x76c
        0x0000399a:    f000f8fd    ....    BL       outStandby ; 0x3b98
        0x0000399e:    a019        ..      ADR      r0,{pc}+0x66 ; 0x3a04
        0x000039a0:    f7fffcf2    ....    BL       iputs ; 0x3388
        0x000039a4:    a01a        ..      ADR      r0,{pc}+0x6c ; 0x3a10
        0x000039a6:    f7fffcef    ....    BL       iputs ; 0x3388
        0x000039aa:    201d        .       MOVS     r0,#0x1d
        0x000039ac:    4c1c        .L      LDR      r4,[pc,#112] ; [0x3a20] = 0x20000384
        0x000039ae:    03c0        ..      LSLS     r0,r0,#15
        0x000039b0:    6020         `      STR      r0,[r4,#0]
        0x000039b2:    f7fdf95f    .._.    BL       Erase_Page_Data ; 0xc74
        0x000039b6:    481b        .H      LDR      r0,[pc,#108] ; [0x3a24] = 0x2000166c
        0x000039b8:    2133        3!      MOVS     r1,#0x33
        0x000039ba:    7001        .p      STRB     r1,[r0,#0]
        0x000039bc:    2136        6!      MOVS     r1,#0x36
        0x000039be:    7041        Ap      STRB     r1,[r0,#1]
        0x000039c0:    2139        9!      MOVS     r1,#0x39
        0x000039c2:    7081        .p      STRB     r1,[r0,#2]
        0x000039c4:    4602        .F      MOV      r2,r0
        0x000039c6:    2103        .!      MOVS     r1,#3
        0x000039c8:    6820         h      LDR      r0,[r4,#0]
        0x000039ca:    f000fcbb    ....    BL       spiFlashPageWrite ; 0x4344
        0x000039ce:    a016        ..      ADR      r0,{pc}+0x5a ; 0x3a28
        0x000039d0:    f7fffcda    ....    BL       iputs ; 0x3388
        0x000039d4:    4a18        .J      LDR      r2,[pc,#96] ; [0x3a38] = 0x2000181e
        0x000039d6:    2103        .!      MOVS     r1,#3
        0x000039d8:    6820         h      LDR      r0,[r4,#0]
        0x000039da:    f000fd3b    ..;.    BL       spiFlashRead ; 0x4454
        0x000039de:    4c16        .L      LDR      r4,[pc,#88] ; [0x3a38] = 0x2000181e
        0x000039e0:    a116        ..      ADR      r1,{pc}+0x5c ; 0x3a3c
        0x000039e2:    7820         x      LDRB     r0,[r4,#0]
        0x000039e4:    f000ff2c    ..,.    BL       uartdecodeH ; 0x4840
        0x000039e8:    7860        `x      LDRB     r0,[r4,#1]
        0x000039ea:    a116        ..      ADR      r1,{pc}+0x5a ; 0x3a44
        0x000039ec:    f000ff28    ..(.    BL       uartdecodeH ; 0x4840
        0x000039f0:    78a0        .x      LDRB     r0,[r4,#2]
        0x000039f2:    a116        ..      ADR      r1,{pc}+0x5a ; 0x3a4c
        0x000039f4:    f000ff24    ..$.    BL       uartdecodeH ; 0x4840
        0x000039f8:    4816        .H      LDR      r0,[pc,#88] ; [0x3a54] = 0x2ee0
        0x000039fa:    f000fdbb    ....    BL       sysDelayMs ; 0x4574
        0x000039fe:    2000        .       MOVS     r0,#0
        0x00003a00:    bd10        ..      POP      {r4,pc}
    $d
        0x00003a02:    0000        ..      DCW    0
        0x00003a04:    6e69616d    main    DCD    1852399981
        0x00003a08:    31302d2d    --01    DCD    825240877
        0x00003a0c:    000a0d2e    ....    DCD    658734
        0x00003a10:    69676562    begi    DCD    1768383842
        0x00003a14:    7277206e    n wr    DCD    1920409710
        0x00003a18:    2e657469    ite.    DCD    778400873
        0x00003a1c:    00000a0d    ....    DCD    2573
        0x00003a20:    20000384    ...     DCD    536871812
        0x00003a24:    2000166c    l..     DCD    536876652
        0x00003a28:    69676562    begi    DCD    1768383842
        0x00003a2c:    6572206e    n re    DCD    1701978222
        0x00003a30:    0d2e6461    ad..    DCD    221144161
        0x00003a34:    0000000a    ....    DCD    10
        0x00003a38:    2000181e    ...     DCD    536877086
        0x00003a3c:    66756220     buf    DCD    1718968864
        0x00003a40:    00203a30    0: .    DCD    2112048
        0x00003a44:    66756220     buf    DCD    1718968864
        0x00003a48:    00203a31    1: .    DCD    2112049
        0x00003a4c:    66756220     buf    DCD    1718968864
        0x00003a50:    00203a32    2: .    DCD    2112050
        0x00003a54:    00002ee0    ....    DCD    12000
    $t
    i.nack
    nack
        0x00003a58:    b5f8        ..      PUSH     {r3-r7,lr}
        0x00003a5a:    4c0c        .L      LDR      r4,[pc,#48] ; [0x3a8c] = 0x5000422c
        0x00003a5c:    2600        .&      MOVS     r6,#0
        0x00003a5e:    6026        &`      STR      r6,[r4,#0]
        0x00003a60:    2003        .       MOVS     r0,#3
        0x00003a62:    f000fd9d    ....    BL       sysDelayUs ; 0x45a0
        0x00003a66:    2501        .%      MOVS     r5,#1
        0x00003a68:    1f27        '.      SUBS     r7,r4,#4
        0x00003a6a:    603d        =`      STR      r5,[r7,#0]
        0x00003a6c:    2003        .       MOVS     r0,#3
        0x00003a6e:    f000fd97    ....    BL       sysDelayUs ; 0x45a0
        0x00003a72:    6025        %`      STR      r5,[r4,#0]
        0x00003a74:    2006        .       MOVS     r0,#6
        0x00003a76:    f000fd93    ....    BL       sysDelayUs ; 0x45a0
        0x00003a7a:    6026        &`      STR      r6,[r4,#0]
        0x00003a7c:    2006        .       MOVS     r0,#6
        0x00003a7e:    f000fd8f    ....    BL       sysDelayUs ; 0x45a0
        0x00003a82:    603d        =`      STR      r5,[r7,#0]
        0x00003a84:    2003        .       MOVS     r0,#3
        0x00003a86:    f000fd8b    ....    BL       sysDelayUs ; 0x45a0
        0x00003a8a:    bdf8        ..      POP      {r3-r7,pc}
    $d
        0x00003a8c:    5000422c    ,B.P    DCD    1342194220
    $t
    i.openMcuCtrlPin
    openMcuCtrlPin
        0x00003a90:    b5f8        ..      PUSH     {r3-r7,lr}
        0x00003a92:    2201        ."      MOVS     r2,#1
        0x00003a94:    2108        .!      MOVS     r1,#8
        0x00003a96:    483e        >H      LDR      r0,[pc,#248] ; [0x3b90] = 0x50004080
        0x00003a98:    f7fdf992    ....    BL       GPIO_SET_MODE ; 0xdc0
        0x00003a9c:    483d        =H      LDR      r0,[pc,#244] ; [0x3b94] = 0x500042d4
        0x00003a9e:    2400        .$      MOVS     r4,#0
        0x00003aa0:    6004        .`      STR      r4,[r0,#0]
        0x00003aa2:    4e3b        ;N      LDR      r6,[pc,#236] ; [0x3b90] = 0x50004080
        0x00003aa4:    2201        ."      MOVS     r2,#1
        0x00003aa6:    3640        @6      ADDS     r6,r6,#0x40
        0x00003aa8:    2105        .!      MOVS     r1,#5
        0x00003aaa:    4630        0F      MOV      r0,r6
        0x00003aac:    f7fdf988    ....    BL       GPIO_SET_MODE ; 0xdc0
        0x00003ab0:    4838        8H      LDR      r0,[pc,#224] ; [0x3b94] = 0x500042d4
        0x00003ab2:    3808        .8      SUBS     r0,r0,#8
        0x00003ab4:    6004        .`      STR      r4,[r0,#0]
        0x00003ab6:    2201        ."      MOVS     r2,#1
        0x00003ab8:    2103        .!      MOVS     r1,#3
        0x00003aba:    4630        0F      MOV      r0,r6
        0x00003abc:    f7fdf980    ....    BL       GPIO_SET_MODE ; 0xdc0
        0x00003ac0:    4834        4H      LDR      r0,[pc,#208] ; [0x3b94] = 0x500042d4
        0x00003ac2:    385c        \8      SUBS     r0,r0,#0x5c
        0x00003ac4:    6004        .`      STR      r4,[r0,#0]
        0x00003ac6:    4832        2H      LDR      r0,[pc,#200] ; [0x3b90] = 0x50004080
        0x00003ac8:    2201        ."      MOVS     r2,#1
        0x00003aca:    210e        .!      MOVS     r1,#0xe
        0x00003acc:    3840        @8      SUBS     r0,r0,#0x40
        0x00003ace:    f7fdf977    ..w.    BL       GPIO_SET_MODE ; 0xdc0
        0x00003ad2:    4d2f        /M      LDR      r5,[pc,#188] ; [0x3b90] = 0x50004080
        0x00003ad4:    2202        ."      MOVS     r2,#2
        0x00003ad6:    35c0        .5      ADDS     r5,r5,#0xc0
        0x00003ad8:    2103        .!      MOVS     r1,#3
        0x00003ada:    4628        (F      MOV      r0,r5
        0x00003adc:    f7fdf970    ..p.    BL       GPIO_SET_MODE ; 0xdc0
        0x00003ae0:    2202        ."      MOVS     r2,#2
        0x00003ae2:    4611        .F      MOV      r1,r2
        0x00003ae4:    4628        (F      MOV      r0,r5
        0x00003ae6:    f7fdf96b    ..k.    BL       GPIO_SET_MODE ; 0xdc0
        0x00003aea:    482a        *H      LDR      r0,[pc,#168] ; [0x3b94] = 0x500042d4
        0x00003aec:    3870        p8      SUBS     r0,r0,#0x70
        0x00003aee:    6004        .`      STR      r4,[r0,#0]
        0x00003af0:    4827        'H      LDR      r0,[pc,#156] ; [0x3b90] = 0x50004080
        0x00003af2:    2201        ."      MOVS     r2,#1
        0x00003af4:    2109        .!      MOVS     r1,#9
        0x00003af6:    3840        @8      SUBS     r0,r0,#0x40
        0x00003af8:    f7fdf962    ..b.    BL       GPIO_SET_MODE ; 0xdc0
        0x00003afc:    4824        $H      LDR      r0,[pc,#144] ; [0x3b90] = 0x50004080
        0x00003afe:    2200        ."      MOVS     r2,#0
        0x00003b00:    2108        .!      MOVS     r1,#8
        0x00003b02:    3840        @8      SUBS     r0,r0,#0x40
        0x00003b04:    f7fdf95c    ..\.    BL       GPIO_SET_MODE ; 0xdc0
        0x00003b08:    2200        ."      MOVS     r2,#0
        0x00003b0a:    210a        .!      MOVS     r1,#0xa
        0x00003b0c:    4820         H      LDR      r0,[pc,#128] ; [0x3b90] = 0x50004080
        0x00003b0e:    f7fdf957    ..W.    BL       GPIO_SET_MODE ; 0xdc0
        0x00003b12:    4d20         M      LDR      r5,[pc,#128] ; [0x3b94] = 0x500042d4
        0x00003b14:    3d98        .=      SUBS     r5,r5,#0x98
        0x00003b16:    602c        ,`      STR      r4,[r5,#0]
        0x00003b18:    4f1d        .O      LDR      r7,[pc,#116] ; [0x3b90] = 0x50004080
        0x00003b1a:    2201        ."      MOVS     r2,#1
        0x00003b1c:    3f80        .?      SUBS     r7,r7,#0x80
        0x00003b1e:    210f        .!      MOVS     r1,#0xf
        0x00003b20:    4638        8F      MOV      r0,r7
        0x00003b22:    f7fdf94d    ..M.    BL       GPIO_SET_MODE ; 0xdc0
        0x00003b26:    481b        .H      LDR      r0,[pc,#108] ; [0x3b94] = 0x500042d4
        0x00003b28:    3820         8      SUBS     r0,r0,#0x20
        0x00003b2a:    6004        .`      STR      r4,[r0,#0]
        0x00003b2c:    2201        ."      MOVS     r2,#1
        0x00003b2e:    210d        .!      MOVS     r1,#0xd
        0x00003b30:    4817        .H      LDR      r0,[pc,#92] ; [0x3b90] = 0x50004080
        0x00003b32:    f7fdf945    ..E.    BL       GPIO_SET_MODE ; 0xdc0
        0x00003b36:    4817        .H      LDR      r0,[pc,#92] ; [0x3b94] = 0x500042d4
        0x00003b38:    380c        .8      SUBS     r0,r0,#0xc
        0x00003b3a:    6004        .`      STR      r4,[r0,#0]
        0x00003b3c:    2201        ."      MOVS     r2,#1
        0x00003b3e:    2102        .!      MOVS     r1,#2
        0x00003b40:    4630        0F      MOV      r0,r6
        0x00003b42:    f7fdf93d    ..=.    BL       GPIO_SET_MODE ; 0xdc0
        0x00003b46:    4813        .H      LDR      r0,[pc,#76] ; [0x3b94] = 0x500042d4
        0x00003b48:    3830        08      SUBS     r0,r0,#0x30
        0x00003b4a:    6004        .`      STR      r4,[r0,#0]
        0x00003b4c:    2200        ."      MOVS     r2,#0
        0x00003b4e:    2109        .!      MOVS     r1,#9
        0x00003b50:    480f        .H      LDR      r0,[pc,#60] ; [0x3b90] = 0x50004080
        0x00003b52:    f7fdf935    ..5.    BL       GPIO_SET_MODE ; 0xdc0
        0x00003b56:    480f        .H      LDR      r0,[pc,#60] ; [0x3b94] = 0x500042d4
        0x00003b58:    386c        l8      SUBS     r0,r0,#0x6c
        0x00003b5a:    6004        .`      STR      r4,[r0,#0]
        0x00003b5c:    480c        .H      LDR      r0,[pc,#48] ; [0x3b90] = 0x50004080
        0x00003b5e:    2200        ."      MOVS     r2,#0
        0x00003b60:    210a        .!      MOVS     r1,#0xa
        0x00003b62:    3840        @8      SUBS     r0,r0,#0x40
        0x00003b64:    f7fdf92c    ..,.    BL       GPIO_SET_MODE ; 0xdc0
        0x00003b68:    602c        ,`      STR      r4,[r5,#0]
        0x00003b6a:    2200        ."      MOVS     r2,#0
        0x00003b6c:    210f        .!      MOVS     r1,#0xf
        0x00003b6e:    4638        8F      MOV      r0,r7
        0x00003b70:    f7fdf926    ..&.    BL       GPIO_SET_MODE ; 0xdc0
        0x00003b74:    2201        ."      MOVS     r2,#1
        0x00003b76:    210b        .!      MOVS     r1,#0xb
        0x00003b78:    4805        .H      LDR      r0,[pc,#20] ; [0x3b90] = 0x50004080
        0x00003b7a:    f7fdf921    ..!.    BL       GPIO_SET_MODE ; 0xdc0
        0x00003b7e:    2005        .       MOVS     r0,#5
        0x00003b80:    0700        ..      LSLS     r0,r0,#28
        0x00003b82:    6b41        Ak      LDR      r1,[r0,#0x34]
        0x00003b84:    2201        ."      MOVS     r2,#1
        0x00003b86:    0392        ..      LSLS     r2,r2,#14
        0x00003b88:    4391        .C      BICS     r1,r1,r2
        0x00003b8a:    6341        Ac      STR      r1,[r0,#0x34]
        0x00003b8c:    bdf8        ..      POP      {r3-r7,pc}
    $d
        0x00003b8e:    0000        ..      DCW    0
        0x00003b90:    50004080    .@.P    DCD    1342193792
        0x00003b94:    500042d4    .B.P    DCD    1342194388
    $t
    i.outStandby
    outStandby
        0x00003b98:    b5f8        ..      PUSH     {r3-r7,lr}
        0x00003b9a:    f000fb1b    ....    BL       resumeI2c ; 0x41d4
        0x00003b9e:    4872        rH      LDR      r0,[pc,#456] ; [0x3d68] = 0x2000038c
        0x00003ba0:    2400        .$      MOVS     r4,#0
        0x00003ba2:    7004        .p      STRB     r4,[r0,#0]
        0x00003ba4:    4f71        qO      LDR      r7,[pc,#452] ; [0x3d6c] = 0x20000074
        0x00003ba6:    7044        Dp      STRB     r4,[r0,#1]
        0x00003ba8:    7838        8x      LDRB     r0,[r7,#0]
        0x00003baa:    2501        .%      MOVS     r5,#1
        0x00003bac:    2800        .(      CMP      r0,#0
        0x00003bae:    d000        ..      BEQ      0x3bb2 ; outStandby + 26
        0x00003bb0:    703d        =p      STRB     r5,[r7,#0]
        0x00003bb2:    486f        oH      LDR      r0,[pc,#444] ; [0x3d70] = 0x200002e0
        0x00003bb4:    6004        .`      STR      r4,[r0,#0]
        0x00003bb6:    486f        oH      LDR      r0,[pc,#444] ; [0x3d74] = 0x20000378
        0x00003bb8:    6004        .`      STR      r4,[r0,#0]
        0x00003bba:    486f        oH      LDR      r0,[pc,#444] ; [0x3d78] = 0x200002d8
        0x00003bbc:    6004        .`      STR      r4,[r0,#0]
        0x00003bbe:    486f        oH      LDR      r0,[pc,#444] ; [0x3d7c] = 0x20000380
        0x00003bc0:    6004        .`      STR      r4,[r0,#0]
        0x00003bc2:    486f        oH      LDR      r0,[pc,#444] ; [0x3d80] = 0x50004268
        0x00003bc4:    6800        .h      LDR      r0,[r0,#0]
        0x00003bc6:    4a6f        oJ      LDR      r2,[pc,#444] ; [0x3d84] = 0x20000075
        0x00003bc8:    2800        .(      CMP      r0,#0
        0x00003bca:    d006        ..      BEQ      0x3bda ; outStandby + 66
        0x00003bcc:    7014        .p      STRB     r4,[r2,#0]
        0x00003bce:    496e        nI      LDR      r1,[pc,#440] ; [0x3d88] = 0x200003dc
        0x00003bd0:    6808        .h      LDR      r0,[r1,#0]
        0x00003bd2:    2818        .(      CMP      r0,#0x18
        0x00003bd4:    d903        ..      BLS      0x3bde ; outStandby + 70
        0x00003bd6:    2018        .       MOVS     r0,#0x18
        0x00003bd8:    e004        ..      B        0x3be4 ; outStandby + 76
        0x00003bda:    7015        .p      STRB     r5,[r2,#0]
        0x00003bdc:    e7f7        ..      B        0x3bce ; outStandby + 54
        0x00003bde:    2809        .(      CMP      r0,#9
        0x00003be0:    d201        ..      BCS      0x3be6 ; outStandby + 78
        0x00003be2:    2009        .       MOVS     r0,#9
        0x00003be4:    6008        .`      STR      r0,[r1,#0]
        0x00003be6:    7838        8x      LDRB     r0,[r7,#0]
        0x00003be8:    4e68        hN      LDR      r6,[pc,#416] ; [0x3d8c] = 0x200002d0
        0x00003bea:    2800        .(      CMP      r0,#0
        0x00003bec:    d07e        ~.      BEQ      0x3cec ; outStandby + 340
        0x00003bee:    4868        hH      LDR      r0,[pc,#416] ; [0x3d90] = 0x20000076
        0x00003bf0:    7811        .x      LDRB     r1,[r2,#0]
        0x00003bf2:    5c40        @\      LDRB     r0,[r0,r1]
        0x00003bf4:    7030        0p      STRB     r0,[r6,#0]
        0x00003bf6:    f7fffbf9    ....    BL       ledColorSet ; 0x33ec
        0x00003bfa:    4866        fH      LDR      r0,[pc,#408] ; [0x3d94] = 0x20000060
        0x00003bfc:    7005        .p      STRB     r5,[r0,#0]
        0x00003bfe:    f000fb43    ..C.    BL       spiFlashInit ; 0x4288
        0x00003c02:    f000f999    ....    BL       powerOn ; 0x3f38
        0x00003c06:    485e        ^H      LDR      r0,[pc,#376] ; [0x3d80] = 0x50004268
        0x00003c08:    3040        @0      ADDS     r0,r0,#0x40
        0x00003c0a:    6800        .h      LDR      r0,[r0,#0]
        0x00003c0c:    2800        .(      CMP      r0,#0
        0x00003c0e:    d006        ..      BEQ      0x3c1e ; outStandby + 134
        0x00003c10:    2000        .       MOVS     r0,#0
        0x00003c12:    f000fab5    ....    BL       read_upgrade_eeprom ; 0x4180
        0x00003c16:    28a3        .(      CMP      r0,#0xa3
        0x00003c18:    d001        ..      BEQ      0x3c1e ; outStandby + 134
        0x00003c1a:    f7fefbcd    ....    BL       bootLDROM ; 0x23b8
        0x00003c1e:    4858        XH      LDR      r0,[pc,#352] ; [0x3d80] = 0x50004268
        0x00003c20:    3060        `0      ADDS     r0,r0,#0x60
        0x00003c22:    6005        .`      STR      r5,[r0,#0]
        0x00003c24:    4d5c        \M      LDR      r5,[pc,#368] ; [0x3d98] = 0x20000388
        0x00003c26:    6828        (h      LDR      r0,[r5,#0]
        0x00003c28:    2800        .(      CMP      r0,#0
        0x00003c2a:    d058        X.      BEQ      0x3cde ; outStandby + 326
        0x00003c2c:    2018        .       MOVS     r0,#0x18
        0x00003c2e:    f7fefb5d    ..].    BL       ampSetVolume ; 0x22ec
        0x00003c32:    2116        .!      MOVS     r1,#0x16
        0x00003c34:    2006        .       MOVS     r0,#6
        0x00003c36:    f7fef99d    ....    BL       ampSendCmd_38 ; 0x1f74
        0x00003c3a:    2008        .       MOVS     r0,#8
        0x00003c3c:    f7fffbd6    ....    BL       ledColorSet ; 0x33ec
        0x00003c40:    2006        .       MOVS     r0,#6
        0x00003c42:    f000f8b5    ....    BL       playMusic ; 0x3db0
        0x00003c46:    20ff        .       MOVS     r0,#0xff
        0x00003c48:    302d        -0      ADDS     r0,r0,#0x2d
        0x00003c4a:    f000fc93    ....    BL       sysDelayMs ; 0x4574
        0x00003c4e:    2006        .       MOVS     r0,#6
        0x00003c50:    f000f8ae    ....    BL       playMusic ; 0x3db0
        0x00003c54:    20ff        .       MOVS     r0,#0xff
        0x00003c56:    302d        -0      ADDS     r0,r0,#0x2d
        0x00003c58:    f000fc8c    ....    BL       sysDelayMs ; 0x4574
        0x00003c5c:    484f        OH      LDR      r0,[pc,#316] ; [0x3d9c] = 0x2000012d
        0x00003c5e:    7004        .p      STRB     r4,[r0,#0]
        0x00003c60:    2006        .       MOVS     r0,#6
        0x00003c62:    f7fffbc3    ....    BL       ledColorSet ; 0x33ec
        0x00003c66:    211a        .!      MOVS     r1,#0x1a
        0x00003c68:    2006        .       MOVS     r0,#6
        0x00003c6a:    f7fef983    ....    BL       ampSendCmd_38 ; 0x1f74
        0x00003c6e:    20c8        .       MOVS     r0,#0xc8
        0x00003c70:    f000fc80    ....    BL       sysDelayMs ; 0x4574
        0x00003c74:    200f        .       MOVS     r0,#0xf
        0x00003c76:    6028        (`      STR      r0,[r5,#0]
        0x00003c78:    2001        .       MOVS     r0,#1
        0x00003c7a:    f000f899    ....    BL       playMusic ; 0x3db0
        0x00003c7e:    20c8        .       MOVS     r0,#0xc8
        0x00003c80:    f000fc78    ..x.    BL       sysDelayMs ; 0x4574
        0x00003c84:    6828        (h      LDR      r0,[r5,#0]
        0x00003c86:    1e40        @.      SUBS     r0,r0,#1
        0x00003c88:    6028        (`      STR      r0,[r5,#0]
        0x00003c8a:    d1f5        ..      BNE      0x3c78 ; outStandby + 224
        0x00003c8c:    4843        CH      LDR      r0,[pc,#268] ; [0x3d9c] = 0x2000012d
        0x00003c8e:    211c        .!      MOVS     r1,#0x1c
        0x00003c90:    7004        .p      STRB     r4,[r0,#0]
        0x00003c92:    2006        .       MOVS     r0,#6
        0x00003c94:    f7fef96e    ..n.    BL       ampSendCmd_38 ; 0x1f74
        0x00003c98:    2005        .       MOVS     r0,#5
        0x00003c9a:    f7fffba7    ....    BL       ledColorSet ; 0x33ec
        0x00003c9e:    20c8        .       MOVS     r0,#0xc8
        0x00003ca0:    f000fc68    ..h.    BL       sysDelayMs ; 0x4574
        0x00003ca4:    200f        .       MOVS     r0,#0xf
        0x00003ca6:    6028        (`      STR      r0,[r5,#0]
        0x00003ca8:    2001        .       MOVS     r0,#1
        0x00003caa:    f000f881    ....    BL       playMusic ; 0x3db0
        0x00003cae:    20c8        .       MOVS     r0,#0xc8
        0x00003cb0:    f000fc60    ..`.    BL       sysDelayMs ; 0x4574
        0x00003cb4:    6828        (h      LDR      r0,[r5,#0]
        0x00003cb6:    1e40        @.      SUBS     r0,r0,#1
        0x00003cb8:    6028        (`      STR      r0,[r5,#0]
        0x00003cba:    d1f5        ..      BNE      0x3ca8 ; outStandby + 272
        0x00003cbc:    4837        7H      LDR      r0,[pc,#220] ; [0x3d9c] = 0x2000012d
        0x00003cbe:    7004        .p      STRB     r4,[r0,#0]
        0x00003cc0:    7830        0x      LDRB     r0,[r6,#0]
        0x00003cc2:    f7fffb93    ....    BL       ledColorSet ; 0x33ec
        0x00003cc6:    2000        .       MOVS     r0,#0
        0x00003cc8:    f7fefb10    ....    BL       ampSetVolume ; 0x22ec
        0x00003ccc:    2110        .!      MOVS     r1,#0x10
        0x00003cce:    2006        .       MOVS     r0,#6
        0x00003cd0:    f7fef950    ..P.    BL       ampSendCmd_38 ; 0x1f74
        0x00003cd4:    207d        }       MOVS     r0,#0x7d
        0x00003cd6:    00c0        ..      LSLS     r0,r0,#3
        0x00003cd8:    f000fc4c    ..L.    BL       sysDelayMs ; 0x4574
        0x00003cdc:    602c        ,`      STR      r4,[r5,#0]
        0x00003cde:    4830        0H      LDR      r0,[pc,#192] ; [0x3da0] = 0x20000038
        0x00003ce0:    6004        .`      STR      r4,[r0,#0]
        0x00003ce2:    4821        !H      LDR      r0,[pc,#132] ; [0x3d68] = 0x2000038c
        0x00003ce4:    6044        D`      STR      r4,[r0,#4]
        0x00003ce6:    7838        8x      LDRB     r0,[r7,#0]
        0x00003ce8:    2800        .(      CMP      r0,#0
        0x00003cea:    e000        ..      B        0x3cee ; outStandby + 342
        0x00003cec:    e032        2.      B        0x3d54 ; outStandby + 444
        0x00003cee:    d004        ..      BEQ      0x3cfa ; outStandby + 354
        0x00003cf0:    482c        ,H      LDR      r0,[pc,#176] ; [0x3da4] = 0x200000dc
        0x00003cf2:    7801        .x      LDRB     r1,[r0,#0]
        0x00003cf4:    2900        .)      CMP      r1,#0
        0x00003cf6:    d032        2.      BEQ      0x3d5e ; outStandby + 454
        0x00003cf8:    7004        .p      STRB     r4,[r0,#0]
        0x00003cfa:    f000fd29    ..).    BL       uartInit ; 0x4750
        0x00003cfe:    f000faa7    ....    BL       sendStartInfo ; 0x4250
        0x00003d02:    f7fffbc5    ....    BL       ledTask ; 0x3490
        0x00003d06:    7830        0x      LDRB     r0,[r6,#0]
        0x00003d08:    f7fffb70    ..p.    BL       ledColorSet ; 0x33ec
        0x00003d0c:    f7fdfc7c    ..|.    BL       WDTInit ; 0x1608
        0x00003d10:    20c8        .       MOVS     r0,#0xc8
        0x00003d12:    f000fc2f    ../.    BL       sysDelayMs ; 0x4574
        0x00003d16:    f7fdfea3    ....    BL       adcReadKey ; 0x1a60
        0x00003d1a:    f7fdfea1    ....    BL       adcReadKey ; 0x1a60
        0x00003d1e:    204b        K       MOVS     r0,#0x4b
        0x00003d20:    0100        ..      LSLS     r0,r0,#4
        0x00003d22:    f000fc27    ..'.    BL       sysDelayMs ; 0x4574
        0x00003d26:    f7fefccd    ....    BL       check_coco ; 0x26c4
        0x00003d2a:    2800        .(      CMP      r0,#0
        0x00003d2c:    d004        ..      BEQ      0x3d38 ; outStandby + 416
        0x00003d2e:    f7fcff4f    ..O.    BL       Dwhp83FixedCoCo ; 0xbd0
        0x00003d32:    2064        d       MOVS     r0,#0x64
        0x00003d34:    f000fc1e    ....    BL       sysDelayMs ; 0x4574
        0x00003d38:    f7fcff28    ..(.    BL       Dwhp83CuMuDetect ; 0xb8c
        0x00003d3c:    481a        .H      LDR      r0,[pc,#104] ; [0x3da8] = 0x200000b4
        0x00003d3e:    491b        .I      LDR      r1,[pc,#108] ; [0x3dac] = 0x55aa
        0x00003d40:    6800        .h      LDR      r0,[r0,#0]
        0x00003d42:    4288        .B      CMP      r0,r1
        0x00003d44:    d103        ..      BNE      0x3d4e ; outStandby + 438
        0x00003d46:    f7fcfc89    ....    BL       DWP83MuPowerOn ; 0x65c
        0x00003d4a:    f7fcff87    ....    BL       Dwhp83Slave ; 0xc5c
        0x00003d4e:    4811        .H      LDR      r0,[pc,#68] ; [0x3d94] = 0x20000060
        0x00003d50:    7004        .p      STRB     r4,[r0,#0]
        0x00003d52:    bdf8        ..      POP      {r3-r7,pc}
        0x00003d54:    201d        .       MOVS     r0,#0x1d
        0x00003d56:    6008        .`      STR      r0,[r1,#0]
        0x00003d58:    7015        .p      STRB     r5,[r2,#0]
        0x00003d5a:    2007        .       MOVS     r0,#7
        0x00003d5c:    e74b        K.      B        0x3bf6 ; outStandby + 94
        0x00003d5e:    2006        .       MOVS     r0,#6
        0x00003d60:    f000f826    ..&.    BL       playMusic ; 0x3db0
        0x00003d64:    e7c9        ..      B        0x3cfa ; outStandby + 354
    $d
        0x00003d66:    0000        ..      DCW    0
        0x00003d68:    2000038c    ...     DCD    536871820
        0x00003d6c:    20000074    t..     DCD    536871028
        0x00003d70:    200002e0    ...     DCD    536871648
        0x00003d74:    20000378    x..     DCD    536871800
        0x00003d78:    200002d8    ...     DCD    536871640
        0x00003d7c:    20000380    ...     DCD    536871808
        0x00003d80:    50004268    hB.P    DCD    1342194280
        0x00003d84:    20000075    u..     DCD    536871029
        0x00003d88:    200003dc    ...     DCD    536871900
        0x00003d8c:    200002d0    ...     DCD    536871632
        0x00003d90:    20000076    v..     DCD    536871030
        0x00003d94:    20000060    `..     DCD    536871008
        0x00003d98:    20000388    ...     DCD    536871816
        0x00003d9c:    2000012d    -..     DCD    536871213
        0x00003da0:    20000038    8..     DCD    536870968
        0x00003da4:    200000dc    ...     DCD    536871132
        0x00003da8:    200000b4    ...     DCD    536871092
        0x00003dac:    000055aa    .U..    DCD    21930
    $t
    i.playMusic
    playMusic
        0x00003db0:    4770        pG      BX       lr
        0x00003db2:    0000        ..      MOVS     r0,r0
    i.playSFMusicEnd
    playSFMusicEnd
        0x00003db4:    b570        p.      PUSH     {r4-r6,lr}
        0x00003db6:    f7fcfc15    ....    BL       DWHP83UnMute ; 0x5e4
        0x00003dba:    200a        .       MOVS     r0,#0xa
        0x00003dbc:    f000fbda    ....    BL       sysDelayMs ; 0x4574
        0x00003dc0:    4811        .H      LDR      r0,[pc,#68] ; [0x3e08] = 0x20000110
        0x00003dc2:    2500        .%      MOVS     r5,#0
        0x00003dc4:    6005        .`      STR      r5,[r0,#0]
        0x00003dc6:    4811        .H      LDR      r0,[pc,#68] ; [0x3e0c] = 0x40130000
        0x00003dc8:    6881        .h      LDR      r1,[r0,#8]
        0x00003dca:    0849        I.      LSRS     r1,r1,#1
        0x00003dcc:    0049        I.      LSLS     r1,r1,#1
        0x00003dce:    6081        .`      STR      r1,[r0,#8]
        0x00003dd0:    480f        .H      LDR      r0,[pc,#60] ; [0x3e10] = 0x20000074
        0x00003dd2:    4c10        .L      LDR      r4,[pc,#64] ; [0x3e14] = 0x2000012c
        0x00003dd4:    7800        .x      LDRB     r0,[r0,#0]
        0x00003dd6:    2800        .(      CMP      r0,#0
        0x00003dd8:    d003        ..      BEQ      0x3de2 ; playSFMusicEnd + 46
        0x00003dda:    480f        .H      LDR      r0,[pc,#60] ; [0x3e18] = 0x20000063
        0x00003ddc:    7800        .x      LDRB     r0,[r0,#0]
        0x00003dde:    2800        .(      CMP      r0,#0
        0x00003de0:    d001        ..      BEQ      0x3de6 ; playSFMusicEnd + 50
        0x00003de2:    7065        ep      STRB     r5,[r4,#1]
        0x00003de4:    bd70        p.      POP      {r4-r6,pc}
        0x00003de6:    6de0        .m      LDR      r0,[r4,#0x5c]
        0x00003de8:    2180        .!      MOVS     r1,#0x80
        0x00003dea:    4388        .C      BICS     r0,r0,r1
        0x00003dec:    490b        .I      LDR      r1,[pc,#44] ; [0x3e1c] = 0x200003dc
        0x00003dee:    65e0        .e      STR      r0,[r4,#0x5c]
        0x00003df0:    6008        .`      STR      r0,[r1,#0]
        0x00003df2:    f7fefa7b    ..{.    BL       ampSetVolume ; 0x22ec
        0x00003df6:    7065        ep      STRB     r5,[r4,#1]
        0x00003df8:    6aa0        .j      LDR      r0,[r4,#0x28]
        0x00003dfa:    2804        .(      CMP      r0,#4
        0x00003dfc:    d0f2        ..      BEQ      0x3de4 ; playSFMusicEnd + 48
        0x00003dfe:    3075        u0      ADDS     r0,r0,#0x75
        0x00003e00:    b2c0        ..      UXTB     r0,r0
        0x00003e02:    f7fffdbc    ....    BL       logEvent ; 0x397e
        0x00003e06:    bd70        p.      POP      {r4-r6,pc}
    $d
        0x00003e08:    20000110    ...     DCD    536871184
        0x00003e0c:    40130000    ...@    DCD    1074987008
        0x00003e10:    20000074    t..     DCD    536871028
        0x00003e14:    2000012c    ,..     DCD    536871212
        0x00003e18:    20000063    c..     DCD    536871011
        0x00003e1c:    200003dc    ...     DCD    536871900
    $t
    i.powerOff
    powerOff
        0x00003e20:    b570        p.      PUSH     {r4-r6,lr}
        0x00003e22:    4838        8H      LDR      r0,[pc,#224] ; [0x3f04] = 0x500042cc
        0x00003e24:    2400        .$      MOVS     r4,#0
        0x00003e26:    6004        .`      STR      r4,[r0,#0]
        0x00003e28:    4937        7I      LDR      r1,[pc,#220] ; [0x3f08] = 0x200002f8
        0x00003e2a:    20ff        .       MOVS     r0,#0xff
        0x00003e2c:    6008        .`      STR      r0,[r1,#0]
        0x00003e2e:    4837        7H      LDR      r0,[pc,#220] ; [0x3f0c] = 0x2000037c
        0x00003e30:    2180        .!      MOVS     r1,#0x80
        0x00003e32:    6004        .`      STR      r4,[r0,#0]
        0x00003e34:    4836        6H      LDR      r0,[pc,#216] ; [0x3f10] = 0x2000012d
        0x00003e36:    7004        .p      STRB     r4,[r0,#0]
        0x00003e38:    4836        6H      LDR      r0,[pc,#216] ; [0x3f14] = 0x20000188
        0x00003e3a:    6800        .h      LDR      r0,[r0,#0]
        0x00003e3c:    4388        .C      BICS     r0,r0,r1
        0x00003e3e:    4936        6I      LDR      r1,[pc,#216] ; [0x3f18] = 0x200003dc
        0x00003e40:    6008        .`      STR      r0,[r1,#0]
        0x00003e42:    4836        6H      LDR      r0,[pc,#216] ; [0x3f1c] = 0x40130000
        0x00003e44:    6881        .h      LDR      r1,[r0,#8]
        0x00003e46:    0849        I.      LSRS     r1,r1,#1
        0x00003e48:    0049        I.      LSLS     r1,r1,#1
        0x00003e4a:    6081        .`      STR      r1,[r0,#8]
        0x00003e4c:    4934        4I      LDR      r1,[pc,#208] ; [0x3f20] = 0x20000074
        0x00003e4e:    2002        .       MOVS     r0,#2
        0x00003e50:    7008        .p      STRB     r0,[r1,#0]
        0x00003e52:    f000fb87    ....    BL       stopFlashLed ; 0x4564
        0x00003e56:    20c8        .       MOVS     r0,#0xc8
        0x00003e58:    f000fb8c    ....    BL       sysDelayMs ; 0x4574
        0x00003e5c:    f7fef830    ..0.    BL       ampPowerDown ; 0x1ec0
        0x00003e60:    20c8        .       MOVS     r0,#0xc8
        0x00003e62:    f000fb87    ....    BL       sysDelayMs ; 0x4574
        0x00003e66:    482f        /H      LDR      r0,[pc,#188] ; [0x3f24] = 0x50000200
        0x00003e68:    2101        .!      MOVS     r1,#1
        0x00003e6a:    6882        .h      LDR      r2,[r0,#8]
        0x00003e6c:    0749        I.      LSLS     r1,r1,#29
        0x00003e6e:    438a        .C      BICS     r2,r2,r1
        0x00003e70:    6082        .`      STR      r2,[r0,#8]
        0x00003e72:    482d        -H      LDR      r0,[pc,#180] ; [0x3f28] = 0x401a0000
        0x00003e74:    6801        .h      LDR      r1,[r0,#0]
        0x00003e76:    2301        .#      MOVS     r3,#1
        0x00003e78:    03db        ..      LSLS     r3,r3,#15
        0x00003e7a:    4399        .C      BICS     r1,r1,r3
        0x00003e7c:    6001        .`      STR      r1,[r0,#0]
        0x00003e7e:    2005        .       MOVS     r0,#5
        0x00003e80:    0700        ..      LSLS     r0,r0,#28
        0x00003e82:    6b81        .k      LDR      r1,[r0,#0x38]
        0x00003e84:    0909        ..      LSRS     r1,r1,#4
        0x00003e86:    0109        ..      LSLS     r1,r1,#4
        0x00003e88:    6381        .c      STR      r1,[r0,#0x38]
        0x00003e8a:    4928        (I      LDR      r1,[pc,#160] ; [0x3f2c] = 0x50000040
        0x00003e8c:    690a        .i      LDR      r2,[r1,#0x10]
        0x00003e8e:    25ff        .%      MOVS     r5,#0xff
        0x00003e90:    35e1        .5      ADDS     r5,r5,#0xe1
        0x00003e92:    43aa        .C      BICS     r2,r2,r5
        0x00003e94:    610a        .a      STR      r2,[r1,#0x10]
        0x00003e96:    6b02        .k      LDR      r2,[r0,#0x30]
        0x00003e98:    439a        .C      BICS     r2,r2,r3
        0x00003e9a:    6302        .c      STR      r2,[r0,#0x30]
        0x00003e9c:    6908        .i      LDR      r0,[r1,#0x10]
        0x00003e9e:    119a        ..      ASRS     r2,r3,#6
        0x00003ea0:    4390        .C      BICS     r0,r0,r2
        0x00003ea2:    6108        .a      STR      r0,[r1,#0x10]
        0x00003ea4:    4d22        "M      LDR      r5,[pc,#136] ; [0x3f30] = 0x50004080
        0x00003ea6:    2200        ."      MOVS     r2,#0
        0x00003ea8:    210c        .!      MOVS     r1,#0xc
        0x00003eaa:    4628        (F      MOV      r0,r5
        0x00003eac:    f7fcff88    ....    BL       GPIO_SET_MODE ; 0xdc0
        0x00003eb0:    2200        ."      MOVS     r2,#0
        0x00003eb2:    4611        .F      MOV      r1,r2
        0x00003eb4:    4628        (F      MOV      r0,r5
        0x00003eb6:    f7fcff83    ....    BL       GPIO_SET_MODE ; 0xdc0
        0x00003eba:    2200        ."      MOVS     r2,#0
        0x00003ebc:    2101        .!      MOVS     r1,#1
        0x00003ebe:    4628        (F      MOV      r0,r5
        0x00003ec0:    f7fcff7e    ..~.    BL       GPIO_SET_MODE ; 0xdc0
        0x00003ec4:    2200        ."      MOVS     r2,#0
        0x00003ec6:    2102        .!      MOVS     r1,#2
        0x00003ec8:    4628        (F      MOV      r0,r5
        0x00003eca:    f7fcff79    ..y.    BL       GPIO_SET_MODE ; 0xdc0
        0x00003ece:    2200        ."      MOVS     r2,#0
        0x00003ed0:    2103        .!      MOVS     r1,#3
        0x00003ed2:    4628        (F      MOV      r0,r5
        0x00003ed4:    f7fcff74    ..t.    BL       GPIO_SET_MODE ; 0xdc0
        0x00003ed8:    2064        d       MOVS     r0,#0x64
        0x00003eda:    f000fb4b    ..K.    BL       sysDelayMs ; 0x4574
        0x00003ede:    2007        .       MOVS     r0,#7
        0x00003ee0:    f7fffd4d    ..M.    BL       logEvent ; 0x397e
        0x00003ee4:    f7fffd4a    ..J.    BL       logClose ; 0x397c
        0x00003ee8:    4812        .H      LDR      r0,[pc,#72] ; [0x3f34] = 0x2000038c
        0x00003eea:    7840        @x      LDRB     r0,[r0,#1]
        0x00003eec:    2800        .(      CMP      r0,#0
        0x00003eee:    d002        ..      BEQ      0x3ef6 ; powerOff + 214
        0x00003ef0:    f7fffe52    ..R.    BL       outStandby ; 0x3b98
        0x00003ef4:    bd70        p.      POP      {r4-r6,pc}
        0x00003ef6:    f7fffd41    ..A.    BL       logClose ; 0x397c
        0x00003efa:    4802        .H      LDR      r0,[pc,#8] ; [0x3f04] = 0x500042cc
        0x00003efc:    3008        .0      ADDS     r0,r0,#8
        0x00003efe:    6004        .`      STR      r4,[r0,#0]
        0x00003f00:    f7feff90    ....    BL       doPowerOff ; 0x2e24
    $d
        0x00003f04:    500042cc    .B.P    DCD    1342194380
        0x00003f08:    200002f8    ...     DCD    536871672
        0x00003f0c:    2000037c    |..     DCD    536871804
        0x00003f10:    2000012d    -..     DCD    536871213
        0x00003f14:    20000188    ...     DCD    536871304
        0x00003f18:    200003dc    ...     DCD    536871900
        0x00003f1c:    40130000    ...@    DCD    1074987008
        0x00003f20:    20000074    t..     DCD    536871028
        0x00003f24:    50000200    ...P    DCD    1342177792
        0x00003f28:    401a0000    ...@    DCD    1075445760
        0x00003f2c:    50000040    @..P    DCD    1342177344
        0x00003f30:    50004080    .@.P    DCD    1342193792
        0x00003f34:    2000038c    ...     DCD    536871820
    $t
    i.powerOn
    powerOn
        0x00003f38:    b5f8        ..      PUSH     {r3-r7,lr}
        0x00003f3a:    4e26        &N      LDR      r6,[pc,#152] ; [0x3fd4] = 0x500042cc
        0x00003f3c:    2500        .%      MOVS     r5,#0
        0x00003f3e:    6035        5`      STR      r5,[r6,#0]
        0x00003f40:    f7fffda6    ....    BL       openMcuCtrlPin ; 0x3a90
        0x00003f44:    4823        #H      LDR      r0,[pc,#140] ; [0x3fd4] = 0x500042cc
        0x00003f46:    2401        .$      MOVS     r4,#1
        0x00003f48:    382c        ,8      SUBS     r0,r0,#0x2c
        0x00003f4a:    6004        .`      STR      r4,[r0,#0]
        0x00003f4c:    6034        4`      STR      r4,[r6,#0]
        0x00003f4e:    4e21        !N      LDR      r6,[pc,#132] ; [0x3fd4] = 0x500042cc
        0x00003f50:    3e68        h>      SUBS     r6,r6,#0x68
        0x00003f52:    6035        5`      STR      r5,[r6,#0]
        0x00003f54:    20c8        .       MOVS     r0,#0xc8
        0x00003f56:    f000fb0d    ....    BL       sysDelayMs ; 0x4574
        0x00003f5a:    481e        .H      LDR      r0,[pc,#120] ; [0x3fd4] = 0x500042cc
        0x00003f5c:    3008        .0      ADDS     r0,r0,#8
        0x00003f5e:    6004        .`      STR      r4,[r0,#0]
        0x00003f60:    4f1c        .O      LDR      r7,[pc,#112] ; [0x3fd4] = 0x500042cc
        0x00003f62:    3f90        .?      SUBS     r7,r7,#0x90
        0x00003f64:    603d        =`      STR      r5,[r7,#0]
        0x00003f66:    20c8        .       MOVS     r0,#0xc8
        0x00003f68:    f000fb04    ....    BL       sysDelayMs ; 0x4574
        0x00003f6c:    603c        <`      STR      r4,[r7,#0]
        0x00003f6e:    481a        .H      LDR      r0,[pc,#104] ; [0x3fd8] = 0x2000037c
        0x00003f70:    6004        .`      STR      r4,[r0,#0]
        0x00003f72:    4818        .H      LDR      r0,[pc,#96] ; [0x3fd4] = 0x500042cc
        0x00003f74:    3854        T8      SUBS     r0,r0,#0x54
        0x00003f76:    6004        .`      STR      r4,[r0,#0]
        0x00003f78:    4818        .H      LDR      r0,[pc,#96] ; [0x3fdc] = 0xbb80
        0x00003f7a:    f7fcfff5    ....    BL       I2SClkInit ; 0xf68
        0x00003f7e:    20c8        .       MOVS     r0,#0xc8
        0x00003f80:    f000faf8    ....    BL       sysDelayMs ; 0x4574
        0x00003f84:    f7fff956    ..V.    BL       i2cSysInit ; 0x3234
        0x00003f88:    2064        d       MOVS     r0,#0x64
        0x00003f8a:    f000faf3    ....    BL       sysDelayMs ; 0x4574
        0x00003f8e:    6034        4`      STR      r4,[r6,#0]
        0x00003f90:    2032        2       MOVS     r0,#0x32
        0x00003f92:    f000faef    ....    BL       sysDelayMs ; 0x4574
        0x00003f96:    200a        .       MOVS     r0,#0xa
        0x00003f98:    f000faec    ....    BL       sysDelayMs ; 0x4574
        0x00003f9c:    f7fdff4a    ..J.    BL       ampInitAllConf ; 0x1e34
        0x00003fa0:    213f        ?!      MOVS     r1,#0x3f
        0x00003fa2:    2000        .       MOVS     r0,#0
        0x00003fa4:    f7fef80a    ....    BL       ampSendEqs_38 ; 0x1fbc
        0x00003fa8:    2000        .       MOVS     r0,#0
        0x00003faa:    f7fef99f    ....    BL       ampSetVolume ; 0x22ec
        0x00003fae:    f000fc63    ..c.    BL       unMute ; 0x4878
        0x00003fb2:    20c8        .       MOVS     r0,#0xc8
        0x00003fb4:    f000fade    ....    BL       sysDelayMs ; 0x4574
        0x00003fb8:    f7fff99a    ....    BL       i2sStart ; 0x32f0
        0x00003fbc:    4805        .H      LDR      r0,[pc,#20] ; [0x3fd4] = 0x500042cc
        0x00003fbe:    1f00        ..      SUBS     r0,r0,#4
        0x00003fc0:    6005        .`      STR      r5,[r0,#0]
        0x00003fc2:    20c8        .       MOVS     r0,#0xc8
        0x00003fc4:    f000fad6    ....    BL       sysDelayMs ; 0x4574
        0x00003fc8:    f7fff804    ....    BL       getMuAddr ; 0x2fd4
        0x00003fcc:    f000f808    ....    BL       pt2314DataResume ; 0x3fe0
        0x00003fd0:    bdf8        ..      POP      {r3-r7,pc}
    $d
        0x00003fd2:    0000        ..      DCW    0
        0x00003fd4:    500042cc    .B.P    DCD    1342194380
        0x00003fd8:    2000037c    |..     DCD    536871804
        0x00003fdc:    0000bb80    ....    DCD    48000
    $t
    i.pt2314DataResume
    pt2314DataResume
        0x00003fe0:    b5f8        ..      PUSH     {r3-r7,lr}
        0x00003fe2:    4f2d        -O      LDR      r7,[pc,#180] ; [0x4098] = 0x2000039c
        0x00003fe4:    2400        .$      MOVS     r4,#0
        0x00003fe6:    68f8        .h      LDR      r0,[r7,#0xc]
        0x00003fe8:    4e2c        ,N      LDR      r6,[pc,#176] ; [0x409c] = 0x20000075
        0x00003fea:    4625        %F      MOV      r5,r4
        0x00003fec:    2801        .(      CMP      r0,#1
        0x00003fee:    d108        ..      BNE      0x4002 ; pt2314DataResume + 34
        0x00003ff0:    482b        +H      LDR      r0,[pc,#172] ; [0x40a0] = 0x2000069c
        0x00003ff2:    7035        5p      STRB     r5,[r6,#0]
        0x00003ff4:    6800        .h      LDR      r0,[r0,#0]
        0x00003ff6:    60fd        .`      STR      r5,[r7,#0xc]
        0x00003ff8:    607d        }`      STR      r5,[r7,#4]
        0x00003ffa:    2401        .$      MOVS     r4,#1
        0x00003ffc:    60b8        .`      STR      r0,[r7,#8]
        0x00003ffe:    f7fefa57    ..W.    BL       btCheck ; 0x24b0
        0x00004002:    4928        (I      LDR      r1,[pc,#160] ; [0x40a4] = 0x20000076
        0x00004004:    7830        0x      LDRB     r0,[r6,#0]
        0x00004006:    5c0a        .\      LDRB     r2,[r1,r0]
        0x00004008:    4927        'I      LDR      r1,[pc,#156] ; [0x40a8] = 0x200002d0
        0x0000400a:    2802        .(      CMP      r0,#2
        0x0000400c:    700a        .p      STRB     r2,[r1,#0]
        0x0000400e:    d01c        ..      BEQ      0x404a ; pt2314DataResume + 106
        0x00004010:    7838        8x      LDRB     r0,[r7,#0]
        0x00004012:    f000fa93    ....    BL       stopATask ; 0x453c
        0x00004016:    4925        %I      LDR      r1,[pc,#148] ; [0x40ac] = 0x500042b4
        0x00004018:    2001        .       MOVS     r0,#1
        0x0000401a:    6008        .`      STR      r0,[r1,#0]
        0x0000401c:    4923        #I      LDR      r1,[pc,#140] ; [0x40ac] = 0x500042b4
        0x0000401e:    7832        2x      LDRB     r2,[r6,#0]
        0x00004020:    3908        .9      SUBS     r1,r1,#8
        0x00004022:    2a00        .*      CMP      r2,#0
        0x00004024:    d024        $.      BEQ      0x4070 ; pt2314DataResume + 144
        0x00004026:    4822        "H      LDR      r0,[pc,#136] ; [0x40b0] = 0x2000037c
        0x00004028:    6005        .`      STR      r5,[r0,#0]
        0x0000402a:    600d        .`      STR      r5,[r1,#0]
        0x0000402c:    203c        <       MOVS     r0,#0x3c
        0x0000402e:    f7fffca6    ....    BL       logEvent ; 0x397e
        0x00004032:    206c        l       MOVS     r0,#0x6c
        0x00004034:    f7fffca3    ....    BL       logEvent ; 0x397e
        0x00004038:    481e        .H      LDR      r0,[pc,#120] ; [0x40b4] = 0x20000074
        0x0000403a:    7800        .x      LDRB     r0,[r0,#0]
        0x0000403c:    2800        .(      CMP      r0,#0
        0x0000403e:    d029        ).      BEQ      0x4094 ; pt2314DataResume + 180
        0x00004040:    4819        .H      LDR      r0,[pc,#100] ; [0x40a8] = 0x200002d0
        0x00004042:    7800        .x      LDRB     r0,[r0,#0]
        0x00004044:    f7fff9d2    ....    BL       ledColorSet ; 0x33ec
        0x00004048:    bdf8        ..      POP      {r3-r7,pc}
        0x0000404a:    4819        .H      LDR      r0,[pc,#100] ; [0x40b0] = 0x2000037c
        0x0000404c:    6005        .`      STR      r5,[r0,#0]
        0x0000404e:    20ff        .       MOVS     r0,#0xff
        0x00004050:    302d        -0      ADDS     r0,r0,#0x2d
        0x00004052:    f000fa8f    ....    BL       sysDelayMs ; 0x4574
        0x00004056:    4815        .H      LDR      r0,[pc,#84] ; [0x40ac] = 0x500042b4
        0x00004058:    6005        .`      STR      r5,[r0,#0]
        0x0000405a:    4812        .H      LDR      r0,[pc,#72] ; [0x40a4] = 0x20000076
        0x0000405c:    7831        1x      LDRB     r1,[r6,#0]
        0x0000405e:    5c40        @\      LDRB     r0,[r0,r1]
        0x00004060:    4911        .I      LDR      r1,[pc,#68] ; [0x40a8] = 0x200002d0
        0x00004062:    7008        .p      STRB     r0,[r1,#0]
        0x00004064:    f7fff9c2    ....    BL       ledColorSet ; 0x33ec
        0x00004068:    2200        ."      MOVS     r2,#0
        0x0000406a:    4b13        .K      LDR      r3,[pc,#76] ; [0x40b8] = 0x2e99
        0x0000406c:    210a        .!      MOVS     r1,#0xa
        0x0000406e:    e00d        ..      B        0x408c ; pt2314DataResume + 172
        0x00004070:    4605        .F      MOV      r5,r0
        0x00004072:    6008        .`      STR      r0,[r1,#0]
        0x00004074:    206a        j       MOVS     r0,#0x6a
        0x00004076:    f7fffc82    ....    BL       logEvent ; 0x397e
        0x0000407a:    203a        :       MOVS     r0,#0x3a
        0x0000407c:    f7fffc7f    ....    BL       logEvent ; 0x397e
        0x00004080:    2c00        .,      CMP      r4,#0
        0x00004082:    d1d9        ..      BNE      0x4038 ; pt2314DataResume + 88
        0x00004084:    4b0d        .K      LDR      r3,[pc,#52] ; [0x40bc] = 0x2509
        0x00004086:    490e        .I      LDR      r1,[pc,#56] ; [0x40c0] = 0x5dc
        0x00004088:    2200        ."      MOVS     r2,#0
        0x0000408a:    607d        }`      STR      r5,[r7,#4]
        0x0000408c:    7838        8x      LDRB     r0,[r7,#0]
        0x0000408e:    f000fa3b    ..;.    BL       startATask ; 0x4508
        0x00004092:    e7d1        ..      B        0x4038 ; pt2314DataResume + 88
        0x00004094:    2007        .       MOVS     r0,#7
        0x00004096:    e7d5        ..      B        0x4044 ; pt2314DataResume + 100
    $d
        0x00004098:    2000039c    ...     DCD    536871836
        0x0000409c:    20000075    u..     DCD    536871029
        0x000040a0:    2000069c    ...     DCD    536872604
        0x000040a4:    20000076    v..     DCD    536871030
        0x000040a8:    200002d0    ...     DCD    536871632
        0x000040ac:    500042b4    .B.P    DCD    1342194356
        0x000040b0:    2000037c    |..     DCD    536871804
        0x000040b4:    20000074    t..     DCD    536871028
        0x000040b8:    00002e99    ....    DCD    11929
        0x000040bc:    00002509    .%..    DCD    9481
        0x000040c0:    000005dc    ....    DCD    1500
    $t
    i.pt2314Init
    pt2314Init
        0x000040c4:    b510        ..      PUSH     {r4,lr}
        0x000040c6:    f7feff55    ..U.    BL       getATask ; 0x2f74
        0x000040ca:    4c03        .L      LDR      r4,[pc,#12] ; [0x40d8] = 0x2000039c
        0x000040cc:    7020         p      STRB     r0,[r4,#0]
        0x000040ce:    f7feff51    ..Q.    BL       getATask ; 0x2f74
        0x000040d2:    7060        `p      STRB     r0,[r4,#1]
        0x000040d4:    bd10        ..      POP      {r4,pc}
    $d
        0x000040d6:    0000        ..      DCW    0
        0x000040d8:    2000039c    ...     DCD    536871836
    $t
    i.readDwhp83
    readDwhp83
        0x000040dc:    b5f8        ..      PUSH     {r3-r7,lr}
        0x000040de:    4607        .F      MOV      r7,r0
        0x000040e0:    4c1d        .L      LDR      r4,[pc,#116] ; [0x4158] = 0x200000a4
        0x000040e2:    2000        .       MOVS     r0,#0
        0x000040e4:    7060        `p      STRB     r0,[r4,#1]
        0x000040e6:    460d        .F      MOV      r5,r1
        0x000040e8:    2080        .       MOVS     r0,#0x80
        0x000040ea:    f7fff867    ..g.    BL       i2cStart ; 0x31bc
        0x000040ee:    2601        .&      MOVS     r6,#1
        0x000040f0:    2800        .(      CMP      r0,#0
        0x000040f2:    d115        ..      BNE      0x4120 ; readDwhp83 + 68
        0x000040f4:    200a        .       MOVS     r0,#0xa
        0x000040f6:    f000fa53    ..S.    BL       sysDelayUs ; 0x45a0
        0x000040fa:    b2f8        ..      UXTB     r0,r7
        0x000040fc:    f7fff8d4    ....    BL       i2cWriteByte ; 0x32a8
        0x00004100:    f7feff8e    ....    BL       i2cAck ; 0x3020
        0x00004104:    2801        .(      CMP      r0,#1
        0x00004106:    d00b        ..      BEQ      0x4120 ; readDwhp83 + 68
        0x00004108:    200a        .       MOVS     r0,#0xa
        0x0000410a:    f000fa49    ..I.    BL       sysDelayUs ; 0x45a0
        0x0000410e:    f7feffc3    ....    BL       i2cRestart ; 0x3098
        0x00004112:    2081        .       MOVS     r0,#0x81
        0x00004114:    f7fff8c8    ....    BL       i2cWriteByte ; 0x32a8
        0x00004118:    f7feff82    ....    BL       i2cAck ; 0x3020
        0x0000411c:    2800        .(      CMP      r0,#0
        0x0000411e:    d001        ..      BEQ      0x4124 ; readDwhp83 + 72
        0x00004120:    7066        fp      STRB     r6,[r4,#1]
        0x00004122:    e016        ..      B        0x4152 ; readDwhp83 + 118
        0x00004124:    2400        .$      MOVS     r4,#0
        0x00004126:    4e0d        .N      LDR      r6,[pc,#52] ; [0x415c] = 0x20000700
        0x00004128:    1e6d        m.      SUBS     r5,r5,#1
        0x0000412a:    e008        ..      B        0x413e ; readDwhp83 + 98
        0x0000412c:    20fa        .       MOVS     r0,#0xfa
        0x0000412e:    f000fa37    ..7.    BL       sysDelayUs ; 0x45a0
        0x00004132:    f7feff93    ....    BL       i2cReadByte ; 0x305c
        0x00004136:    5530        0U      STRB     r0,[r6,r4]
        0x00004138:    f7fdfb12    ....    BL       ack ; 0x1760
        0x0000413c:    1c64        d.      ADDS     r4,r4,#1
        0x0000413e:    42a5        .B      CMP      r5,r4
        0x00004140:    d8f4        ..      BHI      0x412c ; readDwhp83 + 80
        0x00004142:    20fa        .       MOVS     r0,#0xfa
        0x00004144:    f000fa2c    ..,.    BL       sysDelayUs ; 0x45a0
        0x00004148:    f7feff88    ....    BL       i2cReadByte ; 0x305c
        0x0000414c:    5530        0U      STRB     r0,[r6,r4]
        0x0000414e:    f7fffc83    ....    BL       nack ; 0x3a58
        0x00004152:    f7fff85b    ..[.    BL       i2cStop ; 0x320c
        0x00004156:    bdf8        ..      POP      {r3-r7,pc}
    $d
        0x00004158:    200000a4    ...     DCD    536871076
        0x0000415c:    20000700    ...     DCD    536872704
    $t
    i.readI2cChain
    readI2cChain
        0x00004160:    4906        .I      LDR      r1,[pc,#24] ; [0x417c] = 0x20000114
        0x00004162:    2200        ."      MOVS     r2,#0
        0x00004164:    6848        Hh      LDR      r0,[r1,#4]
        0x00004166:    2800        .(      CMP      r0,#0
        0x00004168:    d006        ..      BEQ      0x4178 ; readI2cChain + 24
        0x0000416a:    60c8        .`      STR      r0,[r1,#0xc]
        0x0000416c:    68c0        .h      LDR      r0,[r0,#0xc]
        0x0000416e:    6048        H`      STR      r0,[r1,#4]
        0x00004170:    2800        .(      CMP      r0,#0
        0x00004172:    d100        ..      BNE      0x4176 ; readI2cChain + 22
        0x00004174:    608a        .`      STR      r2,[r1,#8]
        0x00004176:    4770        pG      BX       lr
        0x00004178:    60ca        .`      STR      r2,[r1,#0xc]
        0x0000417a:    e7fb        ..      B        0x4174 ; readI2cChain + 20
    $d
        0x0000417c:    20000114    ...     DCD    536871188
    $t
    i.read_upgrade_eeprom
    read_upgrade_eeprom
        0x00004180:    b57c        |.      PUSH     {r2-r6,lr}
        0x00004182:    4605        .F      MOV      r5,r0
        0x00004184:    2001        .       MOVS     r0,#1
        0x00004186:    4c0b        .L      LDR      r4,[pc,#44] ; [0x41b4] = 0x20000068
        0x00004188:    4602        .F      MOV      r2,r0
        0x0000418a:    9000        ..      STR      r0,[sp,#0]
        0x0000418c:    2302        .#      MOVS     r3,#2
        0x0000418e:    21ae        .!      MOVS     r1,#0xae
        0x00004190:    9401        ..      STR      r4,[sp,#4]
        0x00004192:    4809        .H      LDR      r0,[pc,#36] ; [0x41b8] = 0x200006f0
        0x00004194:    f7fff8ca    ....    BL       initI2cDataBlock ; 0x332c
        0x00004198:    7065        ep      STRB     r5,[r4,#1]
        0x0000419a:    2000        .       MOVS     r0,#0
        0x0000419c:    70a0        .p      STRB     r0,[r4,#2]
        0x0000419e:    20a2        .       MOVS     r0,#0xa2
        0x000041a0:    7020         p      STRB     r0,[r4,#0]
        0x000041a2:    2100        .!      MOVS     r1,#0
        0x000041a4:    4804        .H      LDR      r0,[pc,#16] ; [0x41b8] = 0x200006f0
        0x000041a6:    f7fdfd01    ....    BL       addI2cChain ; 0x1bac
        0x000041aa:    7820         x      LDRB     r0,[r4,#0]
        0x000041ac:    28a2        .(      CMP      r0,#0xa2
        0x000041ae:    d0fc        ..      BEQ      0x41aa ; read_upgrade_eeprom + 42
        0x000041b0:    7820         x      LDRB     r0,[r4,#0]
        0x000041b2:    bd7c        |.      POP      {r2-r6,pc}
    $d
        0x000041b4:    20000068    h..     DCD    536871016
        0x000041b8:    200006f0    ...     DCD    536872688
    $t
    i.resetHook
    resetHook
        0x000041bc:    b510        ..      PUSH     {r4,lr}
        0x000041be:    4804        .H      LDR      r0,[pc,#16] ; [0x41d0] = 0x40004000
        0x000041c0:    6800        .h      LDR      r0,[r0,#0]
        0x000041c2:    2104        .!      MOVS     r1,#4
        0x000041c4:    4208        .B      TST      r0,r1
        0x000041c6:    d001        ..      BEQ      0x41cc ; resetHook + 16
        0x000041c8:    f7fdfa40    ..@.    BL       WDT_CLEAR_RESET_FLAG ; 0x164c
        0x000041cc:    bd10        ..      POP      {r4,pc}
    $d
        0x000041ce:    0000        ..      DCW    0
        0x000041d0:    40004000    .@.@    DCD    1073758208
    $t
    i.resumeI2c
    resumeI2c
        0x000041d4:    b510        ..      PUSH     {r4,lr}
        0x000041d6:    4805        .H      LDR      r0,[pc,#20] ; [0x41ec] = 0x20000114
        0x000041d8:    21a0        .!      MOVS     r1,#0xa0
        0x000041da:    7001        .p      STRB     r1,[r0,#0]
        0x000041dc:    2100        .!      MOVS     r1,#0
        0x000041de:    6041        A`      STR      r1,[r0,#4]
        0x000041e0:    6081        .`      STR      r1,[r0,#8]
        0x000041e2:    60c1        .`      STR      r1,[r0,#0xc]
        0x000041e4:    f7fdfe72    ..r.    BL       ampResumeI2c ; 0x1ecc
        0x000041e8:    bd10        ..      POP      {r4,pc}
    $d
        0x000041ea:    0000        ..      DCW    0
        0x000041ec:    20000114    ...     DCD    536871188
    $t
    i.sendDevInfo
    sendDevInfo
        0x000041f0:    b500        ..      PUSH     {lr}
        0x000041f2:    a008        ..      ADR      r0,{pc}+0x22 ; 0x4214
        0x000041f4:    f7fff8c8    ....    BL       iputs ; 0x3388
        0x000041f8:    a00a        ..      ADR      r0,{pc}+0x2c ; 0x4224
        0x000041fa:    f7fff8c5    ....    BL       iputs ; 0x3388
        0x000041fe:    a00e        ..      ADR      r0,{pc}+0x3a ; 0x4238
        0x00004200:    f7fff8c2    ....    BL       iputs ; 0x3388
        0x00004204:    a00f        ..      ADR      r0,{pc}+0x40 ; 0x4244
        0x00004206:    f7fff8bf    ....    BL       iputs ; 0x3388
        0x0000420a:    a010        ..      ADR      r0,{pc}+0x42 ; 0x424c
        0x0000420c:    f7fff8bc    ....    BL       iputs ; 0x3388
        0x00004210:    bd00        ..      POP      {pc}
    $d
        0x00004212:    0000        ..      DCW    0
        0x00004214:    3a75636d    mcu:    DCD    980771693
        0x00004218:    42534720     GSB    DCD    1112753952
        0x0000421c:    0a303537    750.    DCD    170931511
        0x00004220:    0000000d    ....    DCD    13
        0x00004224:    3a4a5250    PRJ:    DCD    977949264
        0x00004228:    6c754d20     Mul    DCD    1819626784
        0x0000422c:    6f526974    tiRo    DCD    1867671924
        0x00004230:    0d0a6d6f    om..    DCD    218787183
        0x00004234:    00000000    ....    DCD    0
        0x00004238:    53524556    VERS    DCD    1397900630
        0x0000423c:    3a4e4f49    ION:    DCD    978210633
        0x00004240:    00000020     ...    DCD    32
        0x00004244:    2e303176    v10.    DCD    774910326
        0x00004248:    00003335    53..    DCD    13109
        0x0000424c:    00000d0a    ....    DCD    3338
    $t
    i.sendStartInfo
    sendStartInfo
        0x00004250:    b500        ..      PUSH     {lr}
        0x00004252:    f7fefa49    ..I.    BL       clr ; 0x26e8
        0x00004256:    f7ffffcb    ....    BL       sendDevInfo ; 0x41f0
        0x0000425a:    a003        ..      ADR      r0,{pc}+0xe ; 0x4268
        0x0000425c:    f7fff894    ....    BL       iputs ; 0x3388
        0x00004260:    f7fefe0e    ....    BL       dps ; 0x2e80
        0x00004264:    bd00        ..      POP      {pc}
    $d
        0x00004266:    0000        ..      DCW    0
        0x00004268:    2d2d2d2d    ----    DCD    757935405
        0x0000426c:    2d2d2d2d    ----    DCD    757935405
        0x00004270:    2d2d2d2d    ----    DCD    757935405
        0x00004274:    2d2d2d2d    ----    DCD    757935405
        0x00004278:    2d2d2d2d    ----    DCD    757935405
        0x0000427c:    0d2d2d2d    ---.    DCD    221064493
        0x00004280:    00000a0a    ....    DCD    2570
    $t
    i.setConfig
    setConfig
        0x00004284:    4770        pG      BX       lr
        0x00004286:    0000        ..      MOVS     r0,r0
    i.spiFlashInit
    spiFlashInit
        0x00004288:    b570        p.      PUSH     {r4-r6,lr}
        0x0000428a:    2005        .       MOVS     r0,#5
        0x0000428c:    0700        ..      LSLS     r0,r0,#28
        0x0000428e:    6b41        Ak      LDR      r1,[r0,#0x34]
        0x00004290:    2210        ."      MOVS     r2,#0x10
        0x00004292:    4391        .C      BICS     r1,r1,r2
        0x00004294:    6341        Ac      STR      r1,[r0,#0x34]
        0x00004296:    4925        %I      LDR      r1,[pc,#148] ; [0x432c] = 0x50000040
        0x00004298:    690a        .i      LDR      r2,[r1,#0x10]
        0x0000429a:    024b        K.      LSLS     r3,r1,#9
        0x0000429c:    431a        .C      ORRS     r2,r2,r3
        0x0000429e:    610a        .a      STR      r2,[r1,#0x10]
        0x000042a0:    6b42        Bk      LDR      r2,[r0,#0x34]
        0x000042a2:    2320         #      MOVS     r3,#0x20
        0x000042a4:    431a        .C      ORRS     r2,r2,r3
        0x000042a6:    6342        Bc      STR      r2,[r0,#0x34]
        0x000042a8:    690a        .i      LDR      r2,[r1,#0x10]
        0x000042aa:    030b        ..      LSLS     r3,r1,#12
        0x000042ac:    431a        .C      ORRS     r2,r2,r3
        0x000042ae:    610a        .a      STR      r2,[r1,#0x10]
        0x000042b0:    6b42        Bk      LDR      r2,[r0,#0x34]
        0x000042b2:    2340        @#      MOVS     r3,#0x40
        0x000042b4:    431a        .C      ORRS     r2,r2,r3
        0x000042b6:    6342        Bc      STR      r2,[r0,#0x34]
        0x000042b8:    690a        .i      LDR      r2,[r1,#0x10]
        0x000042ba:    02cb        ..      LSLS     r3,r1,#11
        0x000042bc:    431a        .C      ORRS     r2,r2,r3
        0x000042be:    610a        .a      STR      r2,[r1,#0x10]
        0x000042c0:    6b42        Bk      LDR      r2,[r0,#0x34]
        0x000042c2:    2380        .#      MOVS     r3,#0x80
        0x000042c4:    431a        .C      ORRS     r2,r2,r3
        0x000042c6:    6342        Bc      STR      r2,[r0,#0x34]
        0x000042c8:    6908        .i      LDR      r0,[r1,#0x10]
        0x000042ca:    028a        ..      LSLS     r2,r1,#10
        0x000042cc:    4310        .C      ORRS     r0,r0,r2
        0x000042ce:    6108        .a      STR      r0,[r1,#0x10]
        0x000042d0:    4c17        .L      LDR      r4,[pc,#92] ; [0x4330] = 0x40130000
        0x000042d2:    68a0        .h      LDR      r0,[r4,#8]
        0x000042d4:    60a0        .`      STR      r0,[r4,#8]
        0x000042d6:    68a0        .h      LDR      r0,[r4,#8]
        0x000042d8:    2501        .%      MOVS     r5,#1
        0x000042da:    4328        (C      ORRS     r0,r0,r5
        0x000042dc:    60a0        .`      STR      r0,[r4,#8]
        0x000042de:    2320         #      MOVS     r3,#0x20
        0x000042e0:    4a14        .J      LDR      r2,[pc,#80] ; [0x4334] = 0x804
        0x000042e2:    2100        .!      MOVS     r1,#0
        0x000042e4:    4620         F      MOV      r0,r4
        0x000042e6:    f7fcfafd    ....    BL       DrvSPI_Init ; 0x8e4
        0x000042ea:    6820         h      LDR      r0,[r4,#0]
        0x000042ec:    02a9        ..      LSLS     r1,r5,#10
        0x000042ee:    4388        .C      BICS     r0,r0,r1
        0x000042f0:    6020         `      STR      r0,[r4,#0]
        0x000042f2:    6820         h      LDR      r0,[r4,#0]
        0x000042f4:    0249        I.      LSLS     r1,r1,#9
        0x000042f6:    4388        .C      BICS     r0,r0,r1
        0x000042f8:    6020         `      STR      r0,[r4,#0]
        0x000042fa:    6be0        .k      LDR      r0,[r4,#0x3c]
        0x000042fc:    0040        @.      LSLS     r0,r0,#1
        0x000042fe:    0840        @.      LSRS     r0,r0,#1
        0x00004300:    63e0        .c      STR      r0,[r4,#0x3c]
        0x00004302:    6860        `h      LDR      r0,[r4,#4]
        0x00004304:    0a00        ..      LSRS     r0,r0,#8
        0x00004306:    0200        ..      LSLS     r0,r0,#8
        0x00004308:    4328        (C      ORRS     r0,r0,r5
        0x0000430a:    6060        ``      STR      r0,[r4,#4]
        0x0000430c:    4a0a        .J      LDR      r2,[pc,#40] ; [0x4338] = 0x2000176c
        0x0000430e:    215c        \!      MOVS     r1,#0x5c
        0x00004310:    2000        .       MOVS     r0,#0
        0x00004312:    f000f89f    ....    BL       spiFlashRead ; 0x4454
        0x00004316:    4908        .I      LDR      r1,[pc,#32] ; [0x4338] = 0x2000176c
        0x00004318:    4b08        .K      LDR      r3,[pc,#32] ; [0x433c] = 0x4e534c47
        0x0000431a:    680a        .h      LDR      r2,[r1,#0]
        0x0000431c:    2000        .       MOVS     r0,#0
        0x0000431e:    429a        .B      CMP      r2,r3
        0x00004320:    d000        ..      BEQ      0x4324 ; spiFlashInit + 156
        0x00004322:    6088        .`      STR      r0,[r1,#8]
        0x00004324:    4906        .I      LDR      r1,[pc,#24] ; [0x4340] = 0x2000012c
        0x00004326:    7048        Hp      STRB     r0,[r1,#1]
        0x00004328:    65c8        .e      STR      r0,[r1,#0x5c]
        0x0000432a:    bd70        p.      POP      {r4-r6,pc}
    $d
        0x0000432c:    50000040    @..P    DCD    1342177344
        0x00004330:    40130000    ...@    DCD    1074987008
        0x00004334:    00000804    ....    DCD    2052
        0x00004338:    2000176c    l..     DCD    536876908
        0x0000433c:    4e534c47    GLSN    DCD    1314081863
        0x00004340:    2000012c    ,..     DCD    536871212
    $t
    i.spiFlashPageWrite
    spiFlashPageWrite
        0x00004344:    b5f7        ..      PUSH     {r0-r2,r4-r7,lr}
        0x00004346:    2500        .%      MOVS     r5,#0
        0x00004348:    460e        .F      MOV      r6,r1
        0x0000434a:    4607        .F      MOV      r7,r0
        0x0000434c:    2900        .)      CMP      r1,#0
        0x0000434e:    d009        ..      BEQ      0x4364 ; spiFlashPageWrite + 32
        0x00004350:    0339        9.      LSLS     r1,r7,#12
        0x00004352:    2007        .       MOVS     r0,#7
        0x00004354:    0b09        ..      LSRS     r1,r1,#12
        0x00004356:    0440        @.      LSLS     r0,r0,#17
        0x00004358:    4281        .B      CMP      r1,r0
        0x0000435a:    d303        ..      BCC      0x4364 ; spiFlashPageWrite + 32
        0x0000435c:    20ff        .       MOVS     r0,#0xff
        0x0000435e:    3001        .0      ADDS     r0,#1
        0x00004360:    4286        .B      CMP      r6,r0
        0x00004362:    d901        ..      BLS      0x4368 ; spiFlashPageWrite + 36
        0x00004364:    2000        .       MOVS     r0,#0
        0x00004366:    bdfe        ..      POP      {r1-r7,pc}
        0x00004368:    4c38        8L      LDR      r4,[pc,#224] ; [0x444c] = 0x40130000
        0x0000436a:    68a0        .h      LDR      r0,[r4,#8]
        0x0000436c:    0840        @.      LSRS     r0,r0,#1
        0x0000436e:    0040        @.      LSLS     r0,r0,#1
        0x00004370:    60a0        .`      STR      r0,[r4,#8]
        0x00004372:    6821        !h      LDR      r1,[r4,#0]
        0x00004374:    2001        .       MOVS     r0,#1
        0x00004376:    04c0        ..      LSLS     r0,r0,#19
        0x00004378:    4381        .C      BICS     r1,r1,r0
        0x0000437a:    6021        !`      STR      r1,[r4,#0]
        0x0000437c:    68a0        .h      LDR      r0,[r4,#8]
        0x0000437e:    2101        .!      MOVS     r1,#1
        0x00004380:    4308        .C      ORRS     r0,r0,r1
        0x00004382:    60a0        .`      STR      r0,[r4,#8]
        0x00004384:    2108        .!      MOVS     r1,#8
        0x00004386:    2006        .       MOVS     r0,#6
        0x00004388:    f000f894    ....    BL       spiSendWord ; 0x44b4
        0x0000438c:    68a0        .h      LDR      r0,[r4,#8]
        0x0000438e:    0840        @.      LSRS     r0,r0,#1
        0x00004390:    0040        @.      LSLS     r0,r0,#1
        0x00004392:    60a0        .`      STR      r0,[r4,#8]
        0x00004394:    bf00        ..      NOP      
        0x00004396:    68a0        .h      LDR      r0,[r4,#8]
        0x00004398:    2101        .!      MOVS     r1,#1
        0x0000439a:    4308        .C      ORRS     r0,r0,r1
        0x0000439c:    60a0        .`      STR      r0,[r4,#8]
        0x0000439e:    2108        .!      MOVS     r1,#8
        0x000043a0:    2002        .       MOVS     r0,#2
        0x000043a2:    f000f887    ....    BL       spiSendWord ; 0x44b4
        0x000043a6:    0a38        8.      LSRS     r0,r7,#8
        0x000043a8:    0200        ..      LSLS     r0,r0,#8
        0x000043aa:    2118        .!      MOVS     r1,#0x18
        0x000043ac:    f000f882    ....    BL       spiSendWord ; 0x44b4
        0x000043b0:    e005        ..      B        0x43be ; spiFlashPageWrite + 122
        0x000043b2:    9802        ..      LDR      r0,[sp,#8]
        0x000043b4:    2108        .!      MOVS     r1,#8
        0x000043b6:    5d40        @]      LDRB     r0,[r0,r5]
        0x000043b8:    f000f87c    ..|.    BL       spiSendWord ; 0x44b4
        0x000043bc:    1c6d        m.      ADDS     r5,r5,#1
        0x000043be:    42b5        .B      CMP      r5,r6
        0x000043c0:    d3f7        ..      BCC      0x43b2 ; spiFlashPageWrite + 110
        0x000043c2:    68a0        .h      LDR      r0,[r4,#8]
        0x000043c4:    0840        @.      LSRS     r0,r0,#1
        0x000043c6:    0040        @.      LSLS     r0,r0,#1
        0x000043c8:    60a0        .`      STR      r0,[r4,#8]
        0x000043ca:    6820         h      LDR      r0,[r4,#0]
        0x000043cc:    2501        .%      MOVS     r5,#1
        0x000043ce:    04ed        ..      LSLS     r5,r5,#19
        0x000043d0:    43a8        .C      BICS     r0,r0,r5
        0x000043d2:    6020         `      STR      r0,[r4,#0]
        0x000043d4:    68a0        .h      LDR      r0,[r4,#8]
        0x000043d6:    2601        .&      MOVS     r6,#1
        0x000043d8:    4330        0C      ORRS     r0,r0,r6
        0x000043da:    60a0        .`      STR      r0,[r4,#8]
        0x000043dc:    2108        .!      MOVS     r1,#8
        0x000043de:    2004        .       MOVS     r0,#4
        0x000043e0:    f000f868    ..h.    BL       spiSendWord ; 0x44b4
        0x000043e4:    68a0        .h      LDR      r0,[r4,#8]
        0x000043e6:    43b0        .C      BICS     r0,r0,r6
        0x000043e8:    60a0        .`      STR      r0,[r4,#8]
        0x000043ea:    68a0        .h      LDR      r0,[r4,#8]
        0x000043ec:    43b0        .C      BICS     r0,r0,r6
        0x000043ee:    60a0        .`      STR      r0,[r4,#8]
        0x000043f0:    6820         h      LDR      r0,[r4,#0]
        0x000043f2:    43a8        .C      BICS     r0,r0,r5
        0x000043f4:    6020         `      STR      r0,[r4,#0]
        0x000043f6:    68a0        .h      LDR      r0,[r4,#8]
        0x000043f8:    4330        0C      ORRS     r0,r0,r6
        0x000043fa:    60a0        .`      STR      r0,[r4,#8]
        0x000043fc:    2108        .!      MOVS     r1,#8
        0x000043fe:    2005        .       MOVS     r0,#5
        0x00004400:    f000f858    ..X.    BL       spiSendWord ; 0x44b4
        0x00004404:    2108        .!      MOVS     r1,#8
        0x00004406:    20ff        .       MOVS     r0,#0xff
        0x00004408:    f000f854    ..T.    BL       spiSendWord ; 0x44b4
        0x0000440c:    6920         i      LDR      r0,[r4,#0x10]
        0x0000440e:    4f10        .O      LDR      r7,[pc,#64] ; [0x4450] = 0x2000012c
        0x00004410:    e012        ..      B        0x4438 ; spiFlashPageWrite + 244
        0x00004412:    68a0        .h      LDR      r0,[r4,#8]
        0x00004414:    0840        @.      LSRS     r0,r0,#1
        0x00004416:    0040        @.      LSLS     r0,r0,#1
        0x00004418:    60a0        .`      STR      r0,[r4,#8]
        0x0000441a:    6820         h      LDR      r0,[r4,#0]
        0x0000441c:    43a8        .C      BICS     r0,r0,r5
        0x0000441e:    6020         `      STR      r0,[r4,#0]
        0x00004420:    68a0        .h      LDR      r0,[r4,#8]
        0x00004422:    4330        0C      ORRS     r0,r0,r6
        0x00004424:    60a0        .`      STR      r0,[r4,#8]
        0x00004426:    2108        .!      MOVS     r1,#8
        0x00004428:    2005        .       MOVS     r0,#5
        0x0000442a:    f000f843    ..C.    BL       spiSendWord ; 0x44b4
        0x0000442e:    2108        .!      MOVS     r1,#8
        0x00004430:    20ff        .       MOVS     r0,#0xff
        0x00004432:    f000f83f    ..?.    BL       spiSendWord ; 0x44b4
        0x00004436:    6920         i      LDR      r0,[r4,#0x10]
        0x00004438:    70b8        .p      STRB     r0,[r7,#2]
        0x0000443a:    68a0        .h      LDR      r0,[r4,#8]
        0x0000443c:    0840        @.      LSRS     r0,r0,#1
        0x0000443e:    0040        @.      LSLS     r0,r0,#1
        0x00004440:    60a0        .`      STR      r0,[r4,#8]
        0x00004442:    78b8        .x      LDRB     r0,[r7,#2]
        0x00004444:    07c0        ..      LSLS     r0,r0,#31
        0x00004446:    d1e4        ..      BNE      0x4412 ; spiFlashPageWrite + 206
        0x00004448:    2001        .       MOVS     r0,#1
        0x0000444a:    bdfe        ..      POP      {r1-r7,pc}
    $d
        0x0000444c:    40130000    ...@    DCD    1074987008
        0x00004450:    2000012c    ,..     DCD    536871212
    $t
    i.spiFlashRead
    spiFlashRead
        0x00004454:    b5f7        ..      PUSH     {r0-r2,r4-r7,lr}
        0x00004456:    4d16        .M      LDR      r5,[pc,#88] ; [0x44b0] = 0x40130000
        0x00004458:    4616        .F      MOV      r6,r2
        0x0000445a:    68a8        .h      LDR      r0,[r5,#8]
        0x0000445c:    460f        .F      MOV      r7,r1
        0x0000445e:    2400        .$      MOVS     r4,#0
        0x00004460:    0840        @.      LSRS     r0,r0,#1
        0x00004462:    0040        @.      LSLS     r0,r0,#1
        0x00004464:    60a8        .`      STR      r0,[r5,#8]
        0x00004466:    6829        )h      LDR      r1,[r5,#0]
        0x00004468:    2001        .       MOVS     r0,#1
        0x0000446a:    04c0        ..      LSLS     r0,r0,#19
        0x0000446c:    4381        .C      BICS     r1,r1,r0
        0x0000446e:    6029        )`      STR      r1,[r5,#0]
        0x00004470:    68a8        .h      LDR      r0,[r5,#8]
        0x00004472:    2101        .!      MOVS     r1,#1
        0x00004474:    4308        .C      ORRS     r0,r0,r1
        0x00004476:    60a8        .`      STR      r0,[r5,#8]
        0x00004478:    2108        .!      MOVS     r1,#8
        0x0000447a:    2003        .       MOVS     r0,#3
        0x0000447c:    f000f81a    ....    BL       spiSendWord ; 0x44b4
        0x00004480:    2118        .!      MOVS     r1,#0x18
        0x00004482:    9800        ..      LDR      r0,[sp,#0]
        0x00004484:    f000f816    ....    BL       spiSendWord ; 0x44b4
        0x00004488:    6828        (h      LDR      r0,[r5,#0]
        0x0000448a:    2101        .!      MOVS     r1,#1
        0x0000448c:    04c9        ..      LSLS     r1,r1,#19
        0x0000448e:    4308        .C      ORRS     r0,r0,r1
        0x00004490:    6028        (`      STR      r0,[r5,#0]
        0x00004492:    e006        ..      B        0x44a2 ; spiFlashRead + 78
        0x00004494:    2108        .!      MOVS     r1,#8
        0x00004496:    20ff        .       MOVS     r0,#0xff
        0x00004498:    f000f80c    ....    BL       spiSendWord ; 0x44b4
        0x0000449c:    6928        (i      LDR      r0,[r5,#0x10]
        0x0000449e:    5530        0U      STRB     r0,[r6,r4]
        0x000044a0:    1c64        d.      ADDS     r4,r4,#1
        0x000044a2:    42bc        .B      CMP      r4,r7
        0x000044a4:    d3f6        ..      BCC      0x4494 ; spiFlashRead + 64
        0x000044a6:    68a8        .h      LDR      r0,[r5,#8]
        0x000044a8:    0840        @.      LSRS     r0,r0,#1
        0x000044aa:    0040        @.      LSLS     r0,r0,#1
        0x000044ac:    60a8        .`      STR      r0,[r5,#8]
        0x000044ae:    bdfe        ..      POP      {r1-r7,pc}
    $d
        0x000044b0:    40130000    ...@    DCD    1074987008
    $t
    i.spiSendWord
    spiSendWord
        0x000044b4:    b570        p.      PUSH     {r4-r6,lr}
        0x000044b6:    4c07        .L      LDR      r4,[pc,#28] ; [0x44d4] = 0x40130000
        0x000044b8:    4605        .F      MOV      r5,r0
        0x000044ba:    4620         F      MOV      r0,r4
        0x000044bc:    f7fcfebd    ....    BL       SPI_SET_TX_BIT_LEN ; 0x123a
        0x000044c0:    6225        %b      STR      r5,[r4,#0x20]
        0x000044c2:    6820         h      LDR      r0,[r4,#0]
        0x000044c4:    2101        .!      MOVS     r1,#1
        0x000044c6:    4308        .C      ORRS     r0,r0,r1
        0x000044c8:    6020         `      STR      r0,[r4,#0]
        0x000044ca:    6820         h      LDR      r0,[r4,#0]
        0x000044cc:    07c0        ..      LSLS     r0,r0,#31
        0x000044ce:    0fc0        ..      LSRS     r0,r0,#31
        0x000044d0:    d1fb        ..      BNE      0x44ca ; spiSendWord + 22
        0x000044d2:    bd70        p.      POP      {r4-r6,pc}
    $d
        0x000044d4:    40130000    ...@    DCD    1074987008
    $t
    i.spiSendWord
    spiSendWord
        0x000044d8:    b510        ..      PUSH     {r4,lr}
        0x000044da:    4a0a        .J      LDR      r2,[pc,#40] ; [0x4504] = 0x40130000
        0x000044dc:    6813        .h      LDR      r3,[r2,#0]
        0x000044de:    24f8        .$      MOVS     r4,#0xf8
        0x000044e0:    43a3        .C      BICS     r3,r3,r4
        0x000044e2:    2920         )      CMP      r1,#0x20
        0x000044e4:    d100        ..      BNE      0x44e8 ; spiSendWord + 16
        0x000044e6:    2100        .!      MOVS     r1,#0
        0x000044e8:    00c9        ..      LSLS     r1,r1,#3
        0x000044ea:    430b        .C      ORRS     r3,r3,r1
        0x000044ec:    6013        .`      STR      r3,[r2,#0]
        0x000044ee:    6210        .b      STR      r0,[r2,#0x20]
        0x000044f0:    6810        .h      LDR      r0,[r2,#0]
        0x000044f2:    2101        .!      MOVS     r1,#1
        0x000044f4:    4308        .C      ORRS     r0,r0,r1
        0x000044f6:    6010        .`      STR      r0,[r2,#0]
        0x000044f8:    6810        .h      LDR      r0,[r2,#0]
        0x000044fa:    07c0        ..      LSLS     r0,r0,#31
        0x000044fc:    0fc0        ..      LSRS     r0,r0,#31
        0x000044fe:    d1fb        ..      BNE      0x44f8 ; spiSendWord + 32
        0x00004500:    bd10        ..      POP      {r4,pc}
    $d
        0x00004502:    0000        ..      DCW    0
        0x00004504:    40130000    ...@    DCD    1074987008
    $t
    i.startATask
    startATask
        0x00004508:    b570        p.      PUSH     {r4-r6,lr}
        0x0000450a:    4c0a        .L      LDR      r4,[pc,#40] ; [0x4534] = 0xe000e000
        0x0000450c:    6926        &i      LDR      r6,[r4,#0x10]
        0x0000450e:    2502        .%      MOVS     r5,#2
        0x00004510:    43ae        .C      BICS     r6,r6,r5
        0x00004512:    6126        &a      STR      r6,[r4,#0x10]
        0x00004514:    bf00        ..      NOP      
        0x00004516:    bf00        ..      NOP      
        0x00004518:    260c        .&      MOVS     r6,#0xc
        0x0000451a:    4370        pC      MULS     r0,r6,r0
        0x0000451c:    4e06        .N      LDR      r6,[pc,#24] ; [0x4538] = 0x20001948
        0x0000451e:    5432        2T      STRB     r2,[r6,r0]
        0x00004520:    1980        ..      ADDS     r0,r0,r6
        0x00004522:    6083        .`      STR      r3,[r0,#8]
        0x00004524:    6041        A`      STR      r1,[r0,#4]
        0x00004526:    2101        .!      MOVS     r1,#1
        0x00004528:    7041        Ap      STRB     r1,[r0,#1]
        0x0000452a:    6920         i      LDR      r0,[r4,#0x10]
        0x0000452c:    4328        (C      ORRS     r0,r0,r5
        0x0000452e:    6120         a      STR      r0,[r4,#0x10]
        0x00004530:    bd70        p.      POP      {r4-r6,pc}
    $d
        0x00004532:    0000        ..      DCW    0
        0x00004534:    e000e000    ....    DCD    3758153728
        0x00004538:    20001948    H..     DCD    536877384
    $t
    i.stopATask
    stopATask
        0x0000453c:    220c        ."      MOVS     r2,#0xc
        0x0000453e:    4350        PC      MULS     r0,r2,r0
        0x00004540:    4a02        .J      LDR      r2,[pc,#8] ; [0x454c] = 0x20001948
        0x00004542:    2100        .!      MOVS     r1,#0
        0x00004544:    1880        ..      ADDS     r0,r0,r2
        0x00004546:    7041        Ap      STRB     r1,[r0,#1]
        0x00004548:    4770        pG      BX       lr
    $d
        0x0000454a:    0000        ..      DCW    0
        0x0000454c:    20001948    H..     DCD    536877384
    $t
    i.stopATask
    stopATask
        0x00004550:    220c        ."      MOVS     r2,#0xc
        0x00004552:    4350        PC      MULS     r0,r2,r0
        0x00004554:    4a02        .J      LDR      r2,[pc,#8] ; [0x4560] = 0x20001948
        0x00004556:    2100        .!      MOVS     r1,#0
        0x00004558:    1880        ..      ADDS     r0,r0,r2
        0x0000455a:    7041        Ap      STRB     r1,[r0,#1]
        0x0000455c:    4770        pG      BX       lr
    $d
        0x0000455e:    0000        ..      DCW    0
        0x00004560:    20001948    H..     DCD    536877384
    $t
    i.stopFlashLed
    stopFlashLed
        0x00004564:    b510        ..      PUSH     {r4,lr}
        0x00004566:    4802        .H      LDR      r0,[pc,#8] ; [0x4570] = 0x200003c4
        0x00004568:    7900        .y      LDRB     r0,[r0,#4]
        0x0000456a:    f7fffff1    ....    BL       stopATask ; 0x4550
        0x0000456e:    bd10        ..      POP      {r4,pc}
    $d
        0x00004570:    200003c4    ...     DCD    536871876
    $t
    i.sysDelayMs
    sysDelayMs
        0x00004574:    b570        p.      PUSH     {r4-r6,lr}
        0x00004576:    4c08        .L      LDR      r4,[pc,#32] ; [0x4598] = 0x2000069c
        0x00004578:    6821        !h      LDR      r1,[r4,#0]
        0x0000457a:    4e08        .N      LDR      r6,[pc,#32] ; [0x459c] = 0x50000100
        0x0000457c:    1808        ..      ADDS     r0,r1,r0
        0x0000457e:    2500        .%      MOVS     r5,#0
        0x00004580:    60a0        .`      STR      r0,[r4,#8]
        0x00004582:    e004        ..      B        0x458e ; sysDelayMs + 26
        0x00004584:    f7fcfea6    ....    BL       SYS_UnlockReg ; 0x12d4
        0x00004588:    f7fdf8a4    ....    BL       WDT_TIMER_RESET ; 0x16d4
        0x0000458c:    6035        5`      STR      r5,[r6,#0]
        0x0000458e:    6821        !h      LDR      r1,[r4,#0]
        0x00004590:    68a0        .h      LDR      r0,[r4,#8]
        0x00004592:    4288        .B      CMP      r0,r1
        0x00004594:    d2f6        ..      BCS      0x4584 ; sysDelayMs + 16
        0x00004596:    bd70        p.      POP      {r4-r6,pc}
    $d
        0x00004598:    2000069c    ...     DCD    536872604
        0x0000459c:    50000100    ...P    DCD    1342177536
    $t
    i.sysDelayUs
    sysDelayUs
        0x000045a0:    4907        .I      LDR      r1,[pc,#28] ; [0x45c0] = 0x2000069c
        0x000045a2:    2300        .#      MOVS     r3,#0
        0x000045a4:    e008        ..      B        0x45b8 ; sysDelayUs + 24
        0x000045a6:    1e40        @.      SUBS     r0,r0,#1
        0x000045a8:    604b        K`      STR      r3,[r1,#4]
        0x000045aa:    e002        ..      B        0x45b2 ; sysDelayUs + 18
        0x000045ac:    684a        Jh      LDR      r2,[r1,#4]
        0x000045ae:    1c52        R.      ADDS     r2,r2,#1
        0x000045b0:    604a        J`      STR      r2,[r1,#4]
        0x000045b2:    684a        Jh      LDR      r2,[r1,#4]
        0x000045b4:    2a05        .*      CMP      r2,#5
        0x000045b6:    d3f9        ..      BCC      0x45ac ; sysDelayUs + 12
        0x000045b8:    2800        .(      CMP      r0,#0
        0x000045ba:    d1f4        ..      BNE      0x45a6 ; sysDelayUs + 6
        0x000045bc:    4770        pG      BX       lr
    $d
        0x000045be:    0000        ..      DCW    0
        0x000045c0:    2000069c    ...     DCD    536872604
    $t
    i.sysTaskInit
    sysTaskInit
        0x000045c4:    2000        .       MOVS     r0,#0
        0x000045c6:    4b07        .K      LDR      r3,[pc,#28] ; [0x45e4] = 0x20001948
        0x000045c8:    4602        .F      MOV      r2,r0
        0x000045ca:    210c        .!      MOVS     r1,#0xc
        0x000045cc:    4341        AC      MULS     r1,r0,r1
        0x000045ce:    545a        ZT      STRB     r2,[r3,r1]
        0x000045d0:    18c9        ..      ADDS     r1,r1,r3
        0x000045d2:    704a        Jp      STRB     r2,[r1,#1]
        0x000045d4:    708a        .p      STRB     r2,[r1,#2]
        0x000045d6:    604a        J`      STR      r2,[r1,#4]
        0x000045d8:    1c40        @.      ADDS     r0,r0,#1
        0x000045da:    608a        .`      STR      r2,[r1,#8]
        0x000045dc:    280a        .(      CMP      r0,#0xa
        0x000045de:    d3f4        ..      BCC      0x45ca ; sysTaskInit + 6
        0x000045e0:    4770        pG      BX       lr
    $d
        0x000045e2:    0000        ..      DCW    0
        0x000045e4:    20001948    H..     DCD    536877384
    $t
    i.timerInit
    timerInit
        0x000045e8:    b510        ..      PUSH     {r4,lr}
        0x000045ea:    480e        .H      LDR      r0,[pc,#56] ; [0x4624] = 0x50000200
        0x000045ec:    6941        Ai      LDR      r1,[r0,#0x14]
        0x000045ee:    2207        ."      MOVS     r2,#7
        0x000045f0:    0212        ..      LSLS     r2,r2,#8
        0x000045f2:    4391        .C      BICS     r1,r1,r2
        0x000045f4:    6141        Aa      STR      r1,[r0,#0x14]
        0x000045f6:    4c0c        .L      LDR      r4,[pc,#48] ; [0x4628] = 0x40010000
        0x000045f8:    04c3        ..      LSLS     r3,r0,#19
        0x000045fa:    220a        ."      MOVS     r2,#0xa
        0x000045fc:    2115        .!      MOVS     r1,#0x15
        0x000045fe:    4620         F      MOV      r0,r4
        0x00004600:    f7fcf9e8    ....    BL       DrvTIMER_Init ; 0x9d4
        0x00004604:    4909        .I      LDR      r1,[pc,#36] ; [0x462c] = 0xe000e408
        0x00004606:    6808        .h      LDR      r0,[r1,#0]
        0x00004608:    0a02        ..      LSRS     r2,r0,#8
        0x0000460a:    0212        ..      LSLS     r2,r2,#8
        0x0000460c:    2080        .       MOVS     r0,#0x80
        0x0000460e:    4302        .C      ORRS     r2,r2,r0
        0x00004610:    600a        .`      STR      r2,[r1,#0]
        0x00004612:    0581        ..      LSLS     r1,r0,#22
        0x00004614:    4620         F      MOV      r0,r4
        0x00004616:    f7fcf9b5    ....    BL       DrvTIMER_EnableInt ; 0x984
        0x0000461a:    6821        !h      LDR      r1,[r4,#0]
        0x0000461c:    03a2        ..      LSLS     r2,r4,#14
        0x0000461e:    4311        .C      ORRS     r1,r1,r2
        0x00004620:    6021        !`      STR      r1,[r4,#0]
        0x00004622:    bd10        ..      POP      {r4,pc}
    $d
        0x00004624:    50000200    ...P    DCD    1342177792
        0x00004628:    40010000    ...@    DCD    1073807360
        0x0000462c:    e000e408    ....    DCD    3758154760
    $t
    i.turnDownVolume
    turnDownVolume
        0x00004630:    b5f8        ..      PUSH     {r3-r7,lr}
        0x00004632:    4b23        #K      LDR      r3,[pc,#140] ; [0x46c0] = 0x200003cc
        0x00004634:    7818        .x      LDRB     r0,[r3,#0]
        0x00004636:    4f23        #O      LDR      r7,[pc,#140] ; [0x46c4] = 0x2000039d
        0x00004638:    28a0        .(      CMP      r0,#0xa0
        0x0000463a:    d139        9.      BNE      0x46b0 ; turnDownVolume + 128
        0x0000463c:    461a        .F      MOV      r2,r3
        0x0000463e:    3a08        .:      SUBS     r2,r2,#8
        0x00004640:    68d0        .h      LDR      r0,[r2,#0xc]
        0x00004642:    2800        .(      CMP      r0,#0
        0x00004644:    d01b        ..      BEQ      0x467e ; turnDownVolume + 78
        0x00004646:    4615        .F      MOV      r5,r2
        0x00004648:    7898        .x      LDRB     r0,[r3,#2]
        0x0000464a:    3540        @5      ADDS     r5,r5,#0x40
        0x0000464c:    2620         &      MOVS     r6,#0x20
        0x0000464e:    68d4        .h      LDR      r4,[r2,#0xc]
        0x00004650:    1929        ).      ADDS     r1,r5,r4
        0x00004652:    3920         9      SUBS     r1,r1,#0x20
        0x00004654:    7fc9        ..      LDRB     r1,[r1,#0x1f]
        0x00004656:    4288        .B      CMP      r0,r1
        0x00004658:    d20a        ..      BCS      0x4670 ; turnDownVolume + 64
        0x0000465a:    5d29        )]      LDRB     r1,[r5,r4]
        0x0000465c:    4288        .B      CMP      r0,r1
        0x0000465e:    d307        ..      BCC      0x4670 ; turnDownVolume + 64
        0x00004660:    1928        (.      ADDS     r0,r5,r4
        0x00004662:    3820         8      SUBS     r0,r0,#0x20
        0x00004664:    7fc0        ..      LDRB     r0,[r0,#0x1f]
        0x00004666:    1e66        f.      SUBS     r6,r4,#1
        0x00004668:    7098        .p      STRB     r0,[r3,#2]
        0x0000466a:    2c01        .,      CMP      r4,#1
        0x0000466c:    d907        ..      BLS      0x467e ; turnDownVolume + 78
        0x0000466e:    e009        ..      B        0x4684 ; turnDownVolume + 84
        0x00004670:    2c01        .,      CMP      r4,#1
        0x00004672:    d100        ..      BNE      0x4676 ; turnDownVolume + 70
        0x00004674:    60d6        .`      STR      r6,[r2,#0xc]
        0x00004676:    68d1        .h      LDR      r1,[r2,#0xc]
        0x00004678:    1e49        I.      SUBS     r1,r1,#1
        0x0000467a:    60d1        .`      STR      r1,[r2,#0xc]
        0x0000467c:    d1e7        ..      BNE      0x464e ; turnDownVolume + 30
        0x0000467e:    201f        .       MOVS     r0,#0x1f
        0x00004680:    60d0        .`      STR      r0,[r2,#0xc]
        0x00004682:    e015        ..      B        0x46b0 ; turnDownVolume + 128
        0x00004684:    480e        .H      LDR      r0,[pc,#56] ; [0x46c0] = 0x200003cc
        0x00004686:    3018        .0      ADDS     r0,r0,#0x18
        0x00004688:    5d81        .]      LDRB     r1,[r0,r6]
        0x0000468a:    2007        .       MOVS     r0,#7
        0x0000468c:    f7fdfc72    ..r.    BL       ampSendCmd_38 ; 0x1f74
        0x00004690:    f7fbff60    ..`.    BL       DECT_DC ; 0x554
        0x00004694:    490a        .I      LDR      r1,[pc,#40] ; [0x46c0] = 0x200003cc
        0x00004696:    200a        .       MOVS     r0,#0xa
        0x00004698:    3158        X1      ADDS     r1,r1,#0x58
        0x0000469a:    5d89        .]      LDRB     r1,[r1,r6]
        0x0000469c:    f7fdfc6a    ..j.    BL       ampSendCmd_38 ; 0x1f74
        0x000046a0:    5da9        .]      LDRB     r1,[r5,r6]
        0x000046a2:    2009        .       MOVS     r0,#9
        0x000046a4:    f7fdfc66    ..f.    BL       ampSendCmd_38 ; 0x1f74
        0x000046a8:    5da9        .]      LDRB     r1,[r5,r6]
        0x000046aa:    2008        .       MOVS     r0,#8
        0x000046ac:    f7fdfc62    ..b.    BL       ampSendCmd_38 ; 0x1f74
        0x000046b0:    4b05        .K      LDR      r3,[pc,#20] ; [0x46c8] = 0x399
        0x000046b2:    2200        ."      MOVS     r2,#0
        0x000046b4:    2103        .!      MOVS     r1,#3
        0x000046b6:    7838        8x      LDRB     r0,[r7,#0]
        0x000046b8:    f7ffff26    ..&.    BL       startATask ; 0x4508
        0x000046bc:    bdf8        ..      POP      {r3-r7,pc}
    $d
        0x000046be:    0000        ..      DCW    0
        0x000046c0:    200003cc    ...     DCD    536871884
        0x000046c4:    2000039d    ...     DCD    536871837
        0x000046c8:    00000399    ....    DCD    921
    $t
    i.turnUpVolume
    turnUpVolume
        0x000046cc:    b570        p.      PUSH     {r4-r6,lr}
        0x000046ce:    481d        .H      LDR      r0,[pc,#116] ; [0x4744] = 0x200003cc
        0x000046d0:    2400        .$      MOVS     r4,#0
        0x000046d2:    7801        .x      LDRB     r1,[r0,#0]
        0x000046d4:    29a0        .)      CMP      r1,#0xa0
        0x000046d6:    d12d        -.      BNE      0x4734 ; turnUpVolume + 104
        0x000046d8:    4603        .F      MOV      r3,r0
        0x000046da:    3b08        .;      SUBS     r3,r3,#8
        0x000046dc:    68d9        .h      LDR      r1,[r3,#0xc]
        0x000046de:    291f        .)      CMP      r1,#0x1f
        0x000046e0:    d301        ..      BCC      0x46e6 ; turnUpVolume + 26
        0x000046e2:    2100        .!      MOVS     r1,#0
        0x000046e4:    60d9        .`      STR      r1,[r3,#0xc]
        0x000046e6:    4d17        .M      LDR      r5,[pc,#92] ; [0x4744] = 0x200003cc
        0x000046e8:    7881        .x      LDRB     r1,[r0,#2]
        0x000046ea:    3538        85      ADDS     r5,r5,#0x38
        0x000046ec:    68d8        .h      LDR      r0,[r3,#0xc]
        0x000046ee:    5c2a        *\      LDRB     r2,[r5,r0]
        0x000046f0:    4291        .B      CMP      r1,r2
        0x000046f2:    d805        ..      BHI      0x4700 ; turnUpVolume + 52
        0x000046f4:    182a        *.      ADDS     r2,r5,r0
        0x000046f6:    7852        Rx      LDRB     r2,[r2,#1]
        0x000046f8:    4291        .B      CMP      r1,r2
        0x000046fa:    d901        ..      BLS      0x4700 ; turnUpVolume + 52
        0x000046fc:    1c44        D.      ADDS     r4,r0,#1
        0x000046fe:    e003        ..      B        0x4708 ; turnUpVolume + 60
        0x00004700:    1c40        @.      ADDS     r0,r0,#1
        0x00004702:    60d8        .`      STR      r0,[r3,#0xc]
        0x00004704:    281f        .(      CMP      r0,#0x1f
        0x00004706:    d3f1        ..      BCC      0x46ec ; turnUpVolume + 32
        0x00004708:    480e        .H      LDR      r0,[pc,#56] ; [0x4744] = 0x200003cc
        0x0000470a:    3018        .0      ADDS     r0,r0,#0x18
        0x0000470c:    5d01        .]      LDRB     r1,[r0,r4]
        0x0000470e:    2007        .       MOVS     r0,#7
        0x00004710:    f7fdfc30    ..0.    BL       ampSendCmd_38 ; 0x1f74
        0x00004714:    f7fbff1e    ....    BL       DECT_DC ; 0x554
        0x00004718:    490a        .I      LDR      r1,[pc,#40] ; [0x4744] = 0x200003cc
        0x0000471a:    200a        .       MOVS     r0,#0xa
        0x0000471c:    3158        X1      ADDS     r1,r1,#0x58
        0x0000471e:    5d09        .]      LDRB     r1,[r1,r4]
        0x00004720:    f7fdfc28    ..(.    BL       ampSendCmd_38 ; 0x1f74
        0x00004724:    5d29        )]      LDRB     r1,[r5,r4]
        0x00004726:    2009        .       MOVS     r0,#9
        0x00004728:    f7fdfc24    ..$.    BL       ampSendCmd_38 ; 0x1f74
        0x0000472c:    5d29        )]      LDRB     r1,[r5,r4]
        0x0000472e:    2008        .       MOVS     r0,#8
        0x00004730:    f7fdfc20    .. .    BL       ampSendCmd_38 ; 0x1f74
        0x00004734:    4805        .H      LDR      r0,[pc,#20] ; [0x474c] = 0x2000039d
        0x00004736:    4b04        .K      LDR      r3,[pc,#16] ; [0x4748] = 0x399
        0x00004738:    2200        ."      MOVS     r2,#0
        0x0000473a:    2103        .!      MOVS     r1,#3
        0x0000473c:    7800        .x      LDRB     r0,[r0,#0]
        0x0000473e:    f7fffee3    ....    BL       startATask ; 0x4508
        0x00004742:    bd70        p.      POP      {r4-r6,pc}
    $d
        0x00004744:    200003cc    ...     DCD    536871884
        0x00004748:    00000399    ....    DCD    921
        0x0000474c:    2000039d    ...     DCD    536871837
    $t
    i.uartInit
    uartInit
        0x00004750:    b570        p.      PUSH     {r4-r6,lr}
        0x00004752:    2005        .       MOVS     r0,#5
        0x00004754:    0700        ..      LSLS     r0,r0,#28
        0x00004756:    6b81        .k      LDR      r1,[r0,#0x38]
        0x00004758:    b08a        ..      SUB      sp,sp,#0x28
        0x0000475a:    2230        0"      MOVS     r2,#0x30
        0x0000475c:    4311        .C      ORRS     r1,r1,r2
        0x0000475e:    6381        .c      STR      r1,[r0,#0x38]
        0x00004760:    481f        .H      LDR      r0,[pc,#124] ; [0x47e0] = 0x50000040
        0x00004762:    6901        .i      LDR      r1,[r0,#0x10]
        0x00004764:    0652        R.      LSLS     r2,r2,#25
        0x00004766:    4311        .C      ORRS     r1,r1,r2
        0x00004768:    6101        .a      STR      r1,[r0,#0x10]
        0x0000476a:    481e        .H      LDR      r0,[pc,#120] ; [0x47e4] = 0xb71b00
        0x0000476c:    9002        ..      STR      r0,[sp,#8]
        0x0000476e:    20e1        .       MOVS     r0,#0xe1
        0x00004770:    0240        @.      LSLS     r0,r0,#9
        0x00004772:    9003        ..      STR      r0,[sp,#0xc]
        0x00004774:    2003        .       MOVS     r0,#3
        0x00004776:    9004        ..      STR      r0,[sp,#0x10]
        0x00004778:    2010        .       MOVS     r0,#0x10
        0x0000477a:    2400        .$      MOVS     r4,#0
        0x0000477c:    9007        ..      STR      r0,[sp,#0x1c]
        0x0000477e:    2501        .%      MOVS     r5,#1
        0x00004780:    1050        P.      ASRS     r0,r2,#1
        0x00004782:    9501        ..      STR      r5,[sp,#4]
        0x00004784:    9400        ..      STR      r4,[sp,#0]
        0x00004786:    9008        ..      STR      r0,[sp,#0x20]
        0x00004788:    9405        ..      STR      r4,[sp,#0x14]
        0x0000478a:    9406        ..      STR      r4,[sp,#0x18]
        0x0000478c:    2064        d       MOVS     r0,#0x64
        0x0000478e:    a908        ..      ADD      r1,sp,#0x20
        0x00004790:    7108        .q      STRB     r0,[r1,#4]
        0x00004792:    4e15        .N      LDR      r6,[pc,#84] ; [0x47e8] = 0x40050000
        0x00004794:    4669        iF      MOV      r1,sp
        0x00004796:    4630        0F      MOV      r0,r6
        0x00004798:    f7fcf95a    ..Z.    BL       DrvUART_Init ; 0xa50
        0x0000479c:    4813        .H      LDR      r0,[pc,#76] ; [0x47ec] = 0xe000e40c
        0x0000479e:    6801        .h      LDR      r1,[r0,#0]
        0x000047a0:    2280        ."      MOVS     r2,#0x80
        0x000047a2:    0a09        ..      LSRS     r1,r1,#8
        0x000047a4:    0209        ..      LSLS     r1,r1,#8
        0x000047a6:    4311        .C      ORRS     r1,r1,r2
        0x000047a8:    6001        .`      STR      r1,[r0,#0]
        0x000047aa:    4911        .I      LDR      r1,[pc,#68] ; [0x47f0] = 0x811
        0x000047ac:    4630        0F      MOV      r0,r6
        0x000047ae:    f7fcf93d    ..=.    BL       DrvUART_EnableInt ; 0xa2c
        0x000047b2:    4910        .I      LDR      r1,[pc,#64] ; [0x47f4] = 0x200019c0
        0x000047b4:    2000        .       MOVS     r0,#0
        0x000047b6:    540c        .T      STRB     r4,[r1,r0]
        0x000047b8:    1c40        @.      ADDS     r0,r0,#1
        0x000047ba:    28ff        .(      CMP      r0,#0xff
        0x000047bc:    d9fb        ..      BLS      0x47b6 ; uartInit + 102
        0x000047be:    2000        .       MOVS     r0,#0
        0x000047c0:    490d        .I      LDR      r1,[pc,#52] ; [0x47f8] = 0x20001ac0
        0x000047c2:    2201        ."      MOVS     r2,#1
        0x000047c4:    0252        R.      LSLS     r2,r2,#9
        0x000047c6:    540c        .T      STRB     r4,[r1,r0]
        0x000047c8:    1c40        @.      ADDS     r0,r0,#1
        0x000047ca:    4290        .B      CMP      r0,r2
        0x000047cc:    d3fb        ..      BCC      0x47c6 ; uartInit + 118
        0x000047ce:    480b        .H      LDR      r0,[pc,#44] ; [0x47fc] = 0x200006b4
        0x000047d0:    6084        .`      STR      r4,[r0,#8]
        0x000047d2:    6044        D`      STR      r4,[r0,#4]
        0x000047d4:    6104        .a      STR      r4,[r0,#0x10]
        0x000047d6:    6145        Ea      STR      r5,[r0,#0x14]
        0x000047d8:    60c4        .`      STR      r4,[r0,#0xc]
        0x000047da:    b00a        ..      ADD      sp,sp,#0x28
        0x000047dc:    bd70        p.      POP      {r4-r6,pc}
    $d
        0x000047de:    0000        ..      DCW    0
        0x000047e0:    50000040    @..P    DCD    1342177344
        0x000047e4:    00b71b00    ....    DCD    12000000
        0x000047e8:    40050000    ...@    DCD    1074069504
        0x000047ec:    e000e40c    ....    DCD    3758154764
        0x000047f0:    00000811    ....    DCD    2065
        0x000047f4:    200019c0    ...     DCD    536877504
        0x000047f8:    20001ac0    ...     DCD    536877760
        0x000047fc:    200006b4    ...     DCD    536872628
    $t
    i.uartSendCmd
    uartSendCmd
        0x00004800:    b5f0        ..      PUSH     {r4-r7,lr}
        0x00004802:    2200        ."      MOVS     r2,#0
        0x00004804:    4f0b        .O      LDR      r7,[pc,#44] ; [0x4834] = 0x200006b4
        0x00004806:    4c0c        .L      LDR      r4,[pc,#48] ; [0x4838] = 0x20001ac0
        0x00004808:    e007        ..      B        0x481a ; uartSendCmd + 26
        0x0000480a:    68fb        .h      LDR      r3,[r7,#0xc]
        0x0000480c:    5c8d        .\      LDRB     r5,[r1,r2]
        0x0000480e:    05de        ..      LSLS     r6,r3,#23
        0x00004810:    0df6        ..      LSRS     r6,r6,#23
        0x00004812:    1c5b        [.      ADDS     r3,r3,#1
        0x00004814:    55a5        .U      STRB     r5,[r4,r6]
        0x00004816:    1c52        R.      ADDS     r2,r2,#1
        0x00004818:    60fb        .`      STR      r3,[r7,#0xc]
        0x0000481a:    4282        .B      CMP      r2,r0
        0x0000481c:    d3f5        ..      BCC      0x480a ; uartSendCmd + 10
        0x0000481e:    6978        xi      LDR      r0,[r7,#0x14]
        0x00004820:    2801        .(      CMP      r0,#1
        0x00004822:    d106        ..      BNE      0x4832 ; uartSendCmd + 50
        0x00004824:    2000        .       MOVS     r0,#0
        0x00004826:    4905        .I      LDR      r1,[pc,#20] ; [0x483c] = 0x40050000
        0x00004828:    6178        xa      STR      r0,[r7,#0x14]
        0x0000482a:    684a        Jh      LDR      r2,[r1,#4]
        0x0000482c:    2002        .       MOVS     r0,#2
        0x0000482e:    4302        .C      ORRS     r2,r2,r0
        0x00004830:    604a        J`      STR      r2,[r1,#4]
        0x00004832:    bdf0        ..      POP      {r4-r7,pc}
    $d
        0x00004834:    200006b4    ...     DCD    536872628
        0x00004838:    20001ac0    ...     DCD    536877760
        0x0000483c:    40050000    ...@    DCD    1074069504
    $t
    i.uartdecodeH
    uartdecodeH
        0x00004840:    b51f        ..      PUSH     {r0-r4,lr}
        0x00004842:    4604        .F      MOV      r4,r0
        0x00004844:    4608        .F      MOV      r0,r1
        0x00004846:    f7fefd9f    ....    BL       iputs ; 0x3388
        0x0000484a:    0620         .      LSLS     r0,r4,#24
        0x0000484c:    4908        .I      LDR      r1,[pc,#32] ; [0x4870] = 0x4908
        0x0000484e:    0f00        ..      LSRS     r0,r0,#28
        0x00004850:    5c08        .\      LDRB     r0,[r1,r0]
        0x00004852:    466a        jF      MOV      r2,sp
        0x00004854:    7010        .p      STRB     r0,[r2,#0]
        0x00004856:    0720         .      LSLS     r0,r4,#28
        0x00004858:    0f00        ..      LSRS     r0,r0,#28
        0x0000485a:    5c08        .\      LDRB     r0,[r1,r0]
        0x0000485c:    7050        Pp      STRB     r0,[r2,#1]
        0x0000485e:    2000        .       MOVS     r0,#0
        0x00004860:    7090        .p      STRB     r0,[r2,#2]
        0x00004862:    4668        hF      MOV      r0,sp
        0x00004864:    f7fefd90    ....    BL       iputs ; 0x3388
        0x00004868:    a002        ..      ADR      r0,{pc}+0xc ; 0x4874
        0x0000486a:    f7fefd8d    ....    BL       iputs ; 0x3388
        0x0000486e:    bd1f        ..      POP      {r0-r4,pc}
    $d
        0x00004870:    00004908    .I..    DCD    18696
        0x00004874:    00000a0d    ....    DCD    2573
    $t
    i.unMute
    unMute
        0x00004878:    b510        ..      PUSH     {r4,lr}
        0x0000487a:    4904        .I      LDR      r1,[pc,#16] ; [0x488c] = 0x200003c4
        0x0000487c:    2000        .       MOVS     r0,#0
        0x0000487e:    70c8        .p      STRB     r0,[r1,#3]
        0x00004880:    2110        .!      MOVS     r1,#0x10
        0x00004882:    2006        .       MOVS     r0,#6
        0x00004884:    f7fdfb76    ..v.    BL       ampSendCmd_38 ; 0x1f74
        0x00004888:    bd10        ..      POP      {r4,pc}
    $d
        0x0000488a:    0000        ..      DCW    0
        0x0000488c:    200003c4    ...     DCD    536871876
    $t
    i.writeDwhp83
    writeDwhp83
        0x00004890:    b5f7        ..      PUSH     {r0-r2,r4-r7,lr}
        0x00004892:    4d17        .M      LDR      r5,[pc,#92] ; [0x48f0] = 0x200000a4
        0x00004894:    4606        .F      MOV      r6,r0
        0x00004896:    2700        .'      MOVS     r7,#0
        0x00004898:    460c        .F      MOV      r4,r1
        0x0000489a:    706f        op      STRB     r7,[r5,#1]
        0x0000489c:    2080        .       MOVS     r0,#0x80
        0x0000489e:    f7fefc8d    ....    BL       i2cStart ; 0x31bc
        0x000048a2:    2800        .(      CMP      r0,#0
        0x000048a4:    d10d        ..      BNE      0x48c2 ; writeDwhp83 + 50
        0x000048a6:    4620         F      MOV      r0,r4
        0x000048a8:    f7fefcfe    ....    BL       i2cWriteByte ; 0x32a8
        0x000048ac:    f7fefbb8    ....    BL       i2cAck ; 0x3020
        0x000048b0:    2801        .(      CMP      r0,#1
        0x000048b2:    d006        ..      BEQ      0x48c2 ; writeDwhp83 + 50
        0x000048b4:    2032        2       MOVS     r0,#0x32
        0x000048b6:    f7fffe73    ..s.    BL       sysDelayUs ; 0x45a0
        0x000048ba:    2e00        ..      CMP      r6,#0
        0x000048bc:    d014        ..      BEQ      0x48e8 ; writeDwhp83 + 88
        0x000048be:    2400        .$      MOVS     r4,#0
        0x000048c0:    e00f        ..      B        0x48e2 ; writeDwhp83 + 82
        0x000048c2:    2001        .       MOVS     r0,#1
        0x000048c4:    7068        hp      STRB     r0,[r5,#1]
        0x000048c6:    e010        ..      B        0x48ea ; writeDwhp83 + 90
        0x000048c8:    480a        .H      LDR      r0,[pc,#40] ; [0x48f4] = 0x5000422c
        0x000048ca:    6007        .`      STR      r7,[r0,#0]
        0x000048cc:    5d30        0]      LDRB     r0,[r6,r4]
        0x000048ce:    f7fefceb    ....    BL       i2cWriteByte ; 0x32a8
        0x000048d2:    f7fefba5    ....    BL       i2cAck ; 0x3020
        0x000048d6:    2801        .(      CMP      r0,#1
        0x000048d8:    d0f3        ..      BEQ      0x48c2 ; writeDwhp83 + 50
        0x000048da:    20fa        .       MOVS     r0,#0xfa
        0x000048dc:    f7fffe60    ..`.    BL       sysDelayUs ; 0x45a0
        0x000048e0:    1c64        d.      ADDS     r4,r4,#1
        0x000048e2:    9802        ..      LDR      r0,[sp,#8]
        0x000048e4:    4284        .B      CMP      r4,r0
        0x000048e6:    d3ef        ..      BCC      0x48c8 ; writeDwhp83 + 56
        0x000048e8:    706f        op      STRB     r7,[r5,#1]
        0x000048ea:    f7fefc8f    ....    BL       i2cStop ; 0x320c
        0x000048ee:    bdfe        ..      POP      {r1-r7,pc}
    $d
        0x000048f0:    200000a4    ...     DCD    536871076
        0x000048f4:    5000422c    ,B.P    DCD    1342194220
    $d.realdata
    .constdata
    HEXSTR
        0x000048f8:    33323130    0123    DCD    858927408
        0x000048fc:    37363534    4567    DCD    926299444
        0x00004900:    42413938    89AB    DCD    1111570744
        0x00004904:    46454443    CDEF    DCD    1178944579
    HEXSTR
        0x00004908:    33323130    0123    DCD    858927408
        0x0000490c:    37363534    4567    DCD    926299444
        0x00004910:    42413938    89AB    DCD    1111570744
        0x00004914:    46454443    CDEF    DCD    1178944579
    HEXSTR
        0x00004918:    33323130    0123    DCD    858927408
        0x0000491c:    37363534    4567    DCD    926299444
        0x00004920:    42413938    89AB    DCD    1111570744
        0x00004924:    46454443    CDEF    DCD    1178944579
        0x00004928:    4e534c47    GLSN    DCD    1314081863
        0x0000492c:    00002024    $ ..    DCD    8228
    Region$$Table$$Base
        0x00004930:    00004950    PI..    DCD    18768
        0x00004934:    20000000    ...     DCD    536870912
        0x00004938:    000006f0    ....    DCD    1776
        0x0000493c:    00001742    B...    DCD    5954
        0x00004940:    00005040    @P..    DCD    20544
        0x00004944:    200006f0    ...     DCD    536872688
        0x00004948:    000019e0    ....    DCD    6624
        0x0000494c:    00001752    R...    DCD    5970
    Region$$Table$$Limit

** Section #2 'ER_RW' (SHT_PROGBITS) [SHF_ALLOC + SHF_WRITE]
    Size   : 1776 bytes (alignment 4)
    Address: 0x20000000


** Section #3 'ER_ZI' (SHT_NOBITS) [SHF_ALLOC + SHF_WRITE]
    Size   : 6624 bytes (alignment 8)
    Address: 0x200006f0


** Section #4 '.debug_abbrev' (SHT_PROGBITS)
    Size   : 1476 bytes


** Section #5 '.debug_frame' (SHT_PROGBITS)
    Size   : 5416 bytes


** Section #6 '.debug_info' (SHT_PROGBITS)
    Size   : 214356 bytes


** Section #7 '.debug_line' (SHT_PROGBITS)
    Size   : 48460 bytes


** Section #8 '.debug_loc' (SHT_PROGBITS)
    Size   : 7052 bytes


** Section #9 '.debug_macinfo' (SHT_PROGBITS)
    Size   : 559348 bytes


** Section #10 '.debug_pubnames' (SHT_PROGBITS)
    Size   : 13820 bytes


** Section #11 '.symtab' (SHT_SYMTAB)
    Size   : 18576 bytes (alignment 4)
    String table #12 '.strtab'
    Last local symbol no. 814


** Section #12 '.strtab' (SHT_STRTAB)
    Size   : 10336 bytes


** Section #13 '.note' (SHT_NOTE)
    Size   : 28 bytes (alignment 4)


** Section #14 '.comment' (SHT_PROGBITS)
    Size   : 13524 bytes


** Section #15 '.shstrtab' (SHT_STRTAB)
    Size   : 156 bytes


