
========================================================================

** ELF Header Information

    File Name: .\output\GS313.axf

    Machine class: ELFCLASS32 (32-bit)
    Data encoding: ELFDATA2LSB (Little endian)
    Header version: EV_CURRENT (Current version)
    Operating System ABI: none
    ABI Version: 0
    File Type: ET_EXEC (Executable) (2)
    Machine: EM_ARM (ARM)

    Image Entry point: 0x000001b1
    Flags: EF_ARM_HASENTRY (0x05000002)

    ARM ELF revision: 5 (ABI version 2)

    Built with
    ARM C/C++ Compiler, 5.03 [Build 76]
    ARM Assembler, 5.03 [Build 76]
    ARM Linker, 5.03 [Build 76] 

    Header size: 52 bytes (0x34)
    Program header entry size: 32 bytes (0x20)
    Section header entry size: 40 bytes (0x28)

    Program header entries: 1
    Section header entries: 16

    Program header offset: 957404 (0x000e9bdc)
    Section header offset: 957436 (0x000e9bfc)

    Section header string table index: 15

========================================================================

** Program header #0 (PT_LOAD) [PF_X + PF_W + PF_R + PF_ARM_ENTRY]
    Size : 32428 bytes (29960 bytes in file)
    Virtual address: 0x00000000 (Alignment 8)


========================================================================

** Section #1 'ER_RO' (SHT_PROGBITS) [SHF_ALLOC + SHF_EXECINSTR]
    Size   : 28420 bytes (alignment 4)
    Address: 0x00000000

    $d.realdata
    RESET
    __Vectors
        0x00000000:    20000fa8    ...     DCD    536874920
        0x00000004:    000001b1    ....    DCD    433
        0x00000008:    000001d5    ....    DCD    469
        0x0000000c:    000001d7    ....    DCD    471
        0x00000010:    00000000    ....    DCD    0
        0x00000014:    00000000    ....    DCD    0
        0x00000018:    00000000    ....    DCD    0
        0x0000001c:    00000000    ....    DCD    0
        0x00000020:    00000000    ....    DCD    0
        0x00000024:    00000000    ....    DCD    0
        0x00000028:    00000000    ....    DCD    0
        0x0000002c:    000001e9    ....    DCD    489
        0x00000030:    00000000    ....    DCD    0
        0x00000034:    00000000    ....    DCD    0
        0x00000038:    000001eb    ....    DCD    491
        0x0000003c:    00002281    ."..    DCD    8833
        0x00000040:    000001ef    ....    DCD    495
        0x00000044:    00003909    .9..    DCD    14601
        0x00000048:    000001ef    ....    DCD    495
        0x0000004c:    000001ef    ....    DCD    495
        0x00000050:    000039d7    .9..    DCD    14807
        0x00000054:    000001ef    ....    DCD    495
        0x00000058:    000001ef    ....    DCD    495
        0x0000005c:    000001ef    ....    DCD    495
        0x00000060:    00003a61    a:..    DCD    14945
        0x00000064:    000001ef    ....    DCD    495
        0x00000068:    000001ef    ....    DCD    495
        0x0000006c:    000001ef    ....    DCD    495
        0x00000070:    00001c35    5...    DCD    7221
        0x00000074:    000001ef    ....    DCD    495
        0x00000078:    000001ef    ....    DCD    495
        0x0000007c:    000001ef    ....    DCD    495
        0x00000080:    000042bb    .B..    DCD    17083
        0x00000084:    000001ef    ....    DCD    495
        0x00000088:    0000317b    {1..    DCD    12667
        0x0000008c:    000001ef    ....    DCD    495
        0x00000090:    000001ef    ....    DCD    495
        0x00000094:    000001ef    ....    DCD    495
        0x00000098:    000001ef    ....    DCD    495
        0x0000009c:    000001ef    ....    DCD    495
        0x000000a0:    000001ef    ....    DCD    495
        0x000000a4:    000001ef    ....    DCD    495
        0x000000a8:    000001ef    ....    DCD    495
        0x000000ac:    000056cf    .V..    DCD    22223
        0x000000b0:    000039bd    .9..    DCD    14781
        0x000000b4:    00002e19    ....    DCD    11801
        0x000000b8:    000001ef    ....    DCD    495
        0x000000bc:    000001ef    ....    DCD    495
    $t
    .ARM.Collect$$$$00000000
    .ARM.Collect$$$$00000001
    __main
    _main_stk
        0x000000c0:    4803        .H      LDR      r0,__lit__00000000 ; [0xd0] = 0x20000fa8
        0x000000c2:    4685        .F      MOV      sp,r0
    .ARM.Collect$$$$00000004
    _main_scatterload
        0x000000c4:    f006feb2    ....    BL       __scatterload ; 0x6e2c
    .ARM.Collect$$$$00000008
    .ARM.Collect$$$$0000000A
    .ARM.Collect$$$$0000000B
    __main_after_scatterload
    _main_clock
    _main_cpp_init
    _main_init
        0x000000c8:    4800        .H      LDR      r0,[pc,#0] ; [0xcc] = 0x178d
        0x000000ca:    4700        .G      BX       r0
    $d
        0x000000cc:    0000178d    ....    DCD    6029
    .ARM.Collect$$$$00002712
    __lit__00000000
    .ARM.Collect$$$$0000000D
    .ARM.Collect$$$$0000000F
    __rt_final_cpp
    __rt_final_exit
        0x000000d0:    20000fa8    ...     DCD    536874920
    $t
    .text
    SystemCoreClockUpdate
        0x000000d4:    b570        p.      PUSH     {r4-r6,lr}
        0x000000d6:    f000f824    ..$.    BL       CLK_GetPLLClockFreq ; 0x122
        0x000000da:    492c        ,I      LDR      r1,[pc,#176] ; [0x18c] = 0x20000008
        0x000000dc:    6008        .`      STR      r0,[r1,#0]
        0x000000de:    482c        ,H      LDR      r0,[pc,#176] ; [0x190] = 0x50000200
        0x000000e0:    6900        .i      LDR      r0,[r0,#0x10]
        0x000000e2:    0745        E.      LSLS     r5,r0,#29
        0x000000e4:    0f6d        m.      LSRS     r5,r5,#29
        0x000000e6:    2d02        .-      CMP      r5,#2
        0x000000e8:    d003        ..      BEQ      0xf2 ; SystemCoreClockUpdate + 30
        0x000000ea:    00a8        ..      LSLS     r0,r5,#2
        0x000000ec:    4929        )I      LDR      r1,[pc,#164] ; [0x194] = 0x2000000c
        0x000000ee:    580c        .X      LDR      r4,[r1,r0]
        0x000000f0:    e001        ..      B        0xf6 ; SystemCoreClockUpdate + 34
        0x000000f2:    4826        &H      LDR      r0,[pc,#152] ; [0x18c] = 0x20000008
        0x000000f4:    6804        .h      LDR      r4,[r0,#0]
        0x000000f6:    4826        &H      LDR      r0,[pc,#152] ; [0x190] = 0x50000200
        0x000000f8:    6980        .i      LDR      r0,[r0,#0x18]
        0x000000fa:    0700        ..      LSLS     r0,r0,#28
        0x000000fc:    0f00        ..      LSRS     r0,r0,#28
        0x000000fe:    1c46        F.      ADDS     r6,r0,#1
        0x00000100:    4631        1F      MOV      r1,r6
        0x00000102:    4620         F      MOV      r0,r4
        0x00000104:    f006fe6a    ..j.    BL       __aeabi_uidiv ; 0x6ddc
        0x00000108:    4923        #I      LDR      r1,[pc,#140] ; [0x198] = 0x20000000
        0x0000010a:    6008        .`      STR      r0,[r1,#0]
        0x0000010c:    4923        #I      LDR      r1,[pc,#140] ; [0x19c] = 0xf4240
        0x0000010e:    4822        "H      LDR      r0,[pc,#136] ; [0x198] = 0x20000000
        0x00000110:    6800        .h      LDR      r0,[r0,#0]
        0x00000112:    104a        J.      ASRS     r2,r1,#1
        0x00000114:    1880        ..      ADDS     r0,r0,r2
        0x00000116:    f006fe61    ..a.    BL       __aeabi_uidiv ; 0x6ddc
        0x0000011a:    4921        !I      LDR      r1,[pc,#132] ; [0x1a0] = 0x20000004
        0x0000011c:    6008        .`      STR      r0,[r1,#0]
        0x0000011e:    bd70        p.      POP      {r4-r6,pc}
    SystemInit
        0x00000120:    4770        pG      BX       lr
    CLK_GetPLLClockFreq
        0x00000122:    b5fe        ..      PUSH     {r1-r7,lr}
        0x00000124:    a01f        ..      ADR      r0,{pc}+0x80 ; 0x1a4
        0x00000126:    6800        .h      LDR      r0,[r0,#0]
        0x00000128:    9000        ..      STR      r0,[sp,#0]
        0x0000012a:    2000        .       MOVS     r0,#0
        0x0000012c:    9002        ..      STR      r0,[sp,#8]
        0x0000012e:    4818        .H      LDR      r0,[pc,#96] ; [0x190] = 0x50000200
        0x00000130:    6a04        .j      LDR      r4,[r0,#0x20]
        0x00000132:    1300        ..      ASRS     r0,r0,#12
        0x00000134:    4204        .B      TST      r4,r0
        0x00000136:    d127        '.      BNE      0x188 ; CLK_GetPLLClockFreq + 102
        0x00000138:    2001        .       MOVS     r0,#1
        0x0000013a:    04c0        ..      LSLS     r0,r0,#19
        0x0000013c:    4204        .B      TST      r4,r0
        0x0000013e:    d001        ..      BEQ      0x144 ; CLK_GetPLLClockFreq + 34
        0x00000140:    4819        .H      LDR      r0,[pc,#100] ; [0x1a8] = 0x1518000
        0x00000142:    e000        ..      B        0x146 ; CLK_GetPLLClockFreq + 36
        0x00000144:    4819        .H      LDR      r0,[pc,#100] ; [0x1ac] = 0xb71b00
        0x00000146:    4605        .F      MOV      r5,r0
        0x00000148:    2001        .       MOVS     r0,#1
        0x0000014a:    0440        @.      LSLS     r0,r0,#17
        0x0000014c:    4204        .B      TST      r4,r0
        0x0000014e:    d001        ..      BEQ      0x154 ; CLK_GetPLLClockFreq + 50
        0x00000150:    9502        ..      STR      r5,[sp,#8]
        0x00000152:    e019        ..      B        0x188 ; CLK_GetPLLClockFreq + 102
        0x00000154:    2003        .       MOVS     r0,#3
        0x00000156:    0380        ..      LSLS     r0,r0,#14
        0x00000158:    4020         @      ANDS     r0,r0,r4
        0x0000015a:    0b80        ..      LSRS     r0,r0,#14
        0x0000015c:    4669        iF      MOV      r1,sp
        0x0000015e:    5c0f        .\      LDRB     r7,[r1,r0]
        0x00000160:    05e0        ..      LSLS     r0,r4,#23
        0x00000162:    0dc0        ..      LSRS     r0,r0,#23
        0x00000164:    1c80        ..      ADDS     r0,r0,#2
        0x00000166:    9001        ..      STR      r0,[sp,#4]
        0x00000168:    201f        .       MOVS     r0,#0x1f
        0x0000016a:    0240        @.      LSLS     r0,r0,#9
        0x0000016c:    4020         @      ANDS     r0,r0,r4
        0x0000016e:    0a40        @.      LSRS     r0,r0,#9
        0x00000170:    1c86        ..      ADDS     r6,r0,#2
        0x00000172:    4632        2F      MOV      r2,r6
        0x00000174:    437a        zC      MULS     r2,r7,r2
        0x00000176:    4611        .F      MOV      r1,r2
        0x00000178:    08ab        ..      LSRS     r3,r5,#2
        0x0000017a:    9a01        ..      LDR      r2,[sp,#4]
        0x0000017c:    4353        SC      MULS     r3,r2,r3
        0x0000017e:    4618        .F      MOV      r0,r3
        0x00000180:    f006fe2c    ..,.    BL       __aeabi_uidiv ; 0x6ddc
        0x00000184:    0080        ..      LSLS     r0,r0,#2
        0x00000186:    9002        ..      STR      r0,[sp,#8]
        0x00000188:    9802        ..      LDR      r0,[sp,#8]
        0x0000018a:    bdfe        ..      POP      {r1-r7,pc}
    $d
        0x0000018c:    20000008    ...     DCD    536870920
        0x00000190:    50000200    ...P    DCD    1342177792
        0x00000194:    2000000c    ...     DCD    536870924
        0x00000198:    20000000    ...     DCD    536870912
        0x0000019c:    000f4240    @B..    DCD    1000000
        0x000001a0:    20000004    ...     DCD    536870916
        0x000001a4:    04020201    ....    DCD    67240449
        0x000001a8:    01518000    ..Q.    DCD    22118400
        0x000001ac:    00b71b00    ....    DCD    12000000
    $t
    .text
    Reset_Handler
        0x000001b0:    4814        .H      LDR      r0,[pc,#80] ; [0x204] = 0x50000100
        0x000001b2:    4915        .I      LDR      r1,[pc,#84] ; [0x208] = 0x59
        0x000001b4:    6001        .`      STR      r1,[r0,#0]
        0x000001b6:    4915        .I      LDR      r1,[pc,#84] ; [0x20c] = 0x16
        0x000001b8:    6001        .`      STR      r1,[r0,#0]
        0x000001ba:    4915        .I      LDR      r1,[pc,#84] ; [0x210] = 0x88
        0x000001bc:    6001        .`      STR      r1,[r0,#0]
        0x000001be:    4a15        .J      LDR      r2,[pc,#84] ; [0x214] = 0x50000024
        0x000001c0:    4915        .I      LDR      r1,[pc,#84] ; [0x218] = 0x5aa5
        0x000001c2:    6011        .`      STR      r1,[r2,#0]
        0x000001c4:    2100        .!      MOVS     r1,#0
        0x000001c6:    6001        .`      STR      r1,[r0,#0]
        0x000001c8:    4814        .H      LDR      r0,[pc,#80] ; [0x21c] = 0x121
        0x000001ca:    4780        .G      BLX      r0
        0x000001cc:    4814        .H      LDR      r0,[pc,#80] ; [0x220] = 0x38a3
        0x000001ce:    4780        .G      BLX      r0
        0x000001d0:    4814        .H      LDR      r0,[pc,#80] ; [0x224] = 0xc1
        0x000001d2:    4700        .G      BX       r0
    NMI_Handler
        0x000001d4:    e7fe        ..      B        NMI_Handler ; 0x1d4
    HardFault_Handler
        0x000001d6:    9806        ..      LDR      r0,[sp,#0x18]
        0x000001d8:    8801        ..      LDRH     r1,[r0,#0]
        0x000001da:    4a13        .J      LDR      r2,[pc,#76] ; [0x228] = 0xbeab
        0x000001dc:    4291        .B      CMP      r1,r2
        0x000001de:    d102        ..      BNE      0x1e6 ; HardFault_Handler + 16
        0x000001e0:    3004        .0      ADDS     r0,#4
        0x000001e2:    9006        ..      STR      r0,[sp,#0x18]
        0x000001e4:    4770        pG      BX       lr
        0x000001e6:    e7fe        ..      B        0x1e6 ; HardFault_Handler + 16
    SVC_Handler
        0x000001e8:    e7fe        ..      B        SVC_Handler ; 0x1e8
    PendSV_Handler
        0x000001ea:    e7fe        ..      B        PendSV_Handler ; 0x1ea
        0x000001ec:    e7fe        ..      B        0x1ec ; PendSV_Handler + 2
    Default_Handler
    BOD_IRQHandler
    EINT0_IRQHandler
    EINT1_IRQHandler
    GPCDF_IRQHandler
    I2C1_IRQHandler
    PDMA_IRQHandler
    PS2_IRQHandler
    PWMA_IRQHandler
    SPI0_IRQHandler
    SPI1_IRQHandler
    TMR1_IRQHandler
    TMR2_IRQHandler
    TMR3_IRQHandler
    UART1_IRQHandler
    USBD_IRQHandler
        0x000001ee:    e7fe        ..      B        Default_Handler ; 0x1ee
    SH_DoCommand
        0x000001f0:    beab        ..      BKPT     #0xab
        0x000001f2:    e001        ..      B        0x1f8 ; SH_DoCommand + 8
        0x000001f4:    2000        .       MOVS     r0,#0
        0x000001f6:    4770        pG      BX       lr
        0x000001f8:    2a00        .*      CMP      r2,#0
        0x000001fa:    d000        ..      BEQ      0x1fe ; SH_DoCommand + 14
        0x000001fc:    6010        .`      STR      r0,[r2,#0]
        0x000001fe:    2001        .       MOVS     r0,#1
        0x00000200:    4770        pG      BX       lr
    $d
        0x00000202:    0000        ..      DCW    0
        0x00000204:    50000100    ...P    DCD    1342177536
        0x00000208:    00000059    Y...    DCD    89
        0x0000020c:    00000016    ....    DCD    22
        0x00000210:    00000088    ....    DCD    136
        0x00000214:    50000024    $..P    DCD    1342177316
        0x00000218:    00005aa5    .Z..    DCD    23205
        0x0000021c:    00000121    !...    DCD    289
        0x00000220:    000038a3    .8..    DCD    14499
        0x00000224:    000000c1    ....    DCD    193
        0x00000228:    0000beab    ....    DCD    48811
    $t
    .text
    ADC_SET_CMP
        0x0000022c:    b5f0        ..      PUSH     {r4-r7,lr}
        0x0000022e:    9c05        ..      LDR      r4,[sp,#0x14]
        0x00000230:    4da9        .M      LDR      r5,[pc,#676] ; [0x4d8] = 0x400e0028
        0x00000232:    0086        ..      LSLS     r6,r0,#2
        0x00000234:    59ad        .Y      LDR      r5,[r5,r6]
        0x00000236:    4ea9        .N      LDR      r6,[pc,#676] ; [0x4dc] = 0xf0000003
        0x00000238:    4035        5@      ANDS     r5,r5,r6
        0x0000023a:    040e        ..      LSLS     r6,r1,#16
        0x0000023c:    4335        5C      ORRS     r5,r5,r6
        0x0000023e:    0216        ..      LSLS     r6,r2,#8
        0x00000240:    4335        5C      ORRS     r5,r5,r6
        0x00000242:    431d        .C      ORRS     r5,r5,r3
        0x00000244:    4325        %C      ORRS     r5,r5,r4
        0x00000246:    4ea4        .N      LDR      r6,[pc,#656] ; [0x4d8] = 0x400e0028
        0x00000248:    0087        ..      LSLS     r7,r0,#2
        0x0000024a:    51f5        .Q      STR      r5,[r6,r7]
        0x0000024c:    bdf0        ..      POP      {r4-r7,pc}
    ADC_SET_CMP_DATA
        0x0000024e:    b510        ..      PUSH     {r4,lr}
        0x00000250:    4aa1        .J      LDR      r2,[pc,#644] ; [0x4d8] = 0x400e0028
        0x00000252:    0083        ..      LSLS     r3,r0,#2
        0x00000254:    58d2        .X      LDR      r2,[r2,r3]
        0x00000256:    4ba2        .K      LDR      r3,[pc,#648] ; [0x4e0] = 0xf000ffff
        0x00000258:    401a        .@      ANDS     r2,r2,r3
        0x0000025a:    040b        ..      LSLS     r3,r1,#16
        0x0000025c:    431a        .C      ORRS     r2,r2,r3
        0x0000025e:    4b9e        .K      LDR      r3,[pc,#632] ; [0x4d8] = 0x400e0028
        0x00000260:    0084        ..      LSLS     r4,r0,#2
        0x00000262:    511a        .Q      STR      r2,[r3,r4]
        0x00000264:    bd10        ..      POP      {r4,pc}
    DrvADC_Init
        0x00000266:    b570        p.      PUSH     {r4-r6,lr}
        0x00000268:    2401        .$      MOVS     r4,#1
        0x0000026a:    0724        $.      LSLS     r4,r4,#28
        0x0000026c:    2505        .%      MOVS     r5,#5
        0x0000026e:    072d        -.      LSLS     r5,r5,#28
        0x00000270:    68ed        .h      LDR      r5,[r5,#0xc]
        0x00000272:    4325        %C      ORRS     r5,r5,r4
        0x00000274:    2605        .&      MOVS     r6,#5
        0x00000276:    0736        6.      LSLS     r6,r6,#28
        0x00000278:    60f5        .`      STR      r5,[r6,#0xc]
        0x0000027a:    4635        5F      MOV      r5,r6
        0x0000027c:    68ed        .h      LDR      r5,[r5,#0xc]
        0x0000027e:    43a5        .C      BICS     r5,r5,r4
        0x00000280:    60f5        .`      STR      r5,[r6,#0xc]
        0x00000282:    bf00        ..      NOP      
        0x00000284:    bf00        ..      NOP      
        0x00000286:    4c97        .L      LDR      r4,[pc,#604] ; [0x4e4] = 0x50000200
        0x00000288:    6964        di      LDR      r4,[r4,#0x14]
        0x0000028a:    250c        .%      MOVS     r5,#0xc
        0x0000028c:    43ac        .C      BICS     r4,r4,r5
        0x0000028e:    4314        .C      ORRS     r4,r4,r2
        0x00000290:    4d94        .M      LDR      r5,[pc,#592] ; [0x4e4] = 0x50000200
        0x00000292:    616c        la      STR      r4,[r5,#0x14]
        0x00000294:    bf00        ..      NOP      
        0x00000296:    bf00        ..      NOP      
        0x00000298:    462c        ,F      MOV      r4,r5
        0x0000029a:    69a4        .i      LDR      r4,[r4,#0x18]
        0x0000029c:    25ff        .%      MOVS     r5,#0xff
        0x0000029e:    042d        -.      LSLS     r5,r5,#16
        0x000002a0:    43ac        .C      BICS     r4,r4,r5
        0x000002a2:    1e5d        ].      SUBS     r5,r3,#1
        0x000002a4:    042d        -.      LSLS     r5,r5,#16
        0x000002a6:    432c        ,C      ORRS     r4,r4,r5
        0x000002a8:    4d8e        .M      LDR      r5,[pc,#568] ; [0x4e4] = 0x50000200
        0x000002aa:    61ac        .a      STR      r4,[r5,#0x18]
        0x000002ac:    bf00        ..      NOP      
        0x000002ae:    04ec        ..      LSLS     r4,r5,#19
        0x000002b0:    68ad        .h      LDR      r5,[r5,#8]
        0x000002b2:    4325        %C      ORRS     r5,r5,r4
        0x000002b4:    4e8b        .N      LDR      r6,[pc,#556] ; [0x4e4] = 0x50000200
        0x000002b6:    60b5        .`      STR      r5,[r6,#8]
        0x000002b8:    bf00        ..      NOP      
        0x000002ba:    bf00        ..      NOP      
        0x000002bc:    4c86        .L      LDR      r4,[pc,#536] ; [0x4d8] = 0x400e0028
        0x000002be:    3c28        (<      SUBS     r4,r4,#0x28
        0x000002c0:    6a24        $j      LDR      r4,[r4,#0x20]
        0x000002c2:    2501        .%      MOVS     r5,#1
        0x000002c4:    432c        ,C      ORRS     r4,r4,r5
        0x000002c6:    4d84        .M      LDR      r5,[pc,#528] ; [0x4d8] = 0x400e0028
        0x000002c8:    3d28        (=      SUBS     r5,r5,#0x28
        0x000002ca:    622c        ,b      STR      r4,[r5,#0x20]
        0x000002cc:    bf00        ..      NOP      
        0x000002ce:    bf00        ..      NOP      
        0x000002d0:    462c        ,F      MOV      r4,r5
        0x000002d2:    6a24        $j      LDR      r4,[r4,#0x20]
        0x000002d4:    250c        .%      MOVS     r5,#0xc
        0x000002d6:    43ac        .C      BICS     r4,r4,r5
        0x000002d8:    4304        .C      ORRS     r4,r4,r0
        0x000002da:    4d7f        .M      LDR      r5,[pc,#508] ; [0x4d8] = 0x400e0028
        0x000002dc:    3d28        (=      SUBS     r5,r5,#0x28
        0x000002de:    622c        ,b      STR      r4,[r5,#0x20]
        0x000002e0:    bf00        ..      NOP      
        0x000002e2:    bf00        ..      NOP      
        0x000002e4:    462c        ,F      MOV      r4,r5
        0x000002e6:    6a64        dj      LDR      r4,[r4,#0x24]
        0x000002e8:    430c        .C      ORRS     r4,r4,r1
        0x000002ea:    626c        lb      STR      r4,[r5,#0x24]
        0x000002ec:    bf00        ..      NOP      
        0x000002ee:    bd70        p.      POP      {r4-r6,pc}
    DrvADC_DeInit
        0x000002f0:    b510        ..      PUSH     {r4,lr}
        0x000002f2:    2000        .       MOVS     r0,#0
        0x000002f4:    4978        xI      LDR      r1,[pc,#480] ; [0x4d8] = 0x400e0028
        0x000002f6:    3928        (9      SUBS     r1,r1,#0x28
        0x000002f8:    6248        Hb      STR      r0,[r1,#0x24]
        0x000002fa:    6208        .b      STR      r0,[r1,#0x20]
        0x000002fc:    6288        .b      STR      r0,[r1,#0x28]
        0x000002fe:    2100        .!      MOVS     r1,#0
        0x00000300:    4875        uH      LDR      r0,[pc,#468] ; [0x4d8] = 0x400e0028
        0x00000302:    3828        (8      SUBS     r0,r0,#0x28
        0x00000304:    62c1        .b      STR      r1,[r0,#0x2c]
        0x00000306:    2001        .       MOVS     r0,#1
        0x00000308:    0700        ..      LSLS     r0,r0,#28
        0x0000030a:    4976        vI      LDR      r1,[pc,#472] ; [0x4e4] = 0x50000200
        0x0000030c:    6889        .h      LDR      r1,[r1,#8]
        0x0000030e:    4381        .C      BICS     r1,r1,r0
        0x00000310:    4a74        tJ      LDR      r2,[pc,#464] ; [0x4e4] = 0x50000200
        0x00000312:    6091        .`      STR      r1,[r2,#8]
        0x00000314:    bf00        ..      NOP      
        0x00000316:    2100        .!      MOVS     r1,#0
        0x00000318:    4608        .F      MOV      r0,r1
        0x0000031a:    f7ffff98    ....    BL       ADC_SET_CMP_DATA ; 0x24e
        0x0000031e:    2100        .!      MOVS     r1,#0
        0x00000320:    2001        .       MOVS     r0,#1
        0x00000322:    f7ffff94    ....    BL       ADC_SET_CMP_DATA ; 0x24e
        0x00000326:    201d        .       MOVS     r0,#0x1d
        0x00000328:    f000f8ae    ....    BL       NVIC_DisableIRQ ; 0x488
        0x0000032c:    bd10        ..      POP      {r4,pc}
    DrvADC_EnableInt
        0x0000032e:    b510        ..      PUSH     {r4,lr}
        0x00000330:    2007        .       MOVS     r0,#7
        0x00000332:    f000f8cc    ....    BL       ADC_CLR_IF ; 0x4ce
        0x00000336:    bf00        ..      NOP      
        0x00000338:    4867        gH      LDR      r0,[pc,#412] ; [0x4d8] = 0x400e0028
        0x0000033a:    3828        (8      SUBS     r0,r0,#0x28
        0x0000033c:    6a00        .j      LDR      r0,[r0,#0x20]
        0x0000033e:    2102        .!      MOVS     r1,#2
        0x00000340:    4308        .C      ORRS     r0,r0,r1
        0x00000342:    4965        eI      LDR      r1,[pc,#404] ; [0x4d8] = 0x400e0028
        0x00000344:    3928        (9      SUBS     r1,r1,#0x28
        0x00000346:    6208        .b      STR      r0,[r1,#0x20]
        0x00000348:    bf00        ..      NOP      
        0x0000034a:    201d        .       MOVS     r0,#0x1d
        0x0000034c:    f000f895    ....    BL       NVIC_EnableIRQ ; 0x47a
        0x00000350:    bd10        ..      POP      {r4,pc}
    DrvADC_DisableInt
        0x00000352:    b510        ..      PUSH     {r4,lr}
        0x00000354:    bf00        ..      NOP      
        0x00000356:    4860        `H      LDR      r0,[pc,#384] ; [0x4d8] = 0x400e0028
        0x00000358:    3828        (8      SUBS     r0,r0,#0x28
        0x0000035a:    6a00        .j      LDR      r0,[r0,#0x20]
        0x0000035c:    2102        .!      MOVS     r1,#2
        0x0000035e:    4388        .C      BICS     r0,r0,r1
        0x00000360:    495d        ]I      LDR      r1,[pc,#372] ; [0x4d8] = 0x400e0028
        0x00000362:    3928        (9      SUBS     r1,r1,#0x28
        0x00000364:    6208        .b      STR      r0,[r1,#0x20]
        0x00000366:    bf00        ..      NOP      
        0x00000368:    4608        .F      MOV      r0,r1
        0x0000036a:    6a80        .j      LDR      r0,[r0,#0x28]
        0x0000036c:    2102        .!      MOVS     r1,#2
        0x0000036e:    4208        .B      TST      r0,r1
        0x00000370:    d107        ..      BNE      0x382 ; DrvADC_DisableInt + 48
        0x00000372:    4859        YH      LDR      r0,[pc,#356] ; [0x4d8] = 0x400e0028
        0x00000374:    3828        (8      SUBS     r0,r0,#0x28
        0x00000376:    6ac0        .j      LDR      r0,[r0,#0x2c]
        0x00000378:    4208        .B      TST      r0,r1
        0x0000037a:    d102        ..      BNE      0x382 ; DrvADC_DisableInt + 48
        0x0000037c:    201d        .       MOVS     r0,#0x1d
        0x0000037e:    f000f883    ....    BL       NVIC_DisableIRQ ; 0x488
        0x00000382:    bd10        ..      POP      {r4,pc}
    DrvADC_EnableComp0Int
        0x00000384:    b510        ..      PUSH     {r4,lr}
        0x00000386:    2002        .       MOVS     r0,#2
        0x00000388:    f000f8a1    ....    BL       ADC_CLR_IF ; 0x4ce
        0x0000038c:    2000        .       MOVS     r0,#0
        0x0000038e:    f000f883    ....    BL       ADC_CMP_INT_ENABLE ; 0x498
        0x00000392:    201d        .       MOVS     r0,#0x1d
        0x00000394:    f000f871    ..q.    BL       NVIC_EnableIRQ ; 0x47a
        0x00000398:    bd10        ..      POP      {r4,pc}
    DrvADC_DisableComp0Int
        0x0000039a:    b510        ..      PUSH     {r4,lr}
        0x0000039c:    2000        .       MOVS     r0,#0
        0x0000039e:    f000f884    ....    BL       ADC_CMP_INT_DISABLE ; 0x4aa
        0x000003a2:    484d        MH      LDR      r0,[pc,#308] ; [0x4d8] = 0x400e0028
        0x000003a4:    3828        (8      SUBS     r0,r0,#0x28
        0x000003a6:    6a00        .j      LDR      r0,[r0,#0x20]
        0x000003a8:    2102        .!      MOVS     r1,#2
        0x000003aa:    4208        .B      TST      r0,r1
        0x000003ac:    d107        ..      BNE      0x3be ; DrvADC_DisableComp0Int + 36
        0x000003ae:    484a        JH      LDR      r0,[pc,#296] ; [0x4d8] = 0x400e0028
        0x000003b0:    3828        (8      SUBS     r0,r0,#0x28
        0x000003b2:    6ac0        .j      LDR      r0,[r0,#0x2c]
        0x000003b4:    4208        .B      TST      r0,r1
        0x000003b6:    d102        ..      BNE      0x3be ; DrvADC_DisableComp0Int + 36
        0x000003b8:    201d        .       MOVS     r0,#0x1d
        0x000003ba:    f000f865    ..e.    BL       NVIC_DisableIRQ ; 0x488
        0x000003be:    bd10        ..      POP      {r4,pc}
    DrvADC_EnableComp1Int
        0x000003c0:    b510        ..      PUSH     {r4,lr}
        0x000003c2:    2004        .       MOVS     r0,#4
        0x000003c4:    f000f883    ....    BL       ADC_CLR_IF ; 0x4ce
        0x000003c8:    2001        .       MOVS     r0,#1
        0x000003ca:    f000f865    ..e.    BL       ADC_CMP_INT_ENABLE ; 0x498
        0x000003ce:    201d        .       MOVS     r0,#0x1d
        0x000003d0:    f000f853    ..S.    BL       NVIC_EnableIRQ ; 0x47a
        0x000003d4:    bd10        ..      POP      {r4,pc}
    DrvADC_DisableComp1Int
        0x000003d6:    b510        ..      PUSH     {r4,lr}
        0x000003d8:    2001        .       MOVS     r0,#1
        0x000003da:    f000f866    ..f.    BL       ADC_CMP_INT_DISABLE ; 0x4aa
        0x000003de:    483e        >H      LDR      r0,[pc,#248] ; [0x4d8] = 0x400e0028
        0x000003e0:    3828        (8      SUBS     r0,r0,#0x28
        0x000003e2:    6a00        .j      LDR      r0,[r0,#0x20]
        0x000003e4:    2102        .!      MOVS     r1,#2
        0x000003e6:    4208        .B      TST      r0,r1
        0x000003e8:    d107        ..      BNE      0x3fa ; DrvADC_DisableComp1Int + 36
        0x000003ea:    483b        ;H      LDR      r0,[pc,#236] ; [0x4d8] = 0x400e0028
        0x000003ec:    3828        (8      SUBS     r0,r0,#0x28
        0x000003ee:    6a80        .j      LDR      r0,[r0,#0x28]
        0x000003f0:    4208        .B      TST      r0,r1
        0x000003f2:    d102        ..      BNE      0x3fa ; DrvADC_DisableComp1Int + 36
        0x000003f4:    201d        .       MOVS     r0,#0x1d
        0x000003f6:    f000f847    ..G.    BL       NVIC_DisableIRQ ; 0x488
        0x000003fa:    bd10        ..      POP      {r4,pc}
    DrvADC_EnableExtTrigger
        0x000003fc:    bf00        ..      NOP      
        0x000003fe:    4a36        6J      LDR      r2,[pc,#216] ; [0x4d8] = 0x400e0028
        0x00000400:    3a28        (:      SUBS     r2,r2,#0x28
        0x00000402:    6a12        .j      LDR      r2,[r2,#0x20]
        0x00000404:    2330        0#      MOVS     r3,#0x30
        0x00000406:    439a        .C      BICS     r2,r2,r3
        0x00000408:    4302        .C      ORRS     r2,r2,r0
        0x0000040a:    4b33        3K      LDR      r3,[pc,#204] ; [0x4d8] = 0x400e0028
        0x0000040c:    3b28        (;      SUBS     r3,r3,#0x28
        0x0000040e:    621a        .b      STR      r2,[r3,#0x20]
        0x00000410:    bf00        ..      NOP      
        0x00000412:    bf00        ..      NOP      
        0x00000414:    461a        .F      MOV      r2,r3
        0x00000416:    6a12        .j      LDR      r2,[r2,#0x20]
        0x00000418:    23c0        .#      MOVS     r3,#0xc0
        0x0000041a:    439a        .C      BICS     r2,r2,r3
        0x0000041c:    430a        .C      ORRS     r2,r2,r1
        0x0000041e:    4b2e        .K      LDR      r3,[pc,#184] ; [0x4d8] = 0x400e0028
        0x00000420:    3b28        (;      SUBS     r3,r3,#0x28
        0x00000422:    621a        .b      STR      r2,[r3,#0x20]
        0x00000424:    bf00        ..      NOP      
        0x00000426:    bf00        ..      NOP      
        0x00000428:    461a        .F      MOV      r2,r3
        0x0000042a:    6a12        .j      LDR      r2,[r2,#0x20]
        0x0000042c:    159b        ..      ASRS     r3,r3,#22
        0x0000042e:    431a        .C      ORRS     r2,r2,r3
        0x00000430:    4b29        )K      LDR      r3,[pc,#164] ; [0x4d8] = 0x400e0028
        0x00000432:    3b28        (;      SUBS     r3,r3,#0x28
        0x00000434:    621a        .b      STR      r2,[r3,#0x20]
        0x00000436:    bf00        ..      NOP      
        0x00000438:    4770        pG      BX       lr
    DrvADC_EnableComp0
        0x0000043a:    b5f8        ..      PUSH     {r3-r7,lr}
        0x0000043c:    4604        .F      MOV      r4,r0
        0x0000043e:    460d        .F      MOV      r5,r1
        0x00000440:    4616        .F      MOV      r6,r2
        0x00000442:    461f        .F      MOV      r7,r3
        0x00000444:    4623        #F      MOV      r3,r4
        0x00000446:    463a        :F      MOV      r2,r7
        0x00000448:    4631        1F      MOV      r1,r6
        0x0000044a:    2000        .       MOVS     r0,#0
        0x0000044c:    9500        ..      STR      r5,[sp,#0]
        0x0000044e:    f7fffeed    ....    BL       ADC_SET_CMP ; 0x22c
        0x00000452:    2000        .       MOVS     r0,#0
        0x00000454:    f000f832    ..2.    BL       ADC_CMP_ENABLE ; 0x4bc
        0x00000458:    bdf8        ..      POP      {r3-r7,pc}
    DrvADC_EnableComp1
        0x0000045a:    b5f8        ..      PUSH     {r3-r7,lr}
        0x0000045c:    4604        .F      MOV      r4,r0
        0x0000045e:    460d        .F      MOV      r5,r1
        0x00000460:    4616        .F      MOV      r6,r2
        0x00000462:    461f        .F      MOV      r7,r3
        0x00000464:    4623        #F      MOV      r3,r4
        0x00000466:    463a        :F      MOV      r2,r7
        0x00000468:    4631        1F      MOV      r1,r6
        0x0000046a:    2001        .       MOVS     r0,#1
        0x0000046c:    9500        ..      STR      r5,[sp,#0]
        0x0000046e:    f7fffedd    ....    BL       ADC_SET_CMP ; 0x22c
        0x00000472:    2001        .       MOVS     r0,#1
        0x00000474:    f000f822    ..".    BL       ADC_CMP_ENABLE ; 0x4bc
        0x00000478:    bdf8        ..      POP      {r3-r7,pc}
    NVIC_EnableIRQ
        0x0000047a:    06c2        ..      LSLS     r2,r0,#27
        0x0000047c:    0ed2        ..      LSRS     r2,r2,#27
        0x0000047e:    2101        .!      MOVS     r1,#1
        0x00000480:    4091        .@      LSLS     r1,r1,r2
        0x00000482:    4a19        .J      LDR      r2,[pc,#100] ; [0x4e8] = 0xe000e100
        0x00000484:    6011        .`      STR      r1,[r2,#0]
        0x00000486:    4770        pG      BX       lr
    NVIC_DisableIRQ
        0x00000488:    06c2        ..      LSLS     r2,r0,#27
        0x0000048a:    0ed2        ..      LSRS     r2,r2,#27
        0x0000048c:    2101        .!      MOVS     r1,#1
        0x0000048e:    4091        .@      LSLS     r1,r1,r2
        0x00000490:    4a15        .J      LDR      r2,[pc,#84] ; [0x4e8] = 0xe000e100
        0x00000492:    3280        .2      ADDS     r2,r2,#0x80
        0x00000494:    6011        .`      STR      r1,[r2,#0]
        0x00000496:    4770        pG      BX       lr
    ADC_CMP_INT_ENABLE
        0x00000498:    490f        .I      LDR      r1,[pc,#60] ; [0x4d8] = 0x400e0028
        0x0000049a:    0082        ..      LSLS     r2,r0,#2
        0x0000049c:    5889        .X      LDR      r1,[r1,r2]
        0x0000049e:    2202        ."      MOVS     r2,#2
        0x000004a0:    4311        .C      ORRS     r1,r1,r2
        0x000004a2:    4a0d        .J      LDR      r2,[pc,#52] ; [0x4d8] = 0x400e0028
        0x000004a4:    0083        ..      LSLS     r3,r0,#2
        0x000004a6:    50d1        .P      STR      r1,[r2,r3]
        0x000004a8:    4770        pG      BX       lr
    ADC_CMP_INT_DISABLE
        0x000004aa:    490b        .I      LDR      r1,[pc,#44] ; [0x4d8] = 0x400e0028
        0x000004ac:    0082        ..      LSLS     r2,r0,#2
        0x000004ae:    5889        .X      LDR      r1,[r1,r2]
        0x000004b0:    2202        ."      MOVS     r2,#2
        0x000004b2:    4391        .C      BICS     r1,r1,r2
        0x000004b4:    4a08        .J      LDR      r2,[pc,#32] ; [0x4d8] = 0x400e0028
        0x000004b6:    0083        ..      LSLS     r3,r0,#2
        0x000004b8:    50d1        .P      STR      r1,[r2,r3]
        0x000004ba:    4770        pG      BX       lr
    ADC_CMP_ENABLE
        0x000004bc:    4906        .I      LDR      r1,[pc,#24] ; [0x4d8] = 0x400e0028
        0x000004be:    0082        ..      LSLS     r2,r0,#2
        0x000004c0:    5889        .X      LDR      r1,[r1,r2]
        0x000004c2:    2201        ."      MOVS     r2,#1
        0x000004c4:    4311        .C      ORRS     r1,r1,r2
        0x000004c6:    4a04        .J      LDR      r2,[pc,#16] ; [0x4d8] = 0x400e0028
        0x000004c8:    0083        ..      LSLS     r3,r0,#2
        0x000004ca:    50d1        .P      STR      r1,[r2,r3]
        0x000004cc:    4770        pG      BX       lr
    ADC_CLR_IF
        0x000004ce:    4902        .I      LDR      r1,[pc,#8] ; [0x4d8] = 0x400e0028
        0x000004d0:    3928        (9      SUBS     r1,r1,#0x28
        0x000004d2:    6308        .c      STR      r0,[r1,#0x30]
        0x000004d4:    4770        pG      BX       lr
    $d
        0x000004d6:    0000        ..      DCW    0
        0x000004d8:    400e0028    (..@    DCD    1074659368
        0x000004dc:    f0000003    ....    DCD    4026531843
        0x000004e0:    f000ffff    ....    DCD    4026597375
        0x000004e4:    50000200    ...P    DCD    1342177792
        0x000004e8:    e000e100    ....    DCD    3758153984
    $t
    .text
    CLK_GetHCLKFreq
        0x000004ec:    b570        p.      PUSH     {r4-r6,lr}
        0x000004ee:    2500        .%      MOVS     r5,#0
        0x000004f0:    48bb        .H      LDR      r0,[pc,#748] ; [0x7e0] = 0x50000200
        0x000004f2:    6900        .i      LDR      r0,[r0,#0x10]
        0x000004f4:    0744        D.      LSLS     r4,r0,#29
        0x000004f6:    0f64        d.      LSRS     r4,r4,#29
        0x000004f8:    2c00        .,      CMP      r4,#0
        0x000004fa:    d101        ..      BNE      0x500 ; CLK_GetHCLKFreq + 20
        0x000004fc:    4db9        .M      LDR      r5,[pc,#740] ; [0x7e4] = 0xb71b00
        0x000004fe:    e00f        ..      B        0x520 ; CLK_GetHCLKFreq + 52
        0x00000500:    2c02        .,      CMP      r4,#2
        0x00000502:    d001        ..      BEQ      0x508 ; CLK_GetHCLKFreq + 28
        0x00000504:    2c01        .,      CMP      r4,#1
        0x00000506:    d106        ..      BNE      0x516 ; CLK_GetHCLKFreq + 42
        0x00000508:    f000f91f    ....    BL       CLK_GetPLLClockFreq ; 0x74a
        0x0000050c:    4605        .F      MOV      r5,r0
        0x0000050e:    2c01        .,      CMP      r4,#1
        0x00000510:    d106        ..      BNE      0x520 ; CLK_GetHCLKFreq + 52
        0x00000512:    086d        m.      LSRS     r5,r5,#1
        0x00000514:    e004        ..      B        0x520 ; CLK_GetHCLKFreq + 52
        0x00000516:    2c03        .,      CMP      r4,#3
        0x00000518:    d101        ..      BNE      0x51e ; CLK_GetHCLKFreq + 50
        0x0000051a:    4db3        .M      LDR      r5,[pc,#716] ; [0x7e8] = 0x2710
        0x0000051c:    e000        ..      B        0x520 ; CLK_GetHCLKFreq + 52
        0x0000051e:    4db3        .M      LDR      r5,[pc,#716] ; [0x7ec] = 0x1518000
        0x00000520:    48af        .H      LDR      r0,[pc,#700] ; [0x7e0] = 0x50000200
        0x00000522:    6980        .i      LDR      r0,[r0,#0x18]
        0x00000524:    0700        ..      LSLS     r0,r0,#28
        0x00000526:    0f00        ..      LSRS     r0,r0,#28
        0x00000528:    1c46        F.      ADDS     r6,r0,#1
        0x0000052a:    4631        1F      MOV      r1,r6
        0x0000052c:    4628        (F      MOV      r0,r5
        0x0000052e:    f006fc55    ..U.    BL       __aeabi_uidiv ; 0x6ddc
        0x00000532:    bd70        p.      POP      {r4-r6,pc}
    DrvI2C_Ctrl
        0x00000534:    b5f0        ..      PUSH     {r4-r7,lr}
        0x00000536:    9c05        ..      LDR      r4,[sp,#0x14]
        0x00000538:    2500        .%      MOVS     r5,#0
        0x0000053a:    2900        .)      CMP      r1,#0
        0x0000053c:    d001        ..      BEQ      0x542 ; DrvI2C_Ctrl + 14
        0x0000053e:    2620         &      MOVS     r6,#0x20
        0x00000540:    4335        5C      ORRS     r5,r5,r6
        0x00000542:    2a00        .*      CMP      r2,#0
        0x00000544:    d001        ..      BEQ      0x54a ; DrvI2C_Ctrl + 22
        0x00000546:    2610        .&      MOVS     r6,#0x10
        0x00000548:    4335        5C      ORRS     r5,r5,r6
        0x0000054a:    2b00        .+      CMP      r3,#0
        0x0000054c:    d001        ..      BEQ      0x552 ; DrvI2C_Ctrl + 30
        0x0000054e:    2608        .&      MOVS     r6,#8
        0x00000550:    4335        5C      ORRS     r5,r5,r6
        0x00000552:    2c00        .,      CMP      r4,#0
        0x00000554:    d001        ..      BEQ      0x55a ; DrvI2C_Ctrl + 38
        0x00000556:    2604        .&      MOVS     r6,#4
        0x00000558:    4335        5C      ORRS     r5,r5,r6
        0x0000055a:    6806        .h      LDR      r6,[r0,#0]
        0x0000055c:    273c        <'      MOVS     r7,#0x3c
        0x0000055e:    43be        .C      BICS     r6,r6,r7
        0x00000560:    432e        .C      ORRS     r6,r6,r5
        0x00000562:    6006        .`      STR      r6,[r0,#0]
        0x00000564:    bdf0        ..      POP      {r4-r7,pc}
    CLK_GetAPBClockFreq
        0x00000566:    b510        ..      PUSH     {r4,lr}
        0x00000568:    f7ffffc0    ....    BL       CLK_GetHCLKFreq ; 0x4ec
        0x0000056c:    4604        .F      MOV      r4,r0
        0x0000056e:    489c        .H      LDR      r0,[pc,#624] ; [0x7e0] = 0x50000200
        0x00000570:    6ac0        .j      LDR      r0,[r0,#0x2c]
        0x00000572:    1c41        A.      ADDS     r1,r0,#1
        0x00000574:    4620         F      MOV      r0,r4
        0x00000576:    f006fc31    ..1.    BL       __aeabi_uidiv ; 0x6ddc
        0x0000057a:    bd10        ..      POP      {r4,pc}
    DrvI2C_Init
        0x0000057c:    b5fe        ..      PUSH     {r1-r7,lr}
        0x0000057e:    4604        .F      MOV      r4,r0
        0x00000580:    460e        .F      MOV      r6,r1
        0x00000582:    4617        .F      MOV      r7,r2
        0x00000584:    f7ffffef    ....    BL       CLK_GetAPBClockFreq ; 0x566
        0x00000588:    210a        .!      MOVS     r1,#0xa
        0x0000058a:    4348        HC      MULS     r0,r1,r0
        0x0000058c:    00b1        ..      LSLS     r1,r6,#2
        0x0000058e:    9000        ..      STR      r0,[sp,#0]
        0x00000590:    f006fc24    ..$.    BL       __aeabi_uidiv ; 0x6ddc
        0x00000594:    1d40        @.      ADDS     r0,r0,#5
        0x00000596:    210a        .!      MOVS     r1,#0xa
        0x00000598:    9001        ..      STR      r0,[sp,#4]
        0x0000059a:    f006fc1f    ....    BL       __aeabi_uidiv ; 0x6ddc
        0x0000059e:    1e45        E.      SUBS     r5,r0,#1
        0x000005a0:    4893        .H      LDR      r0,[pc,#588] ; [0x7f0] = 0x40120000
        0x000005a2:    4284        .B      CMP      r4,r0
        0x000005a4:    d106        ..      BNE      0x5b4 ; DrvI2C_Init + 56
        0x000005a6:    1540        @.      ASRS     r0,r0,#21
        0x000005a8:    f000f90e    ....    BL       SYS_RESET_IP2 ; 0x7c8
        0x000005ac:    1560        `.      ASRS     r0,r4,#21
        0x000005ae:    f000f8c6    ....    BL       APBCLK_ENABLE ; 0x73e
        0x000005b2:    e007        ..      B        0x5c4 ; DrvI2C_Init + 72
        0x000005b4:    20ff        .       MOVS     r0,#0xff
        0x000005b6:    3001        .0      ADDS     r0,#1
        0x000005b8:    f000f906    ....    BL       SYS_RESET_IP2 ; 0x7c8
        0x000005bc:    20ff        .       MOVS     r0,#0xff
        0x000005be:    3001        .0      ADDS     r0,#1
        0x000005c0:    f000f8bd    ....    BL       APBCLK_ENABLE ; 0x73e
        0x000005c4:    bf00        ..      NOP      
        0x000005c6:    6920         i      LDR      r0,[r4,#0x10]
        0x000005c8:    4328        (C      ORRS     r0,r0,r5
        0x000005ca:    6120         a      STR      r0,[r4,#0x10]
        0x000005cc:    bf00        ..      NOP      
        0x000005ce:    2f00        ./      CMP      r7,#0
        0x000005d0:    d00f        ..      BEQ      0x5f2 ; DrvI2C_Init + 118
        0x000005d2:    4620         F      MOV      r0,r4
        0x000005d4:    f000f8ee    ....    BL       I2C_ENABLE_I2C_INT ; 0x7b4
        0x000005d8:    4886        .H      LDR      r0,[pc,#536] ; [0x7f4] = 0x40020000
        0x000005da:    4284        .B      CMP      r4,r0
        0x000005dc:    d103        ..      BNE      0x5e6 ; DrvI2C_Init + 106
        0x000005de:    2012        .       MOVS     r0,#0x12
        0x000005e0:    f000f89e    ....    BL       NVIC_EnableIRQ ; 0x720
        0x000005e4:    e005        ..      B        0x5f2 ; DrvI2C_Init + 118
        0x000005e6:    4882        .H      LDR      r0,[pc,#520] ; [0x7f0] = 0x40120000
        0x000005e8:    4284        .B      CMP      r4,r0
        0x000005ea:    d102        ..      BNE      0x5f2 ; DrvI2C_Init + 118
        0x000005ec:    2013        .       MOVS     r0,#0x13
        0x000005ee:    f000f897    ....    BL       NVIC_EnableIRQ ; 0x720
        0x000005f2:    bf00        ..      NOP      
        0x000005f4:    6820         h      LDR      r0,[r4,#0]
        0x000005f6:    2140        @!      MOVS     r1,#0x40
        0x000005f8:    4308        .C      ORRS     r0,r0,r1
        0x000005fa:    6020         `      STR      r0,[r4,#0]
        0x000005fc:    bf00        ..      NOP      
        0x000005fe:    bdfe        ..      POP      {r1-r7,pc}
    DrvI2C_DeInit
        0x00000600:    b510        ..      PUSH     {r4,lr}
        0x00000602:    4604        .F      MOV      r4,r0
        0x00000604:    4620         F      MOV      r0,r4
        0x00000606:    f000f8da    ....    BL       I2C_DISABLE_I2C_INT ; 0x7be
        0x0000060a:    bf00        ..      NOP      
        0x0000060c:    6820         h      LDR      r0,[r4,#0]
        0x0000060e:    2140        @!      MOVS     r1,#0x40
        0x00000610:    4388        .C      BICS     r0,r0,r1
        0x00000612:    6020         `      STR      r0,[r4,#0]
        0x00000614:    bf00        ..      NOP      
        0x00000616:    4877        wH      LDR      r0,[pc,#476] ; [0x7f4] = 0x40020000
        0x00000618:    4284        .B      CMP      r4,r0
        0x0000061a:    d103        ..      BNE      0x624 ; DrvI2C_DeInit + 36
        0x0000061c:    2012        .       MOVS     r0,#0x12
        0x0000061e:    f000f886    ....    BL       NVIC_DisableIRQ ; 0x72e
        0x00000622:    e005        ..      B        0x630 ; DrvI2C_DeInit + 48
        0x00000624:    4872        rH      LDR      r0,[pc,#456] ; [0x7f0] = 0x40120000
        0x00000626:    4284        .B      CMP      r4,r0
        0x00000628:    d102        ..      BNE      0x630 ; DrvI2C_DeInit + 48
        0x0000062a:    2013        .       MOVS     r0,#0x13
        0x0000062c:    f000f87f    ....    BL       NVIC_DisableIRQ ; 0x72e
        0x00000630:    bd10        ..      POP      {r4,pc}
    DrvI2C_GetClockFreq
        0x00000632:    b570        p.      PUSH     {r4-r6,lr}
        0x00000634:    4604        .F      MOV      r4,r0
        0x00000636:    6925        %i      LDR      r5,[r4,#0x10]
        0x00000638:    f7ffff58    ..X.    BL       CLK_GetHCLKFreq ; 0x4ec
        0x0000063c:    4606        .F      MOV      r6,r0
        0x0000063e:    1c68        h.      ADDS     r0,r5,#1
        0x00000640:    0081        ..      LSLS     r1,r0,#2
        0x00000642:    4630        0F      MOV      r0,r6
        0x00000644:    f006fbca    ....    BL       __aeabi_uidiv ; 0x6ddc
        0x00000648:    bd70        p.      POP      {r4-r6,pc}
    DrvI2C_EnableInt
        0x0000064a:    b510        ..      PUSH     {r4,lr}
        0x0000064c:    4604        .F      MOV      r4,r0
        0x0000064e:    4620         F      MOV      r0,r4
        0x00000650:    f000f8b0    ....    BL       I2C_ENABLE_I2C_INT ; 0x7b4
        0x00000654:    4867        gH      LDR      r0,[pc,#412] ; [0x7f4] = 0x40020000
        0x00000656:    4284        .B      CMP      r4,r0
        0x00000658:    d103        ..      BNE      0x662 ; DrvI2C_EnableInt + 24
        0x0000065a:    2012        .       MOVS     r0,#0x12
        0x0000065c:    f000f860    ..`.    BL       NVIC_EnableIRQ ; 0x720
        0x00000660:    e005        ..      B        0x66e ; DrvI2C_EnableInt + 36
        0x00000662:    4863        cH      LDR      r0,[pc,#396] ; [0x7f0] = 0x40120000
        0x00000664:    4284        .B      CMP      r4,r0
        0x00000666:    d102        ..      BNE      0x66e ; DrvI2C_EnableInt + 36
        0x00000668:    2013        .       MOVS     r0,#0x13
        0x0000066a:    f000f859    ..Y.    BL       NVIC_EnableIRQ ; 0x720
        0x0000066e:    bd10        ..      POP      {r4,pc}
    DrvI2C_DisableInt
        0x00000670:    b510        ..      PUSH     {r4,lr}
        0x00000672:    4604        .F      MOV      r4,r0
        0x00000674:    4620         F      MOV      r0,r4
        0x00000676:    f000f8a2    ....    BL       I2C_DISABLE_I2C_INT ; 0x7be
        0x0000067a:    485e        ^H      LDR      r0,[pc,#376] ; [0x7f4] = 0x40020000
        0x0000067c:    4284        .B      CMP      r4,r0
        0x0000067e:    d103        ..      BNE      0x688 ; DrvI2C_DisableInt + 24
        0x00000680:    2012        .       MOVS     r0,#0x12
        0x00000682:    f000f854    ..T.    BL       NVIC_DisableIRQ ; 0x72e
        0x00000686:    e005        ..      B        0x694 ; DrvI2C_DisableInt + 36
        0x00000688:    4859        YH      LDR      r0,[pc,#356] ; [0x7f0] = 0x40120000
        0x0000068a:    4284        .B      CMP      r4,r0
        0x0000068c:    d102        ..      BNE      0x694 ; DrvI2C_DisableInt + 36
        0x0000068e:    2013        .       MOVS     r0,#0x13
        0x00000690:    f000f84d    ..M.    BL       NVIC_DisableIRQ ; 0x72e
        0x00000694:    bd10        ..      POP      {r4,pc}
    DrvI2C_SetAddress
        0x00000696:    b530        0.      PUSH     {r4,r5,lr}
        0x00000698:    4604        .F      MOV      r4,r0
        0x0000069a:    2900        .)      CMP      r1,#0
        0x0000069c:    d006        ..      BEQ      0x6ac ; DrvI2C_SetAddress + 22
        0x0000069e:    2901        .)      CMP      r1,#1
        0x000006a0:    d009        ..      BEQ      0x6b6 ; DrvI2C_SetAddress + 32
        0x000006a2:    2902        .)      CMP      r1,#2
        0x000006a4:    d00c        ..      BEQ      0x6c0 ; DrvI2C_SetAddress + 42
        0x000006a6:    2903        .)      CMP      r1,#3
        0x000006a8:    d114        ..      BNE      0x6d4 ; DrvI2C_SetAddress + 62
        0x000006aa:    e00e        ..      B        0x6ca ; DrvI2C_SetAddress + 52
        0x000006ac:    0050        P.      LSLS     r0,r2,#1
        0x000006ae:    4318        .C      ORRS     r0,r0,r3
        0x000006b0:    6060        ``      STR      r0,[r4,#4]
        0x000006b2:    bf00        ..      NOP      
        0x000006b4:    e011        ..      B        0x6da ; DrvI2C_SetAddress + 68
        0x000006b6:    0050        P.      LSLS     r0,r2,#1
        0x000006b8:    4318        .C      ORRS     r0,r0,r3
        0x000006ba:    61a0        .a      STR      r0,[r4,#0x18]
        0x000006bc:    bf00        ..      NOP      
        0x000006be:    e00c        ..      B        0x6da ; DrvI2C_SetAddress + 68
        0x000006c0:    0050        P.      LSLS     r0,r2,#1
        0x000006c2:    4318        .C      ORRS     r0,r0,r3
        0x000006c4:    61e0        .a      STR      r0,[r4,#0x1c]
        0x000006c6:    bf00        ..      NOP      
        0x000006c8:    e007        ..      B        0x6da ; DrvI2C_SetAddress + 68
        0x000006ca:    0050        P.      LSLS     r0,r2,#1
        0x000006cc:    4318        .C      ORRS     r0,r0,r3
        0x000006ce:    6220         b      STR      r0,[r4,#0x20]
        0x000006d0:    bf00        ..      NOP      
        0x000006d2:    e002        ..      B        0x6da ; DrvI2C_SetAddress + 68
        0x000006d4:    2000        .       MOVS     r0,#0
        0x000006d6:    43c0        .C      MVNS     r0,r0
        0x000006d8:    bd30        0.      POP      {r4,r5,pc}
        0x000006da:    bf00        ..      NOP      
        0x000006dc:    2001        .       MOVS     r0,#1
        0x000006de:    e7fb        ..      B        0x6d8 ; DrvI2C_SetAddress + 66
    DrvI2C_SetAddressMask
        0x000006e0:    4603        .F      MOV      r3,r0
        0x000006e2:    2900        .)      CMP      r1,#0
        0x000006e4:    d006        ..      BEQ      0x6f4 ; DrvI2C_SetAddressMask + 20
        0x000006e6:    2901        .)      CMP      r1,#1
        0x000006e8:    d008        ..      BEQ      0x6fc ; DrvI2C_SetAddressMask + 28
        0x000006ea:    2902        .)      CMP      r1,#2
        0x000006ec:    d00a        ..      BEQ      0x704 ; DrvI2C_SetAddressMask + 36
        0x000006ee:    2903        .)      CMP      r1,#3
        0x000006f0:    d110        ..      BNE      0x714 ; DrvI2C_SetAddressMask + 52
        0x000006f2:    e00b        ..      B        0x70c ; DrvI2C_SetAddressMask + 44
        0x000006f4:    0050        P.      LSLS     r0,r2,#1
        0x000006f6:    6258        Xb      STR      r0,[r3,#0x24]
        0x000006f8:    bf00        ..      NOP      
        0x000006fa:    e00e        ..      B        0x71a ; DrvI2C_SetAddressMask + 58
        0x000006fc:    0050        P.      LSLS     r0,r2,#1
        0x000006fe:    6298        .b      STR      r0,[r3,#0x28]
        0x00000700:    bf00        ..      NOP      
        0x00000702:    e00a        ..      B        0x71a ; DrvI2C_SetAddressMask + 58
        0x00000704:    0050        P.      LSLS     r0,r2,#1
        0x00000706:    62d8        .b      STR      r0,[r3,#0x2c]
        0x00000708:    bf00        ..      NOP      
        0x0000070a:    e006        ..      B        0x71a ; DrvI2C_SetAddressMask + 58
        0x0000070c:    0050        P.      LSLS     r0,r2,#1
        0x0000070e:    6318        .c      STR      r0,[r3,#0x30]
        0x00000710:    bf00        ..      NOP      
        0x00000712:    e002        ..      B        0x71a ; DrvI2C_SetAddressMask + 58
        0x00000714:    2000        .       MOVS     r0,#0
        0x00000716:    43c0        .C      MVNS     r0,r0
        0x00000718:    4770        pG      BX       lr
        0x0000071a:    bf00        ..      NOP      
        0x0000071c:    2000        .       MOVS     r0,#0
        0x0000071e:    e7fb        ..      B        0x718 ; DrvI2C_SetAddressMask + 56
    NVIC_EnableIRQ
        0x00000720:    06c2        ..      LSLS     r2,r0,#27
        0x00000722:    0ed2        ..      LSRS     r2,r2,#27
        0x00000724:    2101        .!      MOVS     r1,#1
        0x00000726:    4091        .@      LSLS     r1,r1,r2
        0x00000728:    4a33        3J      LDR      r2,[pc,#204] ; [0x7f8] = 0xe000e100
        0x0000072a:    6011        .`      STR      r1,[r2,#0]
        0x0000072c:    4770        pG      BX       lr
    NVIC_DisableIRQ
        0x0000072e:    06c2        ..      LSLS     r2,r0,#27
        0x00000730:    0ed2        ..      LSRS     r2,r2,#27
        0x00000732:    2101        .!      MOVS     r1,#1
        0x00000734:    4091        .@      LSLS     r1,r1,r2
        0x00000736:    4a30        0J      LDR      r2,[pc,#192] ; [0x7f8] = 0xe000e100
        0x00000738:    3280        .2      ADDS     r2,r2,#0x80
        0x0000073a:    6011        .`      STR      r1,[r2,#0]
        0x0000073c:    4770        pG      BX       lr
    APBCLK_ENABLE
        0x0000073e:    4928        (I      LDR      r1,[pc,#160] ; [0x7e0] = 0x50000200
        0x00000740:    6889        .h      LDR      r1,[r1,#8]
        0x00000742:    4301        .C      ORRS     r1,r1,r0
        0x00000744:    4a26        &J      LDR      r2,[pc,#152] ; [0x7e0] = 0x50000200
        0x00000746:    6091        .`      STR      r1,[r2,#8]
        0x00000748:    4770        pG      BX       lr
    CLK_GetPLLClockFreq
        0x0000074a:    b5fe        ..      PUSH     {r1-r7,lr}
        0x0000074c:    a02b        +.      ADR      r0,{pc}+0xb0 ; 0x7fc
        0x0000074e:    6800        .h      LDR      r0,[r0,#0]
        0x00000750:    9000        ..      STR      r0,[sp,#0]
        0x00000752:    2000        .       MOVS     r0,#0
        0x00000754:    9002        ..      STR      r0,[sp,#8]
        0x00000756:    4822        "H      LDR      r0,[pc,#136] ; [0x7e0] = 0x50000200
        0x00000758:    6a04        .j      LDR      r4,[r0,#0x20]
        0x0000075a:    1300        ..      ASRS     r0,r0,#12
        0x0000075c:    4204        .B      TST      r4,r0
        0x0000075e:    d127        '.      BNE      0x7b0 ; CLK_GetPLLClockFreq + 102
        0x00000760:    2001        .       MOVS     r0,#1
        0x00000762:    04c0        ..      LSLS     r0,r0,#19
        0x00000764:    4204        .B      TST      r4,r0
        0x00000766:    d001        ..      BEQ      0x76c ; CLK_GetPLLClockFreq + 34
        0x00000768:    4820         H      LDR      r0,[pc,#128] ; [0x7ec] = 0x1518000
        0x0000076a:    e000        ..      B        0x76e ; CLK_GetPLLClockFreq + 36
        0x0000076c:    481d        .H      LDR      r0,[pc,#116] ; [0x7e4] = 0xb71b00
        0x0000076e:    4605        .F      MOV      r5,r0
        0x00000770:    2001        .       MOVS     r0,#1
        0x00000772:    0440        @.      LSLS     r0,r0,#17
        0x00000774:    4204        .B      TST      r4,r0
        0x00000776:    d001        ..      BEQ      0x77c ; CLK_GetPLLClockFreq + 50
        0x00000778:    9502        ..      STR      r5,[sp,#8]
        0x0000077a:    e019        ..      B        0x7b0 ; CLK_GetPLLClockFreq + 102
        0x0000077c:    2003        .       MOVS     r0,#3
        0x0000077e:    0380        ..      LSLS     r0,r0,#14
        0x00000780:    4020         @      ANDS     r0,r0,r4
        0x00000782:    0b80        ..      LSRS     r0,r0,#14
        0x00000784:    4669        iF      MOV      r1,sp
        0x00000786:    5c0f        .\      LDRB     r7,[r1,r0]
        0x00000788:    05e0        ..      LSLS     r0,r4,#23
        0x0000078a:    0dc0        ..      LSRS     r0,r0,#23
        0x0000078c:    1c80        ..      ADDS     r0,r0,#2
        0x0000078e:    9001        ..      STR      r0,[sp,#4]
        0x00000790:    201f        .       MOVS     r0,#0x1f
        0x00000792:    0240        @.      LSLS     r0,r0,#9
        0x00000794:    4020         @      ANDS     r0,r0,r4
        0x00000796:    0a40        @.      LSRS     r0,r0,#9
        0x00000798:    1c86        ..      ADDS     r6,r0,#2
        0x0000079a:    4632        2F      MOV      r2,r6
        0x0000079c:    437a        zC      MULS     r2,r7,r2
        0x0000079e:    4611        .F      MOV      r1,r2
        0x000007a0:    08ab        ..      LSRS     r3,r5,#2
        0x000007a2:    9a01        ..      LDR      r2,[sp,#4]
        0x000007a4:    4353        SC      MULS     r3,r2,r3
        0x000007a6:    4618        .F      MOV      r0,r3
        0x000007a8:    f006fb18    ....    BL       __aeabi_uidiv ; 0x6ddc
        0x000007ac:    0080        ..      LSLS     r0,r0,#2
        0x000007ae:    9002        ..      STR      r0,[sp,#8]
        0x000007b0:    9802        ..      LDR      r0,[sp,#8]
        0x000007b2:    bdfe        ..      POP      {r1-r7,pc}
    I2C_ENABLE_I2C_INT
        0x000007b4:    6801        .h      LDR      r1,[r0,#0]
        0x000007b6:    2280        ."      MOVS     r2,#0x80
        0x000007b8:    4311        .C      ORRS     r1,r1,r2
        0x000007ba:    6001        .`      STR      r1,[r0,#0]
        0x000007bc:    4770        pG      BX       lr
    I2C_DISABLE_I2C_INT
        0x000007be:    6801        .h      LDR      r1,[r0,#0]
        0x000007c0:    2280        ."      MOVS     r2,#0x80
        0x000007c2:    4391        .C      BICS     r1,r1,r2
        0x000007c4:    6001        .`      STR      r1,[r0,#0]
        0x000007c6:    4770        pG      BX       lr
    SYS_RESET_IP2
        0x000007c8:    2105        .!      MOVS     r1,#5
        0x000007ca:    0709        ..      LSLS     r1,r1,#28
        0x000007cc:    68c9        .h      LDR      r1,[r1,#0xc]
        0x000007ce:    4301        .C      ORRS     r1,r1,r0
        0x000007d0:    2205        ."      MOVS     r2,#5
        0x000007d2:    0712        ..      LSLS     r2,r2,#28
        0x000007d4:    60d1        .`      STR      r1,[r2,#0xc]
        0x000007d6:    4611        .F      MOV      r1,r2
        0x000007d8:    68c9        .h      LDR      r1,[r1,#0xc]
        0x000007da:    4381        .C      BICS     r1,r1,r0
        0x000007dc:    60d1        .`      STR      r1,[r2,#0xc]
        0x000007de:    4770        pG      BX       lr
    $d
        0x000007e0:    50000200    ...P    DCD    1342177792
        0x000007e4:    00b71b00    ....    DCD    12000000
        0x000007e8:    00002710    .'..    DCD    10000
        0x000007ec:    01518000    ..Q.    DCD    22118400
        0x000007f0:    40120000    ...@    DCD    1074921472
        0x000007f4:    40020000    ...@    DCD    1073872896
        0x000007f8:    e000e100    ....    DCD    3758153984
        0x000007fc:    04020201    ....    DCD    67240449
    $t
    .text
    CLK_GetPLLClockFreq
        0x00000800:    b5fe        ..      PUSH     {r1-r7,lr}
        0x00000802:    a082        ..      ADR      r0,{pc}+0x20a ; 0xa0c
        0x00000804:    6800        .h      LDR      r0,[r0,#0]
        0x00000806:    9000        ..      STR      r0,[sp,#0]
        0x00000808:    2000        .       MOVS     r0,#0
        0x0000080a:    9002        ..      STR      r0,[sp,#8]
        0x0000080c:    4880        .H      LDR      r0,[pc,#512] ; [0xa10] = 0x50000200
        0x0000080e:    6a04        .j      LDR      r4,[r0,#0x20]
        0x00000810:    1300        ..      ASRS     r0,r0,#12
        0x00000812:    4204        .B      TST      r4,r0
        0x00000814:    d127        '.      BNE      0x866 ; CLK_GetPLLClockFreq + 102
        0x00000816:    2001        .       MOVS     r0,#1
        0x00000818:    04c0        ..      LSLS     r0,r0,#19
        0x0000081a:    4204        .B      TST      r4,r0
        0x0000081c:    d001        ..      BEQ      0x822 ; CLK_GetPLLClockFreq + 34
        0x0000081e:    487d        }H      LDR      r0,[pc,#500] ; [0xa14] = 0x1518000
        0x00000820:    e000        ..      B        0x824 ; CLK_GetPLLClockFreq + 36
        0x00000822:    487d        }H      LDR      r0,[pc,#500] ; [0xa18] = 0xb71b00
        0x00000824:    4605        .F      MOV      r5,r0
        0x00000826:    2001        .       MOVS     r0,#1
        0x00000828:    0440        @.      LSLS     r0,r0,#17
        0x0000082a:    4204        .B      TST      r4,r0
        0x0000082c:    d001        ..      BEQ      0x832 ; CLK_GetPLLClockFreq + 50
        0x0000082e:    9502        ..      STR      r5,[sp,#8]
        0x00000830:    e019        ..      B        0x866 ; CLK_GetPLLClockFreq + 102
        0x00000832:    2003        .       MOVS     r0,#3
        0x00000834:    0380        ..      LSLS     r0,r0,#14
        0x00000836:    4020         @      ANDS     r0,r0,r4
        0x00000838:    0b80        ..      LSRS     r0,r0,#14
        0x0000083a:    4669        iF      MOV      r1,sp
        0x0000083c:    5c0f        .\      LDRB     r7,[r1,r0]
        0x0000083e:    05e0        ..      LSLS     r0,r4,#23
        0x00000840:    0dc0        ..      LSRS     r0,r0,#23
        0x00000842:    1c80        ..      ADDS     r0,r0,#2
        0x00000844:    9001        ..      STR      r0,[sp,#4]
        0x00000846:    201f        .       MOVS     r0,#0x1f
        0x00000848:    0240        @.      LSLS     r0,r0,#9
        0x0000084a:    4020         @      ANDS     r0,r0,r4
        0x0000084c:    0a40        @.      LSRS     r0,r0,#9
        0x0000084e:    1c86        ..      ADDS     r6,r0,#2
        0x00000850:    4632        2F      MOV      r2,r6
        0x00000852:    437a        zC      MULS     r2,r7,r2
        0x00000854:    4611        .F      MOV      r1,r2
        0x00000856:    08ab        ..      LSRS     r3,r5,#2
        0x00000858:    9a01        ..      LDR      r2,[sp,#4]
        0x0000085a:    4353        SC      MULS     r3,r2,r3
        0x0000085c:    4618        .F      MOV      r0,r3
        0x0000085e:    f006fabd    ....    BL       __aeabi_uidiv ; 0x6ddc
        0x00000862:    0080        ..      LSLS     r0,r0,#2
        0x00000864:    9002        ..      STR      r0,[sp,#8]
        0x00000866:    9802        ..      LDR      r0,[sp,#8]
        0x00000868:    bdfe        ..      POP      {r1-r7,pc}
    DrvI2S_GetSourceClockFreq
        0x0000086a:    b5f8        ..      PUSH     {r3-r7,lr}
        0x0000086c:    4868        hH      LDR      r0,[pc,#416] ; [0xa10] = 0x50000200
        0x0000086e:    69c0        .i      LDR      r0,[r0,#0x1c]
        0x00000870:    0780        ..      LSLS     r0,r0,#30
        0x00000872:    0f80        ..      LSRS     r0,r0,#30
        0x00000874:    9000        ..      STR      r0,[sp,#0]
        0x00000876:    9800        ..      LDR      r0,[sp,#0]
        0x00000878:    2800        .(      CMP      r0,#0
        0x0000087a:    d006        ..      BEQ      0x88a ; DrvI2S_GetSourceClockFreq + 32
        0x0000087c:    2801        .(      CMP      r0,#1
        0x0000087e:    d006        ..      BEQ      0x88e ; DrvI2S_GetSourceClockFreq + 36
        0x00000880:    2802        .(      CMP      r0,#2
        0x00000882:    d008        ..      BEQ      0x896 ; DrvI2S_GetSourceClockFreq + 44
        0x00000884:    2803        .(      CMP      r0,#3
        0x00000886:    d12e        ..      BNE      0x8e6 ; DrvI2S_GetSourceClockFreq + 124
        0x00000888:    e02b        +.      B        0x8e2 ; DrvI2S_GetSourceClockFreq + 120
        0x0000088a:    4c63        cL      LDR      r4,[pc,#396] ; [0xa18] = 0xb71b00
        0x0000088c:    e02d        -.      B        0x8ea ; DrvI2S_GetSourceClockFreq + 128
        0x0000088e:    f7ffffb7    ....    BL       CLK_GetPLLClockFreq ; 0x800
        0x00000892:    4604        .F      MOV      r4,r0
        0x00000894:    e029        ).      B        0x8ea ; DrvI2S_GetSourceClockFreq + 128
        0x00000896:    bf00        ..      NOP      
        0x00000898:    2600        .&      MOVS     r6,#0
        0x0000089a:    485d        ]H      LDR      r0,[pc,#372] ; [0xa10] = 0x50000200
        0x0000089c:    6900        .i      LDR      r0,[r0,#0x10]
        0x0000089e:    0745        E.      LSLS     r5,r0,#29
        0x000008a0:    0f6d        m.      LSRS     r5,r5,#29
        0x000008a2:    2d00        .-      CMP      r5,#0
        0x000008a4:    d101        ..      BNE      0x8aa ; DrvI2S_GetSourceClockFreq + 64
        0x000008a6:    4e5c        \N      LDR      r6,[pc,#368] ; [0xa18] = 0xb71b00
        0x000008a8:    e00f        ..      B        0x8ca ; DrvI2S_GetSourceClockFreq + 96
        0x000008aa:    2d02        .-      CMP      r5,#2
        0x000008ac:    d001        ..      BEQ      0x8b2 ; DrvI2S_GetSourceClockFreq + 72
        0x000008ae:    2d01        .-      CMP      r5,#1
        0x000008b0:    d106        ..      BNE      0x8c0 ; DrvI2S_GetSourceClockFreq + 86
        0x000008b2:    f7ffffa5    ....    BL       CLK_GetPLLClockFreq ; 0x800
        0x000008b6:    4606        .F      MOV      r6,r0
        0x000008b8:    2d01        .-      CMP      r5,#1
        0x000008ba:    d106        ..      BNE      0x8ca ; DrvI2S_GetSourceClockFreq + 96
        0x000008bc:    0876        v.      LSRS     r6,r6,#1
        0x000008be:    e004        ..      B        0x8ca ; DrvI2S_GetSourceClockFreq + 96
        0x000008c0:    2d03        .-      CMP      r5,#3
        0x000008c2:    d101        ..      BNE      0x8c8 ; DrvI2S_GetSourceClockFreq + 94
        0x000008c4:    4e55        UN      LDR      r6,[pc,#340] ; [0xa1c] = 0x2710
        0x000008c6:    e000        ..      B        0x8ca ; DrvI2S_GetSourceClockFreq + 96
        0x000008c8:    4e52        RN      LDR      r6,[pc,#328] ; [0xa14] = 0x1518000
        0x000008ca:    4851        QH      LDR      r0,[pc,#324] ; [0xa10] = 0x50000200
        0x000008cc:    6980        .i      LDR      r0,[r0,#0x18]
        0x000008ce:    0700        ..      LSLS     r0,r0,#28
        0x000008d0:    0f00        ..      LSRS     r0,r0,#28
        0x000008d2:    1c47        G.      ADDS     r7,r0,#1
        0x000008d4:    4639        9F      MOV      r1,r7
        0x000008d6:    4630        0F      MOV      r0,r6
        0x000008d8:    f006fa80    ....    BL       __aeabi_uidiv ; 0x6ddc
        0x000008dc:    4604        .F      MOV      r4,r0
        0x000008de:    bf00        ..      NOP      
        0x000008e0:    e003        ..      B        0x8ea ; DrvI2S_GetSourceClockFreq + 128
        0x000008e2:    4c4c        LL      LDR      r4,[pc,#304] ; [0xa14] = 0x1518000
        0x000008e4:    e001        ..      B        0x8ea ; DrvI2S_GetSourceClockFreq + 128
        0x000008e6:    4c4b        KL      LDR      r4,[pc,#300] ; [0xa14] = 0x1518000
        0x000008e8:    bf00        ..      NOP      
        0x000008ea:    bf00        ..      NOP      
        0x000008ec:    4620         F      MOV      r0,r4
        0x000008ee:    bdf8        ..      POP      {r3-r7,pc}
    DrvI2S_Init
        0x000008f0:    b5f8        ..      PUSH     {r3-r7,lr}
        0x000008f2:    4604        .F      MOV      r4,r0
        0x000008f4:    6820         h      LDR      r0,[r4,#0]
        0x000008f6:    4946        FI      LDR      r1,[pc,#280] ; [0xa10] = 0x50000200
        0x000008f8:    69c9        .i      LDR      r1,[r1,#0x1c]
        0x000008fa:    0889        ..      LSRS     r1,r1,#2
        0x000008fc:    0089        ..      LSLS     r1,r1,#2
        0x000008fe:    4301        .C      ORRS     r1,r1,r0
        0x00000900:    4a43        CJ      LDR      r2,[pc,#268] ; [0xa10] = 0x50000200
        0x00000902:    61d1        .a      STR      r1,[r2,#0x1c]
        0x00000904:    bf00        ..      NOP      
        0x00000906:    0510        ..      LSLS     r0,r2,#20
        0x00000908:    4611        .F      MOV      r1,r2
        0x0000090a:    6889        .h      LDR      r1,[r1,#8]
        0x0000090c:    4301        .C      ORRS     r1,r1,r0
        0x0000090e:    6091        .`      STR      r1,[r2,#8]
        0x00000910:    bf00        ..      NOP      
        0x00000912:    bf00        ..      NOP      
        0x00000914:    2105        .!      MOVS     r1,#5
        0x00000916:    0709        ..      LSLS     r1,r1,#28
        0x00000918:    68c9        .h      LDR      r1,[r1,#0xc]
        0x0000091a:    4301        .C      ORRS     r1,r1,r0
        0x0000091c:    2205        ."      MOVS     r2,#5
        0x0000091e:    0712        ..      LSLS     r2,r2,#28
        0x00000920:    60d1        .`      STR      r1,[r2,#0xc]
        0x00000922:    4611        .F      MOV      r1,r2
        0x00000924:    68c9        .h      LDR      r1,[r1,#0xc]
        0x00000926:    4381        .C      BICS     r1,r1,r0
        0x00000928:    60d1        .`      STR      r1,[r2,#0xc]
        0x0000092a:    bf00        ..      NOP      
        0x0000092c:    bf00        ..      NOP      
        0x0000092e:    483c        <H      LDR      r0,[pc,#240] ; [0xa20] = 0x401a0000
        0x00000930:    6800        .h      LDR      r0,[r0,#0]
        0x00000932:    2101        .!      MOVS     r1,#1
        0x00000934:    04c9        ..      LSLS     r1,r1,#19
        0x00000936:    4308        .C      ORRS     r0,r0,r1
        0x00000938:    4939        9I      LDR      r1,[pc,#228] ; [0xa20] = 0x401a0000
        0x0000093a:    6008        .`      STR      r0,[r1,#0]
        0x0000093c:    bf00        ..      NOP      
        0x0000093e:    bf00        ..      NOP      
        0x00000940:    4608        .F      MOV      r0,r1
        0x00000942:    6800        .h      LDR      r0,[r0,#0]
        0x00000944:    2101        .!      MOVS     r1,#1
        0x00000946:    0489        ..      LSLS     r1,r1,#18
        0x00000948:    4308        .C      ORRS     r0,r0,r1
        0x0000094a:    4935        5I      LDR      r1,[pc,#212] ; [0xa20] = 0x401a0000
        0x0000094c:    6008        .`      STR      r0,[r1,#0]
        0x0000094e:    bf00        ..      NOP      
        0x00000950:    6921        !i      LDR      r1,[r4,#0x10]
        0x00000952:    68a0        .h      LDR      r0,[r4,#8]
        0x00000954:    4308        .C      ORRS     r0,r0,r1
        0x00000956:    6961        ai      LDR      r1,[r4,#0x14]
        0x00000958:    4308        .C      ORRS     r0,r0,r1
        0x0000095a:    68e1        .h      LDR      r1,[r4,#0xc]
        0x0000095c:    4308        .C      ORRS     r0,r0,r1
        0x0000095e:    69a1        .i      LDR      r1,[r4,#0x18]
        0x00000960:    4308        .C      ORRS     r0,r0,r1
        0x00000962:    69e1        .i      LDR      r1,[r4,#0x1c]
        0x00000964:    4308        .C      ORRS     r0,r0,r1
        0x00000966:    492e        .I      LDR      r1,[pc,#184] ; [0xa20] = 0x401a0000
        0x00000968:    6008        .`      STR      r0,[r1,#0]
        0x0000096a:    f7ffff7e    ..~.    BL       DrvI2S_GetSourceClockFreq ; 0x86a
        0x0000096e:    4607        .F      MOV      r7,r0
        0x00000970:    68a1        .h      LDR      r1,[r4,#8]
        0x00000972:    1c49        I.      ADDS     r1,r1,#1
        0x00000974:    6860        `h      LDR      r0,[r4,#4]
        0x00000976:    4348        HC      MULS     r0,r1,r0
        0x00000978:    0106        ..      LSLS     r6,r0,#4
        0x0000097a:    4631        1F      MOV      r1,r6
        0x0000097c:    4638        8F      MOV      r0,r7
        0x0000097e:    f006fa2d    ..-.    BL       __aeabi_uidiv ; 0x6ddc
        0x00000982:    0840        @.      LSRS     r0,r0,#1
        0x00000984:    1e40        @.      SUBS     r0,r0,#1
        0x00000986:    b2c5        ..      UXTB     r5,r0
        0x00000988:    4825        %H      LDR      r0,[pc,#148] ; [0xa20] = 0x401a0000
        0x0000098a:    6840        @h      LDR      r0,[r0,#4]
        0x0000098c:    21ff        .!      MOVS     r1,#0xff
        0x0000098e:    0209        ..      LSLS     r1,r1,#8
        0x00000990:    4388        .C      BICS     r0,r0,r1
        0x00000992:    0229        ).      LSLS     r1,r5,#8
        0x00000994:    4308        .C      ORRS     r0,r0,r1
        0x00000996:    4922        "I      LDR      r1,[pc,#136] ; [0xa20] = 0x401a0000
        0x00000998:    6048        H`      STR      r0,[r1,#4]
        0x0000099a:    4608        .F      MOV      r0,r1
        0x0000099c:    6800        .h      LDR      r0,[r0,#0]
        0x0000099e:    4921        !I      LDR      r1,[pc,#132] ; [0xa24] = 0x8001
        0x000009a0:    4308        .C      ORRS     r0,r0,r1
        0x000009a2:    491f        .I      LDR      r1,[pc,#124] ; [0xa20] = 0x401a0000
        0x000009a4:    6008        .`      STR      r0,[r1,#0]
        0x000009a6:    2000        .       MOVS     r0,#0
        0x000009a8:    bdf8        ..      POP      {r3-r7,pc}
    DrvI2S_DeInit
        0x000009aa:    b510        ..      PUSH     {r4,lr}
        0x000009ac:    2001        .       MOVS     r0,#1
        0x000009ae:    0740        @.      LSLS     r0,r0,#29
        0x000009b0:    4917        .I      LDR      r1,[pc,#92] ; [0xa10] = 0x50000200
        0x000009b2:    6889        .h      LDR      r1,[r1,#8]
        0x000009b4:    4381        .C      BICS     r1,r1,r0
        0x000009b6:    4a16        .J      LDR      r2,[pc,#88] ; [0xa10] = 0x50000200
        0x000009b8:    6091        .`      STR      r1,[r2,#8]
        0x000009ba:    bf00        ..      NOP      
        0x000009bc:    201b        .       MOVS     r0,#0x1b
        0x000009be:    f000f81c    ....    BL       NVIC_DisableIRQ ; 0x9fa
        0x000009c2:    bd10        ..      POP      {r4,pc}
    DrvI2S_EnableInt
        0x000009c4:    bf00        ..      NOP      
        0x000009c6:    4916        .I      LDR      r1,[pc,#88] ; [0xa20] = 0x401a0000
        0x000009c8:    6889        .h      LDR      r1,[r1,#8]
        0x000009ca:    4301        .C      ORRS     r1,r1,r0
        0x000009cc:    4a14        .J      LDR      r2,[pc,#80] ; [0xa20] = 0x401a0000
        0x000009ce:    6091        .`      STR      r1,[r2,#8]
        0x000009d0:    bf00        ..      NOP      
        0x000009d2:    211b        .!      MOVS     r1,#0x1b
        0x000009d4:    2201        ."      MOVS     r2,#1
        0x000009d6:    408a        .@      LSLS     r2,r2,r1
        0x000009d8:    4b13        .K      LDR      r3,[pc,#76] ; [0xa28] = 0xe000e100
        0x000009da:    601a        .`      STR      r2,[r3,#0]
        0x000009dc:    bf00        ..      NOP      
        0x000009de:    4770        pG      BX       lr
    DrvI2S_DisableInt
        0x000009e0:    b510        ..      PUSH     {r4,lr}
        0x000009e2:    4604        .F      MOV      r4,r0
        0x000009e4:    bf00        ..      NOP      
        0x000009e6:    480e        .H      LDR      r0,[pc,#56] ; [0xa20] = 0x401a0000
        0x000009e8:    6880        .h      LDR      r0,[r0,#8]
        0x000009ea:    43a0        .C      BICS     r0,r0,r4
        0x000009ec:    490c        .I      LDR      r1,[pc,#48] ; [0xa20] = 0x401a0000
        0x000009ee:    6088        .`      STR      r0,[r1,#8]
        0x000009f0:    bf00        ..      NOP      
        0x000009f2:    201b        .       MOVS     r0,#0x1b
        0x000009f4:    f000f801    ....    BL       NVIC_DisableIRQ ; 0x9fa
        0x000009f8:    bd10        ..      POP      {r4,pc}
    NVIC_DisableIRQ
        0x000009fa:    06c2        ..      LSLS     r2,r0,#27
        0x000009fc:    0ed2        ..      LSRS     r2,r2,#27
        0x000009fe:    2101        .!      MOVS     r1,#1
        0x00000a00:    4091        .@      LSLS     r1,r1,r2
        0x00000a02:    4a09        .J      LDR      r2,[pc,#36] ; [0xa28] = 0xe000e100
        0x00000a04:    3280        .2      ADDS     r2,r2,#0x80
        0x00000a06:    6011        .`      STR      r1,[r2,#0]
        0x00000a08:    4770        pG      BX       lr
    $d
        0x00000a0a:    0000        ..      DCW    0
        0x00000a0c:    04020201    ....    DCD    67240449
        0x00000a10:    50000200    ...P    DCD    1342177792
        0x00000a14:    01518000    ..Q.    DCD    22118400
        0x00000a18:    00b71b00    ....    DCD    12000000
        0x00000a1c:    00002710    .'..    DCD    10000
        0x00000a20:    401a0000    ...@    DCD    1075445760
        0x00000a24:    00008001    ....    DCD    32769
        0x00000a28:    e000e100    ....    DCD    3758153984
    $t
    .text
    CLK_GetPLLClockFreq
        0x00000a2c:    b5fe        ..      PUSH     {r1-r7,lr}
        0x00000a2e:    a0fb        ..      ADR      r0,{pc}+0x3ee ; 0xe1c
        0x00000a30:    6800        .h      LDR      r0,[r0,#0]
        0x00000a32:    9000        ..      STR      r0,[sp,#0]
        0x00000a34:    2000        .       MOVS     r0,#0
        0x00000a36:    9002        ..      STR      r0,[sp,#8]
        0x00000a38:    48f9        .H      LDR      r0,[pc,#996] ; [0xe20] = 0x50000200
        0x00000a3a:    6a04        .j      LDR      r4,[r0,#0x20]
        0x00000a3c:    1300        ..      ASRS     r0,r0,#12
        0x00000a3e:    4204        .B      TST      r4,r0
        0x00000a40:    d127        '.      BNE      0xa92 ; CLK_GetPLLClockFreq + 102
        0x00000a42:    2001        .       MOVS     r0,#1
        0x00000a44:    04c0        ..      LSLS     r0,r0,#19
        0x00000a46:    4204        .B      TST      r4,r0
        0x00000a48:    d001        ..      BEQ      0xa4e ; CLK_GetPLLClockFreq + 34
        0x00000a4a:    48f6        .H      LDR      r0,[pc,#984] ; [0xe24] = 0x1518000
        0x00000a4c:    e000        ..      B        0xa50 ; CLK_GetPLLClockFreq + 36
        0x00000a4e:    48f6        .H      LDR      r0,[pc,#984] ; [0xe28] = 0xb71b00
        0x00000a50:    4605        .F      MOV      r5,r0
        0x00000a52:    2001        .       MOVS     r0,#1
        0x00000a54:    0440        @.      LSLS     r0,r0,#17
        0x00000a56:    4204        .B      TST      r4,r0
        0x00000a58:    d001        ..      BEQ      0xa5e ; CLK_GetPLLClockFreq + 50
        0x00000a5a:    9502        ..      STR      r5,[sp,#8]
        0x00000a5c:    e019        ..      B        0xa92 ; CLK_GetPLLClockFreq + 102
        0x00000a5e:    2003        .       MOVS     r0,#3
        0x00000a60:    0380        ..      LSLS     r0,r0,#14
        0x00000a62:    4020         @      ANDS     r0,r0,r4
        0x00000a64:    0b80        ..      LSRS     r0,r0,#14
        0x00000a66:    4669        iF      MOV      r1,sp
        0x00000a68:    5c0f        .\      LDRB     r7,[r1,r0]
        0x00000a6a:    05e0        ..      LSLS     r0,r4,#23
        0x00000a6c:    0dc0        ..      LSRS     r0,r0,#23
        0x00000a6e:    1c80        ..      ADDS     r0,r0,#2
        0x00000a70:    9001        ..      STR      r0,[sp,#4]
        0x00000a72:    201f        .       MOVS     r0,#0x1f
        0x00000a74:    0240        @.      LSLS     r0,r0,#9
        0x00000a76:    4020         @      ANDS     r0,r0,r4
        0x00000a78:    0a40        @.      LSRS     r0,r0,#9
        0x00000a7a:    1c86        ..      ADDS     r6,r0,#2
        0x00000a7c:    4632        2F      MOV      r2,r6
        0x00000a7e:    437a        zC      MULS     r2,r7,r2
        0x00000a80:    4611        .F      MOV      r1,r2
        0x00000a82:    08ab        ..      LSRS     r3,r5,#2
        0x00000a84:    9a01        ..      LDR      r2,[sp,#4]
        0x00000a86:    4353        SC      MULS     r3,r2,r3
        0x00000a88:    4618        .F      MOV      r0,r3
        0x00000a8a:    f006f9a7    ....    BL       __aeabi_uidiv ; 0x6ddc
        0x00000a8e:    0080        ..      LSLS     r0,r0,#2
        0x00000a90:    9002        ..      STR      r0,[sp,#8]
        0x00000a92:    9802        ..      LDR      r0,[sp,#8]
        0x00000a94:    bdfe        ..      POP      {r1-r7,pc}
    DrvSPI_DeInit
        0x00000a96:    b510        ..      PUSH     {r4,lr}
        0x00000a98:    4604        .F      MOV      r4,r0
        0x00000a9a:    48e4        .H      LDR      r0,[pc,#912] ; [0xe2c] = 0x40030000
        0x00000a9c:    4284        .B      CMP      r4,r0
        0x00000a9e:    d106        ..      BNE      0xaae ; DrvSPI_DeInit + 24
        0x00000aa0:    1480        ..      ASRS     r0,r0,#18
        0x00000aa2:    f000faf4    ....    BL       APBCLK_DISABLE ; 0x108e
        0x00000aa6:    200e        .       MOVS     r0,#0xe
        0x00000aa8:    f000fae3    ....    BL       NVIC_DisableIRQ ; 0x1072
        0x00000aac:    e014        ..      B        0xad8 ; DrvSPI_DeInit + 66
        0x00000aae:    48e0        .H      LDR      r0,[pc,#896] ; [0xe30] = 0x40034000
        0x00000ab0:    4284        .B      CMP      r4,r0
        0x00000ab2:    d107        ..      BNE      0xac4 ; DrvSPI_DeInit + 46
        0x00000ab4:    2001        .       MOVS     r0,#1
        0x00000ab6:    0340        @.      LSLS     r0,r0,#13
        0x00000ab8:    f000fae9    ....    BL       APBCLK_DISABLE ; 0x108e
        0x00000abc:    200f        .       MOVS     r0,#0xf
        0x00000abe:    f000fad8    ....    BL       NVIC_DisableIRQ ; 0x1072
        0x00000ac2:    e009        ..      B        0xad8 ; DrvSPI_DeInit + 66
        0x00000ac4:    48db        .H      LDR      r0,[pc,#876] ; [0xe34] = 0x40130000
        0x00000ac6:    4284        .B      CMP      r4,r0
        0x00000ac8:    d106        ..      BNE      0xad8 ; DrvSPI_DeInit + 66
        0x00000aca:    2001        .       MOVS     r0,#1
        0x00000acc:    0380        ..      LSLS     r0,r0,#14
        0x00000ace:    f000fade    ....    BL       APBCLK_DISABLE ; 0x108e
        0x00000ad2:    2010        .       MOVS     r0,#0x10
        0x00000ad4:    f000facd    ....    BL       NVIC_DisableIRQ ; 0x1072
        0x00000ad8:    bd10        ..      POP      {r4,pc}
    DrvSPI_Init
        0x00000ada:    b5f8        ..      PUSH     {r3-r7,lr}
        0x00000adc:    4604        .F      MOV      r4,r0
        0x00000ade:    460d        .F      MOV      r5,r1
        0x00000ae0:    4616        .F      MOV      r6,r2
        0x00000ae2:    461f        .F      MOV      r7,r3
        0x00000ae4:    48d1        .H      LDR      r0,[pc,#836] ; [0xe2c] = 0x40030000
        0x00000ae6:    4284        .B      CMP      r4,r0
        0x00000ae8:    d103        ..      BNE      0xaf2 ; DrvSPI_Init + 24
        0x00000aea:    1480        ..      ASRS     r0,r0,#18
        0x00000aec:    f000fac9    ....    BL       APBCLK_ENABLE ; 0x1082
        0x00000af0:    e00e        ..      B        0xb10 ; DrvSPI_Init + 54
        0x00000af2:    48cf        .H      LDR      r0,[pc,#828] ; [0xe30] = 0x40034000
        0x00000af4:    4284        .B      CMP      r4,r0
        0x00000af6:    d104        ..      BNE      0xb02 ; DrvSPI_Init + 40
        0x00000af8:    2001        .       MOVS     r0,#1
        0x00000afa:    0340        @.      LSLS     r0,r0,#13
        0x00000afc:    f000fac1    ....    BL       APBCLK_ENABLE ; 0x1082
        0x00000b00:    e006        ..      B        0xb10 ; DrvSPI_Init + 54
        0x00000b02:    48cc        .H      LDR      r0,[pc,#816] ; [0xe34] = 0x40130000
        0x00000b04:    4284        .B      CMP      r4,r0
        0x00000b06:    d103        ..      BNE      0xb10 ; DrvSPI_Init + 54
        0x00000b08:    2001        .       MOVS     r0,#1
        0x00000b0a:    0380        ..      LSLS     r0,r0,#14
        0x00000b0c:    f000fab9    ....    BL       APBCLK_ENABLE ; 0x1082
        0x00000b10:    48c6        .H      LDR      r0,[pc,#792] ; [0xe2c] = 0x40030000
        0x00000b12:    4284        .B      CMP      r4,r0
        0x00000b14:    d103        ..      BNE      0xb1e ; DrvSPI_Init + 68
        0x00000b16:    1480        ..      ASRS     r0,r0,#18
        0x00000b18:    f000facb    ....    BL       SYS_RESET_IP2 ; 0x10b2
        0x00000b1c:    e011        ..      B        0xb42 ; DrvSPI_Init + 104
        0x00000b1e:    48c4        .H      LDR      r0,[pc,#784] ; [0xe30] = 0x40034000
        0x00000b20:    4284        .B      CMP      r4,r0
        0x00000b22:    d104        ..      BNE      0xb2e ; DrvSPI_Init + 84
        0x00000b24:    2001        .       MOVS     r0,#1
        0x00000b26:    0340        @.      LSLS     r0,r0,#13
        0x00000b28:    f000fac3    ....    BL       SYS_RESET_IP2 ; 0x10b2
        0x00000b2c:    e009        ..      B        0xb42 ; DrvSPI_Init + 104
        0x00000b2e:    48c1        .H      LDR      r0,[pc,#772] ; [0xe34] = 0x40130000
        0x00000b30:    4284        .B      CMP      r4,r0
        0x00000b32:    d104        ..      BNE      0xb3e ; DrvSPI_Init + 100
        0x00000b34:    2001        .       MOVS     r0,#1
        0x00000b36:    0380        ..      LSLS     r0,r0,#14
        0x00000b38:    f000fabb    ....    BL       SYS_RESET_IP2 ; 0x10b2
        0x00000b3c:    e001        ..      B        0xb42 ; DrvSPI_Init + 104
        0x00000b3e:    2000        .       MOVS     r0,#0
        0x00000b40:    bdf8        ..      POP      {r3-r7,pc}
        0x00000b42:    2f20         /      CMP      r7,#0x20
        0x00000b44:    d100        ..      BNE      0xb48 ; DrvSPI_Init + 110
        0x00000b46:    2700        .'      MOVS     r7,#0
        0x00000b48:    4638        8F      MOV      r0,r7
        0x00000b4a:    6821        !h      LDR      r1,[r4,#0]
        0x00000b4c:    22f8        ."      MOVS     r2,#0xf8
        0x00000b4e:    4391        .C      BICS     r1,r1,r2
        0x00000b50:    2820         (      CMP      r0,#0x20
        0x00000b52:    d001        ..      BEQ      0xb58 ; DrvSPI_Init + 126
        0x00000b54:    4602        .F      MOV      r2,r0
        0x00000b56:    e000        ..      B        0xb5a ; DrvSPI_Init + 128
        0x00000b58:    2200        ."      MOVS     r2,#0
        0x00000b5a:    00d2        ..      LSLS     r2,r2,#3
        0x00000b5c:    4311        .C      ORRS     r1,r1,r2
        0x00000b5e:    6021        !`      STR      r1,[r4,#0]
        0x00000b60:    bf00        ..      NOP      
        0x00000b62:    bf00        ..      NOP      
        0x00000b64:    6820         h      LDR      r0,[r4,#0]
        0x00000b66:    2101        .!      MOVS     r1,#1
        0x00000b68:    0489        ..      LSLS     r1,r1,#18
        0x00000b6a:    4388        .C      BICS     r0,r0,r1
        0x00000b6c:    4328        (C      ORRS     r0,r0,r5
        0x00000b6e:    6020         `      STR      r0,[r4,#0]
        0x00000b70:    bf00        ..      NOP      
        0x00000b72:    bf00        ..      NOP      
        0x00000b74:    6820         h      LDR      r0,[r4,#0]
        0x00000b76:    2106        .!      MOVS     r1,#6
        0x00000b78:    4388        .C      BICS     r0,r0,r1
        0x00000b7a:    4330        0C      ORRS     r0,r0,r6
        0x00000b7c:    6020         `      STR      r0,[r4,#0]
        0x00000b7e:    bf00        ..      NOP      
        0x00000b80:    2001        .       MOVS     r0,#1
        0x00000b82:    e7dd        ..      B        0xb40 ; DrvSPI_Init + 102
    DrvSPI_GetSourceClockFreq
        0x00000b84:    b5fe        ..      PUSH     {r1-r7,lr}
        0x00000b86:    4606        .F      MOV      r6,r0
        0x00000b88:    48a7        .H      LDR      r0,[pc,#668] ; [0xe28] = 0xb71b00
        0x00000b8a:    9001        ..      STR      r0,[sp,#4]
        0x00000b8c:    48a7        .H      LDR      r0,[pc,#668] ; [0xe2c] = 0x40030000
        0x00000b8e:    4286        .B      CMP      r6,r0
        0x00000b90:    d104        ..      BNE      0xb9c ; DrvSPI_GetSourceClockFreq + 24
        0x00000b92:    48a3        .H      LDR      r0,[pc,#652] ; [0xe20] = 0x50000200
        0x00000b94:    69c4        .i      LDR      r4,[r0,#0x1c]
        0x00000b96:    2110        .!      MOVS     r1,#0x10
        0x00000b98:    400c        .@      ANDS     r4,r4,r1
        0x00000b9a:    e00b        ..      B        0xbb4 ; DrvSPI_GetSourceClockFreq + 48
        0x00000b9c:    48a4        .H      LDR      r0,[pc,#656] ; [0xe30] = 0x40034000
        0x00000b9e:    4286        .B      CMP      r6,r0
        0x00000ba0:    d104        ..      BNE      0xbac ; DrvSPI_GetSourceClockFreq + 40
        0x00000ba2:    489f        .H      LDR      r0,[pc,#636] ; [0xe20] = 0x50000200
        0x00000ba4:    69c4        .i      LDR      r4,[r0,#0x1c]
        0x00000ba6:    2120         !      MOVS     r1,#0x20
        0x00000ba8:    400c        .@      ANDS     r4,r4,r1
        0x00000baa:    e003        ..      B        0xbb4 ; DrvSPI_GetSourceClockFreq + 48
        0x00000bac:    489c        .H      LDR      r0,[pc,#624] ; [0xe20] = 0x50000200
        0x00000bae:    69c4        .i      LDR      r4,[r0,#0x1c]
        0x00000bb0:    2140        @!      MOVS     r1,#0x40
        0x00000bb2:    400c        .@      ANDS     r4,r4,r1
        0x00000bb4:    2c00        .,      CMP      r4,#0
        0x00000bb6:    d001        ..      BEQ      0xbbc ; DrvSPI_GetSourceClockFreq + 56
        0x00000bb8:    d000        ..      BEQ      0xbbc ; DrvSPI_GetSourceClockFreq + 56
        0x00000bba:    d102        ..      BNE      0xbc2 ; DrvSPI_GetSourceClockFreq + 62
        0x00000bbc:    f7ffff36    ..6.    BL       CLK_GetPLLClockFreq ; 0xa2c
        0x00000bc0:    bdfe        ..      POP      {r1-r7,pc}
        0x00000bc2:    2c10        .,      CMP      r4,#0x10
        0x00000bc4:    d003        ..      BEQ      0xbce ; DrvSPI_GetSourceClockFreq + 74
        0x00000bc6:    2c20         ,      CMP      r4,#0x20
        0x00000bc8:    d001        ..      BEQ      0xbce ; DrvSPI_GetSourceClockFreq + 74
        0x00000bca:    2c40        @,      CMP      r4,#0x40
        0x00000bcc:    d124        $.      BNE      0xc18 ; DrvSPI_GetSourceClockFreq + 148
        0x00000bce:    bf00        ..      NOP      
        0x00000bd0:    2700        .'      MOVS     r7,#0
        0x00000bd2:    4893        .H      LDR      r0,[pc,#588] ; [0xe20] = 0x50000200
        0x00000bd4:    6900        .i      LDR      r0,[r0,#0x10]
        0x00000bd6:    0745        E.      LSLS     r5,r0,#29
        0x00000bd8:    0f6d        m.      LSRS     r5,r5,#29
        0x00000bda:    2d00        .-      CMP      r5,#0
        0x00000bdc:    d101        ..      BNE      0xbe2 ; DrvSPI_GetSourceClockFreq + 94
        0x00000bde:    4f92        .O      LDR      r7,[pc,#584] ; [0xe28] = 0xb71b00
        0x00000be0:    e00f        ..      B        0xc02 ; DrvSPI_GetSourceClockFreq + 126
        0x00000be2:    2d02        .-      CMP      r5,#2
        0x00000be4:    d001        ..      BEQ      0xbea ; DrvSPI_GetSourceClockFreq + 102
        0x00000be6:    2d01        .-      CMP      r5,#1
        0x00000be8:    d106        ..      BNE      0xbf8 ; DrvSPI_GetSourceClockFreq + 116
        0x00000bea:    f7ffff1f    ....    BL       CLK_GetPLLClockFreq ; 0xa2c
        0x00000bee:    4607        .F      MOV      r7,r0
        0x00000bf0:    2d01        .-      CMP      r5,#1
        0x00000bf2:    d106        ..      BNE      0xc02 ; DrvSPI_GetSourceClockFreq + 126
        0x00000bf4:    087f        ..      LSRS     r7,r7,#1
        0x00000bf6:    e004        ..      B        0xc02 ; DrvSPI_GetSourceClockFreq + 126
        0x00000bf8:    2d03        .-      CMP      r5,#3
        0x00000bfa:    d101        ..      BNE      0xc00 ; DrvSPI_GetSourceClockFreq + 124
        0x00000bfc:    4f8e        .O      LDR      r7,[pc,#568] ; [0xe38] = 0x2710
        0x00000bfe:    e000        ..      B        0xc02 ; DrvSPI_GetSourceClockFreq + 126
        0x00000c00:    4f88        .O      LDR      r7,[pc,#544] ; [0xe24] = 0x1518000
        0x00000c02:    4887        .H      LDR      r0,[pc,#540] ; [0xe20] = 0x50000200
        0x00000c04:    6980        .i      LDR      r0,[r0,#0x18]
        0x00000c06:    0700        ..      LSLS     r0,r0,#28
        0x00000c08:    0f00        ..      LSRS     r0,r0,#28
        0x00000c0a:    1c40        @.      ADDS     r0,r0,#1
        0x00000c0c:    9000        ..      STR      r0,[sp,#0]
        0x00000c0e:    4638        8F      MOV      r0,r7
        0x00000c10:    9900        ..      LDR      r1,[sp,#0]
        0x00000c12:    f006f8e3    ....    BL       __aeabi_uidiv ; 0x6ddc
        0x00000c16:    e7d3        ..      B        0xbc0 ; DrvSPI_GetSourceClockFreq + 60
        0x00000c18:    9801        ..      LDR      r0,[sp,#4]
        0x00000c1a:    e7d1        ..      B        0xbc0 ; DrvSPI_GetSourceClockFreq + 60
    DrvSPI_SetClockFreq
        0x00000c1c:    b5fe        ..      PUSH     {r1-r7,lr}
        0x00000c1e:    4605        .F      MOV      r5,r0
        0x00000c20:    460f        .F      MOV      r7,r1
        0x00000c22:    4616        .F      MOV      r6,r2
        0x00000c24:    2000        .       MOVS     r0,#0
        0x00000c26:    9000        ..      STR      r0,[sp,#0]
        0x00000c28:    4628        (F      MOV      r0,r5
        0x00000c2a:    f7ffffab    ....    BL       DrvSPI_GetSourceClockFreq ; 0xb84
        0x00000c2e:    9001        ..      STR      r0,[sp,#4]
        0x00000c30:    2e00        ..      CMP      r6,#0
        0x00000c32:    d01b        ..      BEQ      0xc6c ; DrvSPI_SetClockFreq + 80
        0x00000c34:    4631        1F      MOV      r1,r6
        0x00000c36:    9801        ..      LDR      r0,[sp,#4]
        0x00000c38:    f006f8d0    ....    BL       __aeabi_uidiv ; 0x6ddc
        0x00000c3c:    1c40        @.      ADDS     r0,r0,#1
        0x00000c3e:    0840        @.      LSRS     r0,r0,#1
        0x00000c40:    1e44        D.      SUBS     r4,r0,#1
        0x00000c42:    2cff        .,      CMP      r4,#0xff
        0x00000c44:    d900        ..      BLS      0xc48 ; DrvSPI_SetClockFreq + 44
        0x00000c46:    24ff        .$      MOVS     r4,#0xff
        0x00000c48:    1c60        `.      ADDS     r0,r4,#1
        0x00000c4a:    0041        A.      LSLS     r1,r0,#1
        0x00000c4c:    9801        ..      LDR      r0,[sp,#4]
        0x00000c4e:    f006f8c5    ....    BL       __aeabi_uidiv ; 0x6ddc
        0x00000c52:    9000        ..      STR      r0,[sp,#0]
        0x00000c54:    9800        ..      LDR      r0,[sp,#0]
        0x00000c56:    42b0        .B      CMP      r0,r6
        0x00000c58:    d900        ..      BLS      0xc5c ; DrvSPI_SetClockFreq + 64
        0x00000c5a:    1c64        d.      ADDS     r4,r4,#1
        0x00000c5c:    6868        hh      LDR      r0,[r5,#4]
        0x00000c5e:    21ff        .!      MOVS     r1,#0xff
        0x00000c60:    0409        ..      LSLS     r1,r1,#16
        0x00000c62:    4388        .C      BICS     r0,r0,r1
        0x00000c64:    0421        !.      LSLS     r1,r4,#16
        0x00000c66:    4308        .C      ORRS     r0,r0,r1
        0x00000c68:    6068        h`      STR      r0,[r5,#4]
        0x00000c6a:    e004        ..      B        0xc76 ; DrvSPI_SetClockFreq + 90
        0x00000c6c:    6868        hh      LDR      r0,[r5,#4]
        0x00000c6e:    21ff        .!      MOVS     r1,#0xff
        0x00000c70:    0409        ..      LSLS     r1,r1,#16
        0x00000c72:    4308        .C      ORRS     r0,r0,r1
        0x00000c74:    6068        h`      STR      r0,[r5,#4]
        0x00000c76:    2f00        ./      CMP      r7,#0
        0x00000c78:    d020         .      BEQ      0xcbc ; DrvSPI_SetClockFreq + 160
        0x00000c7a:    4639        9F      MOV      r1,r7
        0x00000c7c:    9801        ..      LDR      r0,[sp,#4]
        0x00000c7e:    f006f8ad    ....    BL       __aeabi_uidiv ; 0x6ddc
        0x00000c82:    0844        D.      LSRS     r4,r0,#1
        0x00000c84:    2c7f        .,      CMP      r4,#0x7f
        0x00000c86:    d900        ..      BLS      0xc8a ; DrvSPI_SetClockFreq + 110
        0x00000c88:    247f        .$      MOVS     r4,#0x7f
        0x00000c8a:    2c00        .,      CMP      r4,#0
        0x00000c8c:    d102        ..      BNE      0xc94 ; DrvSPI_SetClockFreq + 120
        0x00000c8e:    9801        ..      LDR      r0,[sp,#4]
        0x00000c90:    9000        ..      STR      r0,[sp,#0]
        0x00000c92:    e004        ..      B        0xc9e ; DrvSPI_SetClockFreq + 130
        0x00000c94:    0061        a.      LSLS     r1,r4,#1
        0x00000c96:    9801        ..      LDR      r0,[sp,#4]
        0x00000c98:    f006f8a0    ....    BL       __aeabi_uidiv ; 0x6ddc
        0x00000c9c:    9000        ..      STR      r0,[sp,#0]
        0x00000c9e:    9800        ..      LDR      r0,[sp,#0]
        0x00000ca0:    42b8        .B      CMP      r0,r7
        0x00000ca2:    d905        ..      BLS      0xcb0 ; DrvSPI_SetClockFreq + 148
        0x00000ca4:    1c64        d.      ADDS     r4,r4,#1
        0x00000ca6:    0061        a.      LSLS     r1,r4,#1
        0x00000ca8:    9801        ..      LDR      r0,[sp,#4]
        0x00000caa:    f006f897    ....    BL       __aeabi_uidiv ; 0x6ddc
        0x00000cae:    9000        ..      STR      r0,[sp,#0]
        0x00000cb0:    6868        hh      LDR      r0,[r5,#4]
        0x00000cb2:    0a00        ..      LSRS     r0,r0,#8
        0x00000cb4:    0200        ..      LSLS     r0,r0,#8
        0x00000cb6:    4320         C      ORRS     r0,r0,r4
        0x00000cb8:    6068        h`      STR      r0,[r5,#4]
        0x00000cba:    e003        ..      B        0xcc4 ; DrvSPI_SetClockFreq + 168
        0x00000cbc:    6868        hh      LDR      r0,[r5,#4]
        0x00000cbe:    21ff        .!      MOVS     r1,#0xff
        0x00000cc0:    4308        .C      ORRS     r0,r0,r1
        0x00000cc2:    6068        h`      STR      r0,[r5,#4]
        0x00000cc4:    9800        ..      LDR      r0,[sp,#0]
        0x00000cc6:    bdfe        ..      POP      {r1-r7,pc}
    DrvSPI_GetClock1Freq
        0x00000cc8:    b570        p.      PUSH     {r4-r6,lr}
        0x00000cca:    4604        .F      MOV      r4,r0
        0x00000ccc:    4620         F      MOV      r0,r4
        0x00000cce:    f7ffff59    ..Y.    BL       DrvSPI_GetSourceClockFreq ; 0xb84
        0x00000cd2:    4606        .F      MOV      r6,r0
        0x00000cd4:    6860        `h      LDR      r0,[r4,#4]
        0x00000cd6:    b2c5        ..      UXTB     r5,r0
        0x00000cd8:    2d00        .-      CMP      r5,#0
        0x00000cda:    d101        ..      BNE      0xce0 ; DrvSPI_GetClock1Freq + 24
        0x00000cdc:    4630        0F      MOV      r0,r6
        0x00000cde:    bd70        p.      POP      {r4-r6,pc}
        0x00000ce0:    0870        p.      LSRS     r0,r6,#1
        0x00000ce2:    4629        )F      MOV      r1,r5
        0x00000ce4:    f006f87a    ..z.    BL       __aeabi_uidiv ; 0x6ddc
        0x00000ce8:    e7f9        ..      B        0xcde ; DrvSPI_GetClock1Freq + 22
    DrvSPI_GetClock2Freq
        0x00000cea:    b570        p.      PUSH     {r4-r6,lr}
        0x00000cec:    4604        .F      MOV      r4,r0
        0x00000cee:    4620         F      MOV      r0,r4
        0x00000cf0:    f7ffff48    ..H.    BL       DrvSPI_GetSourceClockFreq ; 0xb84
        0x00000cf4:    4606        .F      MOV      r6,r0
        0x00000cf6:    6860        `h      LDR      r0,[r4,#4]
        0x00000cf8:    21ff        .!      MOVS     r1,#0xff
        0x00000cfa:    0409        ..      LSLS     r1,r1,#16
        0x00000cfc:    4008        .@      ANDS     r0,r0,r1
        0x00000cfe:    0c05        ..      LSRS     r5,r0,#16
        0x00000d00:    0870        p.      LSRS     r0,r6,#1
        0x00000d02:    1c69        i.      ADDS     r1,r5,#1
        0x00000d04:    f006f86a    ..j.    BL       __aeabi_uidiv ; 0x6ddc
        0x00000d08:    bd70        p.      POP      {r4-r6,pc}
    DrvSPI_EnableInt
        0x00000d0a:    b510        ..      PUSH     {r4,lr}
        0x00000d0c:    4604        .F      MOV      r4,r0
        0x00000d0e:    bf00        ..      NOP      
        0x00000d10:    6820         h      LDR      r0,[r4,#0]
        0x00000d12:    2101        .!      MOVS     r1,#1
        0x00000d14:    0449        I.      LSLS     r1,r1,#17
        0x00000d16:    4308        .C      ORRS     r0,r0,r1
        0x00000d18:    6020         `      STR      r0,[r4,#0]
        0x00000d1a:    bf00        ..      NOP      
        0x00000d1c:    4843        CH      LDR      r0,[pc,#268] ; [0xe2c] = 0x40030000
        0x00000d1e:    4284        .B      CMP      r4,r0
        0x00000d20:    d103        ..      BNE      0xd2a ; DrvSPI_EnableInt + 32
        0x00000d22:    200e        .       MOVS     r0,#0xe
        0x00000d24:    f000f99e    ....    BL       NVIC_EnableIRQ ; 0x1064
        0x00000d28:    e00c        ..      B        0xd44 ; DrvSPI_EnableInt + 58
        0x00000d2a:    4841        AH      LDR      r0,[pc,#260] ; [0xe30] = 0x40034000
        0x00000d2c:    4284        .B      CMP      r4,r0
        0x00000d2e:    d103        ..      BNE      0xd38 ; DrvSPI_EnableInt + 46
        0x00000d30:    200f        .       MOVS     r0,#0xf
        0x00000d32:    f000f997    ....    BL       NVIC_EnableIRQ ; 0x1064
        0x00000d36:    e005        ..      B        0xd44 ; DrvSPI_EnableInt + 58
        0x00000d38:    483e        >H      LDR      r0,[pc,#248] ; [0xe34] = 0x40130000
        0x00000d3a:    4284        .B      CMP      r4,r0
        0x00000d3c:    d102        ..      BNE      0xd44 ; DrvSPI_EnableInt + 58
        0x00000d3e:    2010        .       MOVS     r0,#0x10
        0x00000d40:    f000f990    ....    BL       NVIC_EnableIRQ ; 0x1064
        0x00000d44:    bd10        ..      POP      {r4,pc}
    DrvSPI_DisableInt
        0x00000d46:    b510        ..      PUSH     {r4,lr}
        0x00000d48:    4604        .F      MOV      r4,r0
        0x00000d4a:    bf00        ..      NOP      
        0x00000d4c:    6820         h      LDR      r0,[r4,#0]
        0x00000d4e:    2101        .!      MOVS     r1,#1
        0x00000d50:    0449        I.      LSLS     r1,r1,#17
        0x00000d52:    4388        .C      BICS     r0,r0,r1
        0x00000d54:    6020         `      STR      r0,[r4,#0]
        0x00000d56:    bf00        ..      NOP      
        0x00000d58:    4834        4H      LDR      r0,[pc,#208] ; [0xe2c] = 0x40030000
        0x00000d5a:    4284        .B      CMP      r4,r0
        0x00000d5c:    d103        ..      BNE      0xd66 ; DrvSPI_DisableInt + 32
        0x00000d5e:    200e        .       MOVS     r0,#0xe
        0x00000d60:    f000f987    ....    BL       NVIC_DisableIRQ ; 0x1072
        0x00000d64:    e00c        ..      B        0xd80 ; DrvSPI_DisableInt + 58
        0x00000d66:    4832        2H      LDR      r0,[pc,#200] ; [0xe30] = 0x40034000
        0x00000d68:    4284        .B      CMP      r4,r0
        0x00000d6a:    d103        ..      BNE      0xd74 ; DrvSPI_DisableInt + 46
        0x00000d6c:    200f        .       MOVS     r0,#0xf
        0x00000d6e:    f000f980    ....    BL       NVIC_DisableIRQ ; 0x1072
        0x00000d72:    e005        ..      B        0xd80 ; DrvSPI_DisableInt + 58
        0x00000d74:    482f        /H      LDR      r0,[pc,#188] ; [0xe34] = 0x40130000
        0x00000d76:    4284        .B      CMP      r4,r0
        0x00000d78:    d102        ..      BNE      0xd80 ; DrvSPI_DisableInt + 58
        0x00000d7a:    2010        .       MOVS     r0,#0x10
        0x00000d7c:    f000f979    ..y.    BL       NVIC_DisableIRQ ; 0x1072
        0x00000d80:    bd10        ..      POP      {r4,pc}
    SPI_Enable3WireStartInt
        0x00000d82:    b510        ..      PUSH     {r4,lr}
        0x00000d84:    4604        .F      MOV      r4,r0
        0x00000d86:    bf00        ..      NOP      
        0x00000d88:    6be0        .k      LDR      r0,[r4,#0x3c]
        0x00000d8a:    2101        .!      MOVS     r1,#1
        0x00000d8c:    0289        ..      LSLS     r1,r1,#10
        0x00000d8e:    4308        .C      ORRS     r0,r0,r1
        0x00000d90:    63e0        .c      STR      r0,[r4,#0x3c]
        0x00000d92:    bf00        ..      NOP      
        0x00000d94:    4825        %H      LDR      r0,[pc,#148] ; [0xe2c] = 0x40030000
        0x00000d96:    4284        .B      CMP      r4,r0
        0x00000d98:    d103        ..      BNE      0xda2 ; SPI_Enable3WireStartInt + 32
        0x00000d9a:    200e        .       MOVS     r0,#0xe
        0x00000d9c:    f000f962    ..b.    BL       NVIC_EnableIRQ ; 0x1064
        0x00000da0:    e00c        ..      B        0xdbc ; SPI_Enable3WireStartInt + 58
        0x00000da2:    4823        #H      LDR      r0,[pc,#140] ; [0xe30] = 0x40034000
        0x00000da4:    4284        .B      CMP      r4,r0
        0x00000da6:    d103        ..      BNE      0xdb0 ; SPI_Enable3WireStartInt + 46
        0x00000da8:    200f        .       MOVS     r0,#0xf
        0x00000daa:    f000f95b    ..[.    BL       NVIC_EnableIRQ ; 0x1064
        0x00000dae:    e005        ..      B        0xdbc ; SPI_Enable3WireStartInt + 58
        0x00000db0:    4820         H      LDR      r0,[pc,#128] ; [0xe34] = 0x40130000
        0x00000db2:    4284        .B      CMP      r4,r0
        0x00000db4:    d102        ..      BNE      0xdbc ; SPI_Enable3WireStartInt + 58
        0x00000db6:    2010        .       MOVS     r0,#0x10
        0x00000db8:    f000f954    ..T.    BL       NVIC_EnableIRQ ; 0x1064
        0x00000dbc:    bd10        ..      POP      {r4,pc}
    SPI_Disable3WireStartInt
        0x00000dbe:    b510        ..      PUSH     {r4,lr}
        0x00000dc0:    4604        .F      MOV      r4,r0
        0x00000dc2:    bf00        ..      NOP      
        0x00000dc4:    6be0        .k      LDR      r0,[r4,#0x3c]
        0x00000dc6:    2101        .!      MOVS     r1,#1
        0x00000dc8:    0289        ..      LSLS     r1,r1,#10
        0x00000dca:    4388        .C      BICS     r0,r0,r1
        0x00000dcc:    63e0        .c      STR      r0,[r4,#0x3c]
        0x00000dce:    bf00        ..      NOP      
        0x00000dd0:    4816        .H      LDR      r0,[pc,#88] ; [0xe2c] = 0x40030000
        0x00000dd2:    4284        .B      CMP      r4,r0
        0x00000dd4:    d103        ..      BNE      0xdde ; SPI_Disable3WireStartInt + 32
        0x00000dd6:    200e        .       MOVS     r0,#0xe
        0x00000dd8:    f000f94b    ..K.    BL       NVIC_DisableIRQ ; 0x1072
        0x00000ddc:    e00c        ..      B        0xdf8 ; SPI_Disable3WireStartInt + 58
        0x00000dde:    4814        .H      LDR      r0,[pc,#80] ; [0xe30] = 0x40034000
        0x00000de0:    4284        .B      CMP      r4,r0
        0x00000de2:    d103        ..      BNE      0xdec ; SPI_Disable3WireStartInt + 46
        0x00000de4:    200f        .       MOVS     r0,#0xf
        0x00000de6:    f000f944    ..D.    BL       NVIC_DisableIRQ ; 0x1072
        0x00000dea:    e005        ..      B        0xdf8 ; SPI_Disable3WireStartInt + 58
        0x00000dec:    4811        .H      LDR      r0,[pc,#68] ; [0xe34] = 0x40130000
        0x00000dee:    4284        .B      CMP      r4,r0
        0x00000df0:    d102        ..      BNE      0xdf8 ; SPI_Disable3WireStartInt + 58
        0x00000df2:    2010        .       MOVS     r0,#0x10
        0x00000df4:    f000f93d    ..=.    BL       NVIC_DisableIRQ ; 0x1072
        0x00000df8:    bd10        ..      POP      {r4,pc}
    SPI_SetFIFOMode
        0x00000dfa:    bf00        ..      NOP      
        0x00000dfc:    6802        .h      LDR      r2,[r0,#0]
        0x00000dfe:    230f        .#      MOVS     r3,#0xf
        0x00000e00:    031b        ..      LSLS     r3,r3,#12
        0x00000e02:    439a        .C      BICS     r2,r2,r3
        0x00000e04:    030b        ..      LSLS     r3,r1,#12
        0x00000e06:    431a        .C      ORRS     r2,r2,r3
        0x00000e08:    6002        .`      STR      r2,[r0,#0]
        0x00000e0a:    bf00        ..      NOP      
        0x00000e0c:    bf00        ..      NOP      
        0x00000e0e:    6802        .h      LDR      r2,[r0,#0]
        0x00000e10:    2301        .#      MOVS     r3,#1
        0x00000e12:    055b        [.      LSLS     r3,r3,#21
        0x00000e14:    431a        .C      ORRS     r2,r2,r3
        0x00000e16:    6002        .`      STR      r2,[r0,#0]
        0x00000e18:    bf00        ..      NOP      
        0x00000e1a:    4770        pG      BX       lr
    $d
        0x00000e1c:    04020201    ....    DCD    67240449
        0x00000e20:    50000200    ...P    DCD    1342177792
        0x00000e24:    01518000    ..Q.    DCD    22118400
        0x00000e28:    00b71b00    ....    DCD    12000000
        0x00000e2c:    40030000    ...@    DCD    1073938432
        0x00000e30:    40034000    .@.@    DCD    1073954816
        0x00000e34:    40130000    ...@    DCD    1074987008
        0x00000e38:    00002710    .'..    DCD    10000
    $t
    DrvSPI_FIFOWrite8
        0x00000e3c:    b5f8        ..      PUSH     {r3-r7,lr}
        0x00000e3e:    4605        .F      MOV      r5,r0
        0x00000e40:    460e        .F      MOV      r6,r1
        0x00000e42:    4617        .F      MOV      r7,r2
        0x00000e44:    2400        .$      MOVS     r4,#0
        0x00000e46:    e008        ..      B        0xe5a ; DrvSPI_FIFOWrite8 + 30
        0x00000e48:    bf00        ..      NOP      
        0x00000e4a:    4628        (F      MOV      r0,r5
        0x00000e4c:    f000f925    ..%.    BL       SPI_GET_TX_FULL ; 0x109a
        0x00000e50:    2800        .(      CMP      r0,#0
        0x00000e52:    d1fa        ..      BNE      0xe4a ; DrvSPI_FIFOWrite8 + 14
        0x00000e54:    5d30        0]      LDRB     r0,[r6,r4]
        0x00000e56:    6228        (b      STR      r0,[r5,#0x20]
        0x00000e58:    1c64        d.      ADDS     r4,r4,#1
        0x00000e5a:    42bc        .B      CMP      r4,r7
        0x00000e5c:    d3f4        ..      BCC      0xe48 ; DrvSPI_FIFOWrite8 + 12
        0x00000e5e:    2001        .       MOVS     r0,#1
        0x00000e60:    bdf8        ..      POP      {r3-r7,pc}
    SPI_FIFOWrite16
        0x00000e62:    b5f8        ..      PUSH     {r3-r7,lr}
        0x00000e64:    4605        .F      MOV      r5,r0
        0x00000e66:    460e        .F      MOV      r6,r1
        0x00000e68:    4617        .F      MOV      r7,r2
        0x00000e6a:    2400        .$      MOVS     r4,#0
        0x00000e6c:    e009        ..      B        0xe82 ; SPI_FIFOWrite16 + 32
        0x00000e6e:    bf00        ..      NOP      
        0x00000e70:    4628        (F      MOV      r0,r5
        0x00000e72:    f000f912    ....    BL       SPI_GET_TX_FULL ; 0x109a
        0x00000e76:    2800        .(      CMP      r0,#0
        0x00000e78:    d1fa        ..      BNE      0xe70 ; SPI_FIFOWrite16 + 14
        0x00000e7a:    0060        `.      LSLS     r0,r4,#1
        0x00000e7c:    5a30        0Z      LDRH     r0,[r6,r0]
        0x00000e7e:    6228        (b      STR      r0,[r5,#0x20]
        0x00000e80:    1c64        d.      ADDS     r4,r4,#1
        0x00000e82:    42bc        .B      CMP      r4,r7
        0x00000e84:    d3f3        ..      BCC      0xe6e ; SPI_FIFOWrite16 + 12
        0x00000e86:    2001        .       MOVS     r0,#1
        0x00000e88:    bdf8        ..      POP      {r3-r7,pc}
    SPI_FIFOWrite32
        0x00000e8a:    b5f8        ..      PUSH     {r3-r7,lr}
        0x00000e8c:    4605        .F      MOV      r5,r0
        0x00000e8e:    460e        .F      MOV      r6,r1
        0x00000e90:    4617        .F      MOV      r7,r2
        0x00000e92:    2400        .$      MOVS     r4,#0
        0x00000e94:    e009        ..      B        0xeaa ; SPI_FIFOWrite32 + 32
        0x00000e96:    bf00        ..      NOP      
        0x00000e98:    4628        (F      MOV      r0,r5
        0x00000e9a:    f000f8fe    ....    BL       SPI_GET_TX_FULL ; 0x109a
        0x00000e9e:    2800        .(      CMP      r0,#0
        0x00000ea0:    d1fa        ..      BNE      0xe98 ; SPI_FIFOWrite32 + 14
        0x00000ea2:    00a0        ..      LSLS     r0,r4,#2
        0x00000ea4:    5830        0X      LDR      r0,[r6,r0]
        0x00000ea6:    6228        (b      STR      r0,[r5,#0x20]
        0x00000ea8:    1c64        d.      ADDS     r4,r4,#1
        0x00000eaa:    42bc        .B      CMP      r4,r7
        0x00000eac:    d3f3        ..      BCC      0xe96 ; SPI_FIFOWrite32 + 12
        0x00000eae:    2001        .       MOVS     r0,#1
        0x00000eb0:    bdf8        ..      POP      {r3-r7,pc}
    SPI_FIFORead8
        0x00000eb2:    b5f8        ..      PUSH     {r3-r7,lr}
        0x00000eb4:    4605        .F      MOV      r5,r0
        0x00000eb6:    460e        .F      MOV      r6,r1
        0x00000eb8:    4617        .F      MOV      r7,r2
        0x00000eba:    2400        .$      MOVS     r4,#0
        0x00000ebc:    e008        ..      B        0xed0 ; SPI_FIFORead8 + 30
        0x00000ebe:    bf00        ..      NOP      
        0x00000ec0:    4628        (F      MOV      r0,r5
        0x00000ec2:    f000f8f0    ....    BL       SPI_GET_RX_EMPTY ; 0x10a6
        0x00000ec6:    2800        .(      CMP      r0,#0
        0x00000ec8:    d1fa        ..      BNE      0xec0 ; SPI_FIFORead8 + 14
        0x00000eca:    6928        (i      LDR      r0,[r5,#0x10]
        0x00000ecc:    5530        0U      STRB     r0,[r6,r4]
        0x00000ece:    1c64        d.      ADDS     r4,r4,#1
        0x00000ed0:    42bc        .B      CMP      r4,r7
        0x00000ed2:    d3f4        ..      BCC      0xebe ; SPI_FIFORead8 + 12
        0x00000ed4:    2001        .       MOVS     r0,#1
        0x00000ed6:    bdf8        ..      POP      {r3-r7,pc}
    SPI_FIFORead16
        0x00000ed8:    b5f8        ..      PUSH     {r3-r7,lr}
        0x00000eda:    4605        .F      MOV      r5,r0
        0x00000edc:    460e        .F      MOV      r6,r1
        0x00000ede:    4617        .F      MOV      r7,r2
        0x00000ee0:    2400        .$      MOVS     r4,#0
        0x00000ee2:    e009        ..      B        0xef8 ; SPI_FIFORead16 + 32
        0x00000ee4:    bf00        ..      NOP      
        0x00000ee6:    4628        (F      MOV      r0,r5
        0x00000ee8:    f000f8dd    ....    BL       SPI_GET_RX_EMPTY ; 0x10a6
        0x00000eec:    2800        .(      CMP      r0,#0
        0x00000eee:    d1fa        ..      BNE      0xee6 ; SPI_FIFORead16 + 14
        0x00000ef0:    6928        (i      LDR      r0,[r5,#0x10]
        0x00000ef2:    0061        a.      LSLS     r1,r4,#1
        0x00000ef4:    5270        pR      STRH     r0,[r6,r1]
        0x00000ef6:    1c64        d.      ADDS     r4,r4,#1
        0x00000ef8:    42bc        .B      CMP      r4,r7
        0x00000efa:    d3f3        ..      BCC      0xee4 ; SPI_FIFORead16 + 12
        0x00000efc:    2001        .       MOVS     r0,#1
        0x00000efe:    bdf8        ..      POP      {r3-r7,pc}
    SPI_FIFORead32
        0x00000f00:    b5f8        ..      PUSH     {r3-r7,lr}
        0x00000f02:    4605        .F      MOV      r5,r0
        0x00000f04:    460e        .F      MOV      r6,r1
        0x00000f06:    4617        .F      MOV      r7,r2
        0x00000f08:    2400        .$      MOVS     r4,#0
        0x00000f0a:    e009        ..      B        0xf20 ; SPI_FIFORead32 + 32
        0x00000f0c:    bf00        ..      NOP      
        0x00000f0e:    4628        (F      MOV      r0,r5
        0x00000f10:    f000f8c9    ....    BL       SPI_GET_RX_EMPTY ; 0x10a6
        0x00000f14:    2800        .(      CMP      r0,#0
        0x00000f16:    d1fa        ..      BNE      0xf0e ; SPI_FIFORead32 + 14
        0x00000f18:    6928        (i      LDR      r0,[r5,#0x10]
        0x00000f1a:    00a1        ..      LSLS     r1,r4,#2
        0x00000f1c:    5070        pP      STR      r0,[r6,r1]
        0x00000f1e:    1c64        d.      ADDS     r4,r4,#1
        0x00000f20:    42bc        .B      CMP      r4,r7
        0x00000f22:    d3f3        ..      BCC      0xf0c ; SPI_FIFORead32 + 12
        0x00000f24:    2001        .       MOVS     r0,#1
        0x00000f26:    bdf8        ..      POP      {r3-r7,pc}
    SPI_FIFOReadWrite8
        0x00000f28:    b5ff        ..      PUSH     {r0-r7,lr}
        0x00000f2a:    b081        ..      SUB      sp,sp,#4
        0x00000f2c:    4604        .F      MOV      r4,r0
        0x00000f2e:    460d        .F      MOV      r5,r1
        0x00000f30:    4616        .F      MOV      r6,r2
        0x00000f32:    2000        .       MOVS     r0,#0
        0x00000f34:    9000        ..      STR      r0,[sp,#0]
        0x00000f36:    2700        .'      MOVS     r7,#0
        0x00000f38:    e025        %.      B        0xf86 ; SPI_FIFOReadWrite8 + 94
        0x00000f3a:    e00b        ..      B        0xf54 ; SPI_FIFOReadWrite8 + 44
        0x00000f3c:    e005        ..      B        0xf4a ; SPI_FIFOReadWrite8 + 34
        0x00000f3e:    6920         i      LDR      r0,[r4,#0x10]
        0x00000f40:    b2c2        ..      UXTB     r2,r0
        0x00000f42:    9800        ..      LDR      r0,[sp,#0]
        0x00000f44:    1c41        A.      ADDS     r1,r0,#1
        0x00000f46:    9100        ..      STR      r1,[sp,#0]
        0x00000f48:    5432        2T      STRB     r2,[r6,r0]
        0x00000f4a:    4620         F      MOV      r0,r4
        0x00000f4c:    f000f8ab    ....    BL       SPI_GET_RX_EMPTY ; 0x10a6
        0x00000f50:    2800        .(      CMP      r0,#0
        0x00000f52:    d0f4        ..      BEQ      0xf3e ; SPI_FIFOReadWrite8 + 22
        0x00000f54:    4620         F      MOV      r0,r4
        0x00000f56:    f000f8a0    ....    BL       SPI_GET_TX_FULL ; 0x109a
        0x00000f5a:    2800        .(      CMP      r0,#0
        0x00000f5c:    d1ee        ..      BNE      0xf3c ; SPI_FIFOReadWrite8 + 20
        0x00000f5e:    2d00        .-      CMP      r5,#0
        0x00000f60:    d102        ..      BNE      0xf68 ; SPI_FIFOReadWrite8 + 64
        0x00000f62:    1e40        @.      SUBS     r0,r0,#1
        0x00000f64:    6220         b      STR      r0,[r4,#0x20]
        0x00000f66:    e001        ..      B        0xf6c ; SPI_FIFOReadWrite8 + 68
        0x00000f68:    5de8        .]      LDRB     r0,[r5,r7]
        0x00000f6a:    6220         b      STR      r0,[r4,#0x20]
        0x00000f6c:    e005        ..      B        0xf7a ; SPI_FIFOReadWrite8 + 82
        0x00000f6e:    6920         i      LDR      r0,[r4,#0x10]
        0x00000f70:    b2c2        ..      UXTB     r2,r0
        0x00000f72:    9800        ..      LDR      r0,[sp,#0]
        0x00000f74:    1c41        A.      ADDS     r1,r0,#1
        0x00000f76:    9100        ..      STR      r1,[sp,#0]
        0x00000f78:    5432        2T      STRB     r2,[r6,r0]
        0x00000f7a:    4620         F      MOV      r0,r4
        0x00000f7c:    f000f893    ....    BL       SPI_GET_RX_EMPTY ; 0x10a6
        0x00000f80:    2800        .(      CMP      r0,#0
        0x00000f82:    d0f4        ..      BEQ      0xf6e ; SPI_FIFOReadWrite8 + 70
        0x00000f84:    1c7f        ..      ADDS     r7,r7,#1
        0x00000f86:    9804        ..      LDR      r0,[sp,#0x10]
        0x00000f88:    4287        .B      CMP      r7,r0
        0x00000f8a:    d3d6        ..      BCC      0xf3a ; SPI_FIFOReadWrite8 + 18
        0x00000f8c:    b005        ..      ADD      sp,sp,#0x14
        0x00000f8e:    bdf0        ..      POP      {r4-r7,pc}
    SPI_FIFOReadWrite16
        0x00000f90:    b5ff        ..      PUSH     {r0-r7,lr}
        0x00000f92:    b081        ..      SUB      sp,sp,#4
        0x00000f94:    4604        .F      MOV      r4,r0
        0x00000f96:    460d        .F      MOV      r5,r1
        0x00000f98:    4616        .F      MOV      r6,r2
        0x00000f9a:    2000        .       MOVS     r0,#0
        0x00000f9c:    9000        ..      STR      r0,[sp,#0]
        0x00000f9e:    2700        .'      MOVS     r7,#0
        0x00000fa0:    e026        &.      B        0xff0 ; SPI_FIFOReadWrite16 + 96
        0x00000fa2:    e00b        ..      B        0xfbc ; SPI_FIFOReadWrite16 + 44
        0x00000fa4:    e005        ..      B        0xfb2 ; SPI_FIFOReadWrite16 + 34
        0x00000fa6:    6922        "i      LDR      r2,[r4,#0x10]
        0x00000fa8:    9800        ..      LDR      r0,[sp,#0]
        0x00000faa:    1c41        A.      ADDS     r1,r0,#1
        0x00000fac:    0080        ..      LSLS     r0,r0,#2
        0x00000fae:    9100        ..      STR      r1,[sp,#0]
        0x00000fb0:    5032        2P      STR      r2,[r6,r0]
        0x00000fb2:    4620         F      MOV      r0,r4
        0x00000fb4:    f000f877    ..w.    BL       SPI_GET_RX_EMPTY ; 0x10a6
        0x00000fb8:    2800        .(      CMP      r0,#0
        0x00000fba:    d0f4        ..      BEQ      0xfa6 ; SPI_FIFOReadWrite16 + 22
        0x00000fbc:    4620         F      MOV      r0,r4
        0x00000fbe:    f000f86c    ..l.    BL       SPI_GET_TX_FULL ; 0x109a
        0x00000fc2:    2800        .(      CMP      r0,#0
        0x00000fc4:    d1ee        ..      BNE      0xfa4 ; SPI_FIFOReadWrite16 + 20
        0x00000fc6:    2d00        .-      CMP      r5,#0
        0x00000fc8:    d102        ..      BNE      0xfd0 ; SPI_FIFOReadWrite16 + 64
        0x00000fca:    1e40        @.      SUBS     r0,r0,#1
        0x00000fcc:    6220         b      STR      r0,[r4,#0x20]
        0x00000fce:    e002        ..      B        0xfd6 ; SPI_FIFOReadWrite16 + 70
        0x00000fd0:    0078        x.      LSLS     r0,r7,#1
        0x00000fd2:    5a28        (Z      LDRH     r0,[r5,r0]
        0x00000fd4:    6220         b      STR      r0,[r4,#0x20]
        0x00000fd6:    e005        ..      B        0xfe4 ; SPI_FIFOReadWrite16 + 84
        0x00000fd8:    6922        "i      LDR      r2,[r4,#0x10]
        0x00000fda:    9800        ..      LDR      r0,[sp,#0]
        0x00000fdc:    1c41        A.      ADDS     r1,r0,#1
        0x00000fde:    0080        ..      LSLS     r0,r0,#2
        0x00000fe0:    9100        ..      STR      r1,[sp,#0]
        0x00000fe2:    5032        2P      STR      r2,[r6,r0]
        0x00000fe4:    4620         F      MOV      r0,r4
        0x00000fe6:    f000f85e    ..^.    BL       SPI_GET_RX_EMPTY ; 0x10a6
        0x00000fea:    2800        .(      CMP      r0,#0
        0x00000fec:    d0f4        ..      BEQ      0xfd8 ; SPI_FIFOReadWrite16 + 72
        0x00000fee:    1c7f        ..      ADDS     r7,r7,#1
        0x00000ff0:    9804        ..      LDR      r0,[sp,#0x10]
        0x00000ff2:    4287        .B      CMP      r7,r0
        0x00000ff4:    d3d5        ..      BCC      0xfa2 ; SPI_FIFOReadWrite16 + 18
        0x00000ff6:    b005        ..      ADD      sp,sp,#0x14
        0x00000ff8:    bdf0        ..      POP      {r4-r7,pc}
    SPI_FIFOReadWrite32
        0x00000ffa:    b5ff        ..      PUSH     {r0-r7,lr}
        0x00000ffc:    b081        ..      SUB      sp,sp,#4
        0x00000ffe:    4604        .F      MOV      r4,r0
        0x00001000:    460d        .F      MOV      r5,r1
        0x00001002:    4616        .F      MOV      r6,r2
        0x00001004:    2000        .       MOVS     r0,#0
        0x00001006:    9000        ..      STR      r0,[sp,#0]
        0x00001008:    2700        .'      MOVS     r7,#0
        0x0000100a:    e026        &.      B        0x105a ; SPI_FIFOReadWrite32 + 96
        0x0000100c:    e00b        ..      B        0x1026 ; SPI_FIFOReadWrite32 + 44
        0x0000100e:    e005        ..      B        0x101c ; SPI_FIFOReadWrite32 + 34
        0x00001010:    6922        "i      LDR      r2,[r4,#0x10]
        0x00001012:    9800        ..      LDR      r0,[sp,#0]
        0x00001014:    1c41        A.      ADDS     r1,r0,#1
        0x00001016:    0080        ..      LSLS     r0,r0,#2
        0x00001018:    9100        ..      STR      r1,[sp,#0]
        0x0000101a:    5032        2P      STR      r2,[r6,r0]
        0x0000101c:    4620         F      MOV      r0,r4
        0x0000101e:    f000f842    ..B.    BL       SPI_GET_RX_EMPTY ; 0x10a6
        0x00001022:    2800        .(      CMP      r0,#0
        0x00001024:    d0f4        ..      BEQ      0x1010 ; SPI_FIFOReadWrite32 + 22
        0x00001026:    4620         F      MOV      r0,r4
        0x00001028:    f000f837    ..7.    BL       SPI_GET_TX_FULL ; 0x109a
        0x0000102c:    2800        .(      CMP      r0,#0
        0x0000102e:    d1ee        ..      BNE      0x100e ; SPI_FIFOReadWrite32 + 20
        0x00001030:    2d00        .-      CMP      r5,#0
        0x00001032:    d102        ..      BNE      0x103a ; SPI_FIFOReadWrite32 + 64
        0x00001034:    1e40        @.      SUBS     r0,r0,#1
        0x00001036:    6220         b      STR      r0,[r4,#0x20]
        0x00001038:    e002        ..      B        0x1040 ; SPI_FIFOReadWrite32 + 70
        0x0000103a:    00b8        ..      LSLS     r0,r7,#2
        0x0000103c:    5828        (X      LDR      r0,[r5,r0]
        0x0000103e:    6220         b      STR      r0,[r4,#0x20]
        0x00001040:    e005        ..      B        0x104e ; SPI_FIFOReadWrite32 + 84
        0x00001042:    6922        "i      LDR      r2,[r4,#0x10]
        0x00001044:    9800        ..      LDR      r0,[sp,#0]
        0x00001046:    1c41        A.      ADDS     r1,r0,#1
        0x00001048:    0080        ..      LSLS     r0,r0,#2
        0x0000104a:    9100        ..      STR      r1,[sp,#0]
        0x0000104c:    5032        2P      STR      r2,[r6,r0]
        0x0000104e:    4620         F      MOV      r0,r4
        0x00001050:    f000f829    ..).    BL       SPI_GET_RX_EMPTY ; 0x10a6
        0x00001054:    2800        .(      CMP      r0,#0
        0x00001056:    d0f4        ..      BEQ      0x1042 ; SPI_FIFOReadWrite32 + 72
        0x00001058:    1c7f        ..      ADDS     r7,r7,#1
        0x0000105a:    9804        ..      LDR      r0,[sp,#0x10]
        0x0000105c:    4287        .B      CMP      r7,r0
        0x0000105e:    d3d5        ..      BCC      0x100c ; SPI_FIFOReadWrite32 + 18
        0x00001060:    b005        ..      ADD      sp,sp,#0x14
        0x00001062:    bdf0        ..      POP      {r4-r7,pc}
    NVIC_EnableIRQ
        0x00001064:    06c2        ..      LSLS     r2,r0,#27
        0x00001066:    0ed2        ..      LSRS     r2,r2,#27
        0x00001068:    2101        .!      MOVS     r1,#1
        0x0000106a:    4091        .@      LSLS     r1,r1,r2
        0x0000106c:    4a17        .J      LDR      r2,[pc,#92] ; [0x10cc] = 0xe000e100
        0x0000106e:    6011        .`      STR      r1,[r2,#0]
        0x00001070:    4770        pG      BX       lr
    NVIC_DisableIRQ
        0x00001072:    06c2        ..      LSLS     r2,r0,#27
        0x00001074:    0ed2        ..      LSRS     r2,r2,#27
        0x00001076:    2101        .!      MOVS     r1,#1
        0x00001078:    4091        .@      LSLS     r1,r1,r2
        0x0000107a:    4a14        .J      LDR      r2,[pc,#80] ; [0x10cc] = 0xe000e100
        0x0000107c:    3280        .2      ADDS     r2,r2,#0x80
        0x0000107e:    6011        .`      STR      r1,[r2,#0]
        0x00001080:    4770        pG      BX       lr
    APBCLK_ENABLE
        0x00001082:    4913        .I      LDR      r1,[pc,#76] ; [0x10d0] = 0x50000200
        0x00001084:    6889        .h      LDR      r1,[r1,#8]
        0x00001086:    4301        .C      ORRS     r1,r1,r0
        0x00001088:    4a11        .J      LDR      r2,[pc,#68] ; [0x10d0] = 0x50000200
        0x0000108a:    6091        .`      STR      r1,[r2,#8]
        0x0000108c:    4770        pG      BX       lr
    APBCLK_DISABLE
        0x0000108e:    4910        .I      LDR      r1,[pc,#64] ; [0x10d0] = 0x50000200
        0x00001090:    6889        .h      LDR      r1,[r1,#8]
        0x00001092:    4381        .C      BICS     r1,r1,r0
        0x00001094:    4a0e        .J      LDR      r2,[pc,#56] ; [0x10d0] = 0x50000200
        0x00001096:    6091        .`      STR      r1,[r2,#8]
        0x00001098:    4770        pG      BX       lr
    SPI_GET_TX_FULL
        0x0000109a:    4601        .F      MOV      r1,r0
        0x0000109c:    6808        .h      LDR      r0,[r1,#0]
        0x0000109e:    2201        ."      MOVS     r2,#1
        0x000010a0:    06d2        ..      LSLS     r2,r2,#27
        0x000010a2:    4010        .@      ANDS     r0,r0,r2
        0x000010a4:    4770        pG      BX       lr
    SPI_GET_RX_EMPTY
        0x000010a6:    4601        .F      MOV      r1,r0
        0x000010a8:    6808        .h      LDR      r0,[r1,#0]
        0x000010aa:    2201        ."      MOVS     r2,#1
        0x000010ac:    0612        ..      LSLS     r2,r2,#24
        0x000010ae:    4010        .@      ANDS     r0,r0,r2
        0x000010b0:    4770        pG      BX       lr
    SYS_RESET_IP2
        0x000010b2:    2105        .!      MOVS     r1,#5
        0x000010b4:    0709        ..      LSLS     r1,r1,#28
        0x000010b6:    68c9        .h      LDR      r1,[r1,#0xc]
        0x000010b8:    4301        .C      ORRS     r1,r1,r0
        0x000010ba:    2205        ."      MOVS     r2,#5
        0x000010bc:    0712        ..      LSLS     r2,r2,#28
        0x000010be:    60d1        .`      STR      r1,[r2,#0xc]
        0x000010c0:    4611        .F      MOV      r1,r2
        0x000010c2:    68c9        .h      LDR      r1,[r1,#0xc]
        0x000010c4:    4381        .C      BICS     r1,r1,r0
        0x000010c6:    60d1        .`      STR      r1,[r2,#0xc]
        0x000010c8:    4770        pG      BX       lr
    $d
        0x000010ca:    0000        ..      DCW    0
        0x000010cc:    e000e100    ....    DCD    3758153984
        0x000010d0:    50000200    ...P    DCD    1342177792
    $t
    .text
    DrvTIMER_Init
        0x000010d4:    b5f8        ..      PUSH     {r3-r7,lr}
        0x000010d6:    4604        .F      MOV      r4,r0
        0x000010d8:    460d        .F      MOV      r5,r1
        0x000010da:    4616        .F      MOV      r6,r2
        0x000010dc:    461f        .F      MOV      r7,r3
        0x000010de:    48b6        .H      LDR      r0,[pc,#728] ; [0x13b8] = 0x40010000
        0x000010e0:    4284        .B      CMP      r4,r0
        0x000010e2:    d103        ..      BNE      0x10ec ; DrvTIMER_Init + 24
        0x000010e4:    2004        .       MOVS     r0,#4
        0x000010e6:    f000f948    ..H.    BL       APBCLK_ENABLE ; 0x137a
        0x000010ea:    e011        ..      B        0x1110 ; DrvTIMER_Init + 60
        0x000010ec:    48b2        .H      LDR      r0,[pc,#712] ; [0x13b8] = 0x40010000
        0x000010ee:    3020         0      ADDS     r0,r0,#0x20
        0x000010f0:    4284        .B      CMP      r4,r0
        0x000010f2:    d103        ..      BNE      0x10fc ; DrvTIMER_Init + 40
        0x000010f4:    2008        .       MOVS     r0,#8
        0x000010f6:    f000f940    ..@.    BL       APBCLK_ENABLE ; 0x137a
        0x000010fa:    e009        ..      B        0x1110 ; DrvTIMER_Init + 60
        0x000010fc:    48af        .H      LDR      r0,[pc,#700] ; [0x13bc] = 0x40110000
        0x000010fe:    4284        .B      CMP      r4,r0
        0x00001100:    d103        ..      BNE      0x110a ; DrvTIMER_Init + 54
        0x00001102:    2010        .       MOVS     r0,#0x10
        0x00001104:    f000f939    ..9.    BL       APBCLK_ENABLE ; 0x137a
        0x00001108:    e002        ..      B        0x1110 ; DrvTIMER_Init + 60
        0x0000110a:    2020                MOVS     r0,#0x20
        0x0000110c:    f000f935    ..5.    BL       APBCLK_ENABLE ; 0x137a
        0x00001110:    68a0        .h      LDR      r0,[r4,#8]
        0x00001112:    2103        .!      MOVS     r1,#3
        0x00001114:    4308        .C      ORRS     r0,r0,r1
        0x00001116:    60a0        .`      STR      r0,[r4,#8]
        0x00001118:    69a0        .i      LDR      r0,[r4,#0x18]
        0x0000111a:    2101        .!      MOVS     r1,#1
        0x0000111c:    4308        .C      ORRS     r0,r0,r1
        0x0000111e:    61a0        .a      STR      r0,[r4,#0x18]
        0x00001120:    6066        f`      STR      r6,[r4,#4]
        0x00001122:    0408        ..      LSLS     r0,r1,#16
        0x00001124:    1838        8.      ADDS     r0,r7,r0
        0x00001126:    0649        I.      LSLS     r1,r1,#25
        0x00001128:    1840        @.      ADDS     r0,r0,r1
        0x0000112a:    1940        @.      ADDS     r0,r0,r5
        0x0000112c:    6020         `      STR      r0,[r4,#0]
        0x0000112e:    bdf8        ..      POP      {r3-r7,pc}
    DrvTIMER_DeInit
        0x00001130:    b510        ..      PUSH     {r4,lr}
        0x00001132:    4604        .F      MOV      r4,r0
        0x00001134:    2000        .       MOVS     r0,#0
        0x00001136:    6020         `      STR      r0,[r4,#0]
        0x00001138:    489f        .H      LDR      r0,[pc,#636] ; [0x13b8] = 0x40010000
        0x0000113a:    4284        .B      CMP      r4,r0
        0x0000113c:    d106        ..      BNE      0x114c ; DrvTIMER_DeInit + 28
        0x0000113e:    2004        .       MOVS     r0,#4
        0x00001140:    f000f921    ..!.    BL       APBCLK_DISABLE ; 0x1386
        0x00001144:    2008        .       MOVS     r0,#8
        0x00001146:    f000f910    ....    BL       NVIC_DisableIRQ ; 0x136a
        0x0000114a:    e01a        ..      B        0x1182 ; DrvTIMER_DeInit + 82
        0x0000114c:    489a        .H      LDR      r0,[pc,#616] ; [0x13b8] = 0x40010000
        0x0000114e:    3020         0      ADDS     r0,r0,#0x20
        0x00001150:    4284        .B      CMP      r4,r0
        0x00001152:    d106        ..      BNE      0x1162 ; DrvTIMER_DeInit + 50
        0x00001154:    2008        .       MOVS     r0,#8
        0x00001156:    f000f916    ....    BL       APBCLK_DISABLE ; 0x1386
        0x0000115a:    2009        .       MOVS     r0,#9
        0x0000115c:    f000f905    ....    BL       NVIC_DisableIRQ ; 0x136a
        0x00001160:    e00f        ..      B        0x1182 ; DrvTIMER_DeInit + 82
        0x00001162:    4896        .H      LDR      r0,[pc,#600] ; [0x13bc] = 0x40110000
        0x00001164:    4284        .B      CMP      r4,r0
        0x00001166:    d106        ..      BNE      0x1176 ; DrvTIMER_DeInit + 70
        0x00001168:    2010        .       MOVS     r0,#0x10
        0x0000116a:    f000f90c    ....    BL       APBCLK_DISABLE ; 0x1386
        0x0000116e:    200a        .       MOVS     r0,#0xa
        0x00001170:    f000f8fb    ....    BL       NVIC_DisableIRQ ; 0x136a
        0x00001174:    e005        ..      B        0x1182 ; DrvTIMER_DeInit + 82
        0x00001176:    2020                MOVS     r0,#0x20
        0x00001178:    f000f905    ....    BL       APBCLK_DISABLE ; 0x1386
        0x0000117c:    200b        .       MOVS     r0,#0xb
        0x0000117e:    f000f8f4    ....    BL       NVIC_DisableIRQ ; 0x136a
        0x00001182:    bd10        ..      POP      {r4,pc}
    DrvTIMER_EnableInt
        0x00001184:    b570        p.      PUSH     {r4-r6,lr}
        0x00001186:    4604        .F      MOV      r4,r0
        0x00001188:    460d        .F      MOV      r5,r1
        0x0000118a:    68a0        .h      LDR      r0,[r4,#8]
        0x0000118c:    60a0        .`      STR      r0,[r4,#8]
        0x0000118e:    2001        .       MOVS     r0,#1
        0x00001190:    0740        @.      LSLS     r0,r0,#29
        0x00001192:    4205        .B      TST      r5,r0
        0x00001194:    d007        ..      BEQ      0x11a6 ; DrvTIMER_EnableInt + 34
        0x00001196:    bf00        ..      NOP      
        0x00001198:    6820         h      LDR      r0,[r4,#0]
        0x0000119a:    2101        .!      MOVS     r1,#1
        0x0000119c:    0749        I.      LSLS     r1,r1,#29
        0x0000119e:    4308        .C      ORRS     r0,r0,r1
        0x000011a0:    6020         `      STR      r0,[r4,#0]
        0x000011a2:    bf00        ..      NOP      
        0x000011a4:    bf00        ..      NOP      
        0x000011a6:    2020                MOVS     r0,#0x20
        0x000011a8:    4205        .B      TST      r5,r0
        0x000011aa:    d006        ..      BEQ      0x11ba ; DrvTIMER_EnableInt + 54
        0x000011ac:    bf00        ..      NOP      
        0x000011ae:    6960        `i      LDR      r0,[r4,#0x14]
        0x000011b0:    2120         !      MOVS     r1,#0x20
        0x000011b2:    4308        .C      ORRS     r0,r0,r1
        0x000011b4:    6160        `a      STR      r0,[r4,#0x14]
        0x000011b6:    bf00        ..      NOP      
        0x000011b8:    bf00        ..      NOP      
        0x000011ba:    487f        .H      LDR      r0,[pc,#508] ; [0x13b8] = 0x40010000
        0x000011bc:    4284        .B      CMP      r4,r0
        0x000011be:    d103        ..      BNE      0x11c8 ; DrvTIMER_EnableInt + 68
        0x000011c0:    2008        .       MOVS     r0,#8
        0x000011c2:    f000f8cb    ....    BL       NVIC_EnableIRQ ; 0x135c
        0x000011c6:    e011        ..      B        0x11ec ; DrvTIMER_EnableInt + 104
        0x000011c8:    487b        {H      LDR      r0,[pc,#492] ; [0x13b8] = 0x40010000
        0x000011ca:    3020         0      ADDS     r0,r0,#0x20
        0x000011cc:    4284        .B      CMP      r4,r0
        0x000011ce:    d103        ..      BNE      0x11d8 ; DrvTIMER_EnableInt + 84
        0x000011d0:    2009        .       MOVS     r0,#9
        0x000011d2:    f000f8c3    ....    BL       NVIC_EnableIRQ ; 0x135c
        0x000011d6:    e009        ..      B        0x11ec ; DrvTIMER_EnableInt + 104
        0x000011d8:    4878        xH      LDR      r0,[pc,#480] ; [0x13bc] = 0x40110000
        0x000011da:    4284        .B      CMP      r4,r0
        0x000011dc:    d103        ..      BNE      0x11e6 ; DrvTIMER_EnableInt + 98
        0x000011de:    200a        .       MOVS     r0,#0xa
        0x000011e0:    f000f8bc    ....    BL       NVIC_EnableIRQ ; 0x135c
        0x000011e4:    e002        ..      B        0x11ec ; DrvTIMER_EnableInt + 104
        0x000011e6:    200b        .       MOVS     r0,#0xb
        0x000011e8:    f000f8b8    ....    BL       NVIC_EnableIRQ ; 0x135c
        0x000011ec:    bd70        p.      POP      {r4-r6,pc}
    DrvTIMER_DisableInt
        0x000011ee:    b510        ..      PUSH     {r4,lr}
        0x000011f0:    4604        .F      MOV      r4,r0
        0x000011f2:    bf00        ..      NOP      
        0x000011f4:    6820         h      LDR      r0,[r4,#0]
        0x000011f6:    2101        .!      MOVS     r1,#1
        0x000011f8:    0749        I.      LSLS     r1,r1,#29
        0x000011fa:    4388        .C      BICS     r0,r0,r1
        0x000011fc:    6020         `      STR      r0,[r4,#0]
        0x000011fe:    bf00        ..      NOP      
        0x00001200:    bf00        ..      NOP      
        0x00001202:    6960        `i      LDR      r0,[r4,#0x14]
        0x00001204:    2120         !      MOVS     r1,#0x20
        0x00001206:    4388        .C      BICS     r0,r0,r1
        0x00001208:    6160        `a      STR      r0,[r4,#0x14]
        0x0000120a:    bf00        ..      NOP      
        0x0000120c:    486a        jH      LDR      r0,[pc,#424] ; [0x13b8] = 0x40010000
        0x0000120e:    4284        .B      CMP      r4,r0
        0x00001210:    d103        ..      BNE      0x121a ; DrvTIMER_DisableInt + 44
        0x00001212:    2008        .       MOVS     r0,#8
        0x00001214:    f000f8a9    ....    BL       NVIC_DisableIRQ ; 0x136a
        0x00001218:    e011        ..      B        0x123e ; DrvTIMER_DisableInt + 80
        0x0000121a:    4867        gH      LDR      r0,[pc,#412] ; [0x13b8] = 0x40010000
        0x0000121c:    3020         0      ADDS     r0,r0,#0x20
        0x0000121e:    4284        .B      CMP      r4,r0
        0x00001220:    d103        ..      BNE      0x122a ; DrvTIMER_DisableInt + 60
        0x00001222:    2009        .       MOVS     r0,#9
        0x00001224:    f000f8a1    ....    BL       NVIC_DisableIRQ ; 0x136a
        0x00001228:    e009        ..      B        0x123e ; DrvTIMER_DisableInt + 80
        0x0000122a:    4864        dH      LDR      r0,[pc,#400] ; [0x13bc] = 0x40110000
        0x0000122c:    4284        .B      CMP      r4,r0
        0x0000122e:    d103        ..      BNE      0x1238 ; DrvTIMER_DisableInt + 74
        0x00001230:    200a        .       MOVS     r0,#0xa
        0x00001232:    f000f89a    ....    BL       NVIC_DisableIRQ ; 0x136a
        0x00001236:    e002        ..      B        0x123e ; DrvTIMER_DisableInt + 80
        0x00001238:    200b        .       MOVS     r0,#0xb
        0x0000123a:    f000f896    ....    BL       NVIC_DisableIRQ ; 0x136a
        0x0000123e:    bd10        ..      POP      {r4,pc}
    DrvWDT_Init
        0x00001240:    b570        p.      PUSH     {r4-r6,lr}
        0x00001242:    4605        .F      MOV      r5,r0
        0x00001244:    460c        .F      MOV      r4,r1
        0x00001246:    4616        .F      MOV      r6,r2
        0x00001248:    f000f8a3    ....    BL       SYS_UnlockReg ; 0x1392
        0x0000124c:    2001        .       MOVS     r0,#1
        0x0000124e:    f000f894    ....    BL       APBCLK_ENABLE ; 0x137a
        0x00001252:    bf00        ..      NOP      
        0x00001254:    485a        ZH      LDR      r0,[pc,#360] ; [0x13c0] = 0x50000200
        0x00001256:    6940        @i      LDR      r0,[r0,#0x14]
        0x00001258:    0880        ..      LSRS     r0,r0,#2
        0x0000125a:    0080        ..      LSLS     r0,r0,#2
        0x0000125c:    4320         C      ORRS     r0,r0,r4
        0x0000125e:    4958        XI      LDR      r1,[pc,#352] ; [0x13c0] = 0x50000200
        0x00001260:    6148        Ha      STR      r0,[r1,#0x14]
        0x00001262:    bf00        ..      NOP      
        0x00001264:    b2e8        ..      UXTB     r0,r5
        0x00001266:    4957        WI      LDR      r1,[pc,#348] ; [0x13c4] = 0x40004000
        0x00001268:    6809        .h      LDR      r1,[r1,#0]
        0x0000126a:    2207        ."      MOVS     r2,#7
        0x0000126c:    0212        ..      LSLS     r2,r2,#8
        0x0000126e:    4391        .C      BICS     r1,r1,r2
        0x00001270:    0202        ..      LSLS     r2,r0,#8
        0x00001272:    4311        .C      ORRS     r1,r1,r2
        0x00001274:    4a53        SJ      LDR      r2,[pc,#332] ; [0x13c4] = 0x40004000
        0x00001276:    6011        .`      STR      r1,[r2,#0]
        0x00001278:    bf00        ..      NOP      
        0x0000127a:    b2f0        ..      UXTB     r0,r6
        0x0000127c:    4611        .F      MOV      r1,r2
        0x0000127e:    6048        H`      STR      r0,[r1,#4]
        0x00001280:    bf00        ..      NOP      
        0x00001282:    f000f88e    ....    BL       SYS_LockReg ; 0x13a2
        0x00001286:    bd70        p.      POP      {r4-r6,pc}
    DrvWDT_DeInit
        0x00001288:    b510        ..      PUSH     {r4,lr}
        0x0000128a:    f000f882    ....    BL       SYS_UnlockReg ; 0x1392
        0x0000128e:    bf00        ..      NOP      
        0x00001290:    484c        LH      LDR      r0,[pc,#304] ; [0x13c4] = 0x40004000
        0x00001292:    6800        .h      LDR      r0,[r0,#0]
        0x00001294:    2180        .!      MOVS     r1,#0x80
        0x00001296:    4388        .C      BICS     r0,r0,r1
        0x00001298:    494a        JI      LDR      r1,[pc,#296] ; [0x13c4] = 0x40004000
        0x0000129a:    6008        .`      STR      r0,[r1,#0]
        0x0000129c:    bf00        ..      NOP      
        0x0000129e:    f000f884    ....    BL       WDT_DISABLE_INT ; 0x13aa
        0x000012a2:    2001        .       MOVS     r0,#1
        0x000012a4:    f000f861    ..a.    BL       NVIC_DisableIRQ ; 0x136a
        0x000012a8:    2001        .       MOVS     r0,#1
        0x000012aa:    f000f86c    ..l.    BL       APBCLK_DISABLE ; 0x1386
        0x000012ae:    f000f878    ..x.    BL       SYS_LockReg ; 0x13a2
        0x000012b2:    bd10        ..      POP      {r4,pc}
    DrvWDT_EnableInt
        0x000012b4:    b510        ..      PUSH     {r4,lr}
        0x000012b6:    f000f86c    ..l.    BL       SYS_UnlockReg ; 0x1392
        0x000012ba:    bf00        ..      NOP      
        0x000012bc:    4841        AH      LDR      r0,[pc,#260] ; [0x13c4] = 0x40004000
        0x000012be:    6800        .h      LDR      r0,[r0,#0]
        0x000012c0:    2108        .!      MOVS     r1,#8
        0x000012c2:    4308        .C      ORRS     r0,r0,r1
        0x000012c4:    493f        ?I      LDR      r1,[pc,#252] ; [0x13c4] = 0x40004000
        0x000012c6:    6008        .`      STR      r0,[r1,#0]
        0x000012c8:    bf00        ..      NOP      
        0x000012ca:    bf00        ..      NOP      
        0x000012cc:    4608        .F      MOV      r0,r1
        0x000012ce:    6800        .h      LDR      r0,[r0,#0]
        0x000012d0:    2140        @!      MOVS     r1,#0x40
        0x000012d2:    4308        .C      ORRS     r0,r0,r1
        0x000012d4:    493b        ;I      LDR      r1,[pc,#236] ; [0x13c4] = 0x40004000
        0x000012d6:    6008        .`      STR      r0,[r1,#0]
        0x000012d8:    bf00        ..      NOP      
        0x000012da:    2001        .       MOVS     r0,#1
        0x000012dc:    f000f83e    ..>.    BL       NVIC_EnableIRQ ; 0x135c
        0x000012e0:    f000f85f    .._.    BL       SYS_LockReg ; 0x13a2
        0x000012e4:    bd10        ..      POP      {r4,pc}
    DrvWDT_DisableInt
        0x000012e6:    b510        ..      PUSH     {r4,lr}
        0x000012e8:    f000f853    ..S.    BL       SYS_UnlockReg ; 0x1392
        0x000012ec:    f000f85d    ..].    BL       WDT_DISABLE_INT ; 0x13aa
        0x000012f0:    2001        .       MOVS     r0,#1
        0x000012f2:    f000f83a    ..:.    BL       NVIC_DisableIRQ ; 0x136a
        0x000012f6:    f000f854    ..T.    BL       SYS_LockReg ; 0x13a2
        0x000012fa:    bd10        ..      POP      {r4,pc}
    DrvWWDT_Init
        0x000012fc:    b570        p.      PUSH     {r4-r6,lr}
        0x000012fe:    4605        .F      MOV      r5,r0
        0x00001300:    460e        .F      MOV      r6,r1
        0x00001302:    4614        .F      MOV      r4,r2
        0x00001304:    f000f845    ..E.    BL       SYS_UnlockReg ; 0x1392
        0x00001308:    bf00        ..      NOP      
        0x0000130a:    482d        -H      LDR      r0,[pc,#180] ; [0x13c0] = 0x50000200
        0x0000130c:    69c0        .i      LDR      r0,[r0,#0x1c]
        0x0000130e:    2103        .!      MOVS     r1,#3
        0x00001310:    0409        ..      LSLS     r1,r1,#16
        0x00001312:    4388        .C      BICS     r0,r0,r1
        0x00001314:    4320         C      ORRS     r0,r0,r4
        0x00001316:    492a        *I      LDR      r1,[pc,#168] ; [0x13c0] = 0x50000200
        0x00001318:    61c8        .a      STR      r0,[r1,#0x1c]
        0x0000131a:    bf00        ..      NOP      
        0x0000131c:    0429        ).      LSLS     r1,r5,#16
        0x0000131e:    0232        2.      LSLS     r2,r6,#8
        0x00001320:    4311        .C      ORRS     r1,r1,r2
        0x00001322:    1cc8        ..      ADDS     r0,r1,#3
        0x00001324:    4928        (I      LDR      r1,[pc,#160] ; [0x13c8] = 0x40004100
        0x00001326:    6048        H`      STR      r0,[r1,#4]
        0x00001328:    bf00        ..      NOP      
        0x0000132a:    2001        .       MOVS     r0,#1
        0x0000132c:    f000f816    ....    BL       NVIC_EnableIRQ ; 0x135c
        0x00001330:    f000f837    ..7.    BL       SYS_LockReg ; 0x13a2
        0x00001334:    bd70        p.      POP      {r4-r6,pc}
    WWDT_DeInit
        0x00001336:    4770        pG      BX       lr
    DrvWWDT_IsResetSource
        0x00001338:    bf00        ..      NOP      
        0x0000133a:    4823        #H      LDR      r0,[pc,#140] ; [0x13c8] = 0x40004100
        0x0000133c:    6880        .h      LDR      r0,[r0,#8]
        0x0000133e:    2202        ."      MOVS     r2,#2
        0x00001340:    4010        .@      ANDS     r0,r0,r2
        0x00001342:    4601        .F      MOV      r1,r0
        0x00001344:    2900        .)      CMP      r1,#0
        0x00001346:    d007        ..      BEQ      0x1358 ; DrvWWDT_IsResetSource + 32
        0x00001348:    bf00        ..      NOP      
        0x0000134a:    481f        .H      LDR      r0,[pc,#124] ; [0x13c8] = 0x40004100
        0x0000134c:    6880        .h      LDR      r0,[r0,#8]
        0x0000134e:    4310        .C      ORRS     r0,r0,r2
        0x00001350:    4a1d        .J      LDR      r2,[pc,#116] ; [0x13c8] = 0x40004100
        0x00001352:    6090        .`      STR      r0,[r2,#8]
        0x00001354:    bf00        ..      NOP      
        0x00001356:    bf00        ..      NOP      
        0x00001358:    b2c8        ..      UXTB     r0,r1
        0x0000135a:    4770        pG      BX       lr
    NVIC_EnableIRQ
        0x0000135c:    06c2        ..      LSLS     r2,r0,#27
        0x0000135e:    0ed2        ..      LSRS     r2,r2,#27
        0x00001360:    2101        .!      MOVS     r1,#1
        0x00001362:    4091        .@      LSLS     r1,r1,r2
        0x00001364:    4a19        .J      LDR      r2,[pc,#100] ; [0x13cc] = 0xe000e100
        0x00001366:    6011        .`      STR      r1,[r2,#0]
        0x00001368:    4770        pG      BX       lr
    NVIC_DisableIRQ
        0x0000136a:    06c2        ..      LSLS     r2,r0,#27
        0x0000136c:    0ed2        ..      LSRS     r2,r2,#27
        0x0000136e:    2101        .!      MOVS     r1,#1
        0x00001370:    4091        .@      LSLS     r1,r1,r2
        0x00001372:    4a16        .J      LDR      r2,[pc,#88] ; [0x13cc] = 0xe000e100
        0x00001374:    3280        .2      ADDS     r2,r2,#0x80
        0x00001376:    6011        .`      STR      r1,[r2,#0]
        0x00001378:    4770        pG      BX       lr
    APBCLK_ENABLE
        0x0000137a:    4911        .I      LDR      r1,[pc,#68] ; [0x13c0] = 0x50000200
        0x0000137c:    6889        .h      LDR      r1,[r1,#8]
        0x0000137e:    4301        .C      ORRS     r1,r1,r0
        0x00001380:    4a0f        .J      LDR      r2,[pc,#60] ; [0x13c0] = 0x50000200
        0x00001382:    6091        .`      STR      r1,[r2,#8]
        0x00001384:    4770        pG      BX       lr
    APBCLK_DISABLE
        0x00001386:    490e        .I      LDR      r1,[pc,#56] ; [0x13c0] = 0x50000200
        0x00001388:    6889        .h      LDR      r1,[r1,#8]
        0x0000138a:    4381        .C      BICS     r1,r1,r0
        0x0000138c:    4a0c        .J      LDR      r2,[pc,#48] ; [0x13c0] = 0x50000200
        0x0000138e:    6091        .`      STR      r1,[r2,#8]
        0x00001390:    4770        pG      BX       lr
    SYS_UnlockReg
        0x00001392:    2059        Y       MOVS     r0,#0x59
        0x00001394:    490e        .I      LDR      r1,[pc,#56] ; [0x13d0] = 0x50000100
        0x00001396:    6008        .`      STR      r0,[r1,#0]
        0x00001398:    2016        .       MOVS     r0,#0x16
        0x0000139a:    6008        .`      STR      r0,[r1,#0]
        0x0000139c:    2088        .       MOVS     r0,#0x88
        0x0000139e:    6008        .`      STR      r0,[r1,#0]
        0x000013a0:    4770        pG      BX       lr
    SYS_LockReg
        0x000013a2:    2000        .       MOVS     r0,#0
        0x000013a4:    490a        .I      LDR      r1,[pc,#40] ; [0x13d0] = 0x50000100
        0x000013a6:    6008        .`      STR      r0,[r1,#0]
        0x000013a8:    4770        pG      BX       lr
    WDT_DISABLE_INT
        0x000013aa:    4806        .H      LDR      r0,[pc,#24] ; [0x13c4] = 0x40004000
        0x000013ac:    6800        .h      LDR      r0,[r0,#0]
        0x000013ae:    2140        @!      MOVS     r1,#0x40
        0x000013b0:    4388        .C      BICS     r0,r0,r1
        0x000013b2:    4904        .I      LDR      r1,[pc,#16] ; [0x13c4] = 0x40004000
        0x000013b4:    6008        .`      STR      r0,[r1,#0]
        0x000013b6:    4770        pG      BX       lr
    $d
        0x000013b8:    40010000    ...@    DCD    1073807360
        0x000013bc:    40110000    ...@    DCD    1074855936
        0x000013c0:    50000200    ...P    DCD    1342177792
        0x000013c4:    40004000    .@.@    DCD    1073758208
        0x000013c8:    40004100    .A.@    DCD    1073758464
        0x000013cc:    e000e100    ....    DCD    3758153984
        0x000013d0:    50000100    ...P    DCD    1342177536
    $t
    .text
    DrvUART_DriveRTS
        0x000013d4:    6902        .i      LDR      r2,[r0,#0x10]
        0x000013d6:    2301        .#      MOVS     r3,#1
        0x000013d8:    025b        [.      LSLS     r3,r3,#9
        0x000013da:    439a        .C      BICS     r2,r2,r3
        0x000013dc:    6102        .a      STR      r2,[r0,#0x10]
        0x000013de:    6902        .i      LDR      r2,[r0,#0x10]
        0x000013e0:    004b        K.      LSLS     r3,r1,#1
        0x000013e2:    431a        .C      ORRS     r2,r2,r3
        0x000013e4:    6102        .a      STR      r2,[r0,#0x10]
        0x000013e6:    4770        pG      BX       lr
    DrvUART_Init
        0x000013e8:    b5f8        ..      PUSH     {r3-r7,lr}
        0x000013ea:    4605        .F      MOV      r5,r0
        0x000013ec:    460c        .F      MOV      r4,r1
        0x000013ee:    6820         h      LDR      r0,[r4,#0]
        0x000013f0:    49b6        .I      LDR      r1,[pc,#728] ; [0x16cc] = 0x50000200
        0x000013f2:    6949        Ii      LDR      r1,[r1,#0x14]
        0x000013f4:    2203        ."      MOVS     r2,#3
        0x000013f6:    0612        ..      LSLS     r2,r2,#24
        0x000013f8:    4391        .C      BICS     r1,r1,r2
        0x000013fa:    4301        .C      ORRS     r1,r1,r0
        0x000013fc:    4ab3        .J      LDR      r2,[pc,#716] ; [0x16cc] = 0x50000200
        0x000013fe:    6151        Qa      STR      r1,[r2,#0x14]
        0x00001400:    bf00        ..      NOP      
        0x00001402:    6860        `h      LDR      r0,[r4,#4]
        0x00001404:    4611        .F      MOV      r1,r2
        0x00001406:    6989        .i      LDR      r1,[r1,#0x18]
        0x00001408:    220f        ."      MOVS     r2,#0xf
        0x0000140a:    0212        ..      LSLS     r2,r2,#8
        0x0000140c:    4391        .C      BICS     r1,r1,r2
        0x0000140e:    1e42        B.      SUBS     r2,r0,#1
        0x00001410:    0212        ..      LSLS     r2,r2,#8
        0x00001412:    4311        .C      ORRS     r1,r1,r2
        0x00001414:    4aad        .J      LDR      r2,[pc,#692] ; [0x16cc] = 0x50000200
        0x00001416:    6191        .a      STR      r1,[r2,#0x18]
        0x00001418:    bf00        ..      NOP      
        0x0000141a:    48ad        .H      LDR      r0,[pc,#692] ; [0x16d0] = 0x40050000
        0x0000141c:    4285        .B      CMP      r5,r0
        0x0000141e:    d107        ..      BNE      0x1430 ; DrvUART_Init + 72
        0x00001420:    01d0        ..      LSLS     r0,r2,#7
        0x00001422:    f000f947    ..G.    BL       SYS_RESET_IP2 ; 0x16b4
        0x00001426:    2001        .       MOVS     r0,#1
        0x00001428:    0400        ..      LSLS     r0,r0,#16
        0x0000142a:    f000f937    ..7.    BL       APBCLK_ENABLE ; 0x169c
        0x0000142e:    e007        ..      B        0x1440 ; DrvUART_Init + 88
        0x00001430:    2001        .       MOVS     r0,#1
        0x00001432:    0440        @.      LSLS     r0,r0,#17
        0x00001434:    f000f93e    ..>.    BL       SYS_RESET_IP2 ; 0x16b4
        0x00001438:    2001        .       MOVS     r0,#1
        0x0000143a:    0440        @.      LSLS     r0,r0,#17
        0x0000143c:    f000f92e    ....    BL       APBCLK_ENABLE ; 0x169c
        0x00001440:    2006        .       MOVS     r0,#6
        0x00001442:    68a9        .h      LDR      r1,[r5,#8]
        0x00001444:    4301        .C      ORRS     r1,r1,r0
        0x00001446:    60a9        .`      STR      r1,[r5,#8]
        0x00001448:    bf00        ..      NOP      
        0x0000144a:    69e0        .i      LDR      r0,[r4,#0x1c]
        0x0000144c:    68a9        .h      LDR      r1,[r5,#8]
        0x0000144e:    22f0        ."      MOVS     r2,#0xf0
        0x00001450:    4391        .C      BICS     r1,r1,r2
        0x00001452:    4301        .C      ORRS     r1,r1,r0
        0x00001454:    60a9        .`      STR      r1,[r5,#8]
        0x00001456:    bf00        ..      NOP      
        0x00001458:    69a2        .i      LDR      r2,[r4,#0x18]
        0x0000145a:    6921        !i      LDR      r1,[r4,#0x10]
        0x0000145c:    4311        .C      ORRS     r1,r1,r2
        0x0000145e:    4608        .F      MOV      r0,r1
        0x00001460:    6962        bi      LDR      r2,[r4,#0x14]
        0x00001462:    4310        .C      ORRS     r0,r0,r2
        0x00001464:    68e9        .h      LDR      r1,[r5,#0xc]
        0x00001466:    2240        @"      MOVS     r2,#0x40
        0x00001468:    4011        .@      ANDS     r1,r1,r2
        0x0000146a:    4301        .C      ORRS     r1,r1,r0
        0x0000146c:    60e9        .`      STR      r1,[r5,#0xc]
        0x0000146e:    bf00        ..      NOP      
        0x00001470:    2124        $!      MOVS     r1,#0x24
        0x00001472:    5d08        .]      LDRB     r0,[r1,r4]
        0x00001474:    6a29        )j      LDR      r1,[r5,#0x20]
        0x00001476:    0a09        ..      LSRS     r1,r1,#8
        0x00001478:    0209        ..      LSLS     r1,r1,#8
        0x0000147a:    4301        .C      ORRS     r1,r1,r0
        0x0000147c:    6229        )b      STR      r1,[r5,#0x20]
        0x0000147e:    bf00        ..      NOP      
        0x00001480:    2103        .!      MOVS     r1,#3
        0x00001482:    0709        ..      LSLS     r1,r1,#28
        0x00001484:    6a20         j      LDR      r0,[r4,#0x20]
        0x00001486:    4288        .B      CMP      r0,r1
        0x00001488:    d10c        ..      BNE      0x14a4 ; DrvUART_Init + 188
        0x0000148a:    68e7        .h      LDR      r7,[r4,#0xc]
        0x0000148c:    68a6        .h      LDR      r6,[r4,#8]
        0x0000148e:    4639        9F      MOV      r1,r7
        0x00001490:    4630        0F      MOV      r0,r6
        0x00001492:    f005fca3    ....    BL       __aeabi_uidiv ; 0x6ddc
        0x00001496:    1e80        ..      SUBS     r0,r0,#2
        0x00001498:    2103        .!      MOVS     r1,#3
        0x0000149a:    0709        ..      LSLS     r1,r1,#28
        0x0000149c:    4308        .C      ORRS     r0,r0,r1
        0x0000149e:    6268        hb      STR      r0,[r5,#0x24]
        0x000014a0:    bf00        ..      NOP      
        0x000014a2:    e00a        ..      B        0x14ba ; DrvUART_Init + 210
        0x000014a4:    68e7        .h      LDR      r7,[r4,#0xc]
        0x000014a6:    68a6        .h      LDR      r6,[r4,#8]
        0x000014a8:    4639        9F      MOV      r1,r7
        0x000014aa:    4630        0F      MOV      r0,r6
        0x000014ac:    f005fc96    ....    BL       __aeabi_uidiv ; 0x6ddc
        0x000014b0:    0900        ..      LSRS     r0,r0,#4
        0x000014b2:    1e80        ..      SUBS     r0,r0,#2
        0x000014b4:    6268        hb      STR      r0,[r5,#0x24]
        0x000014b6:    bf00        ..      NOP      
        0x000014b8:    bf00        ..      NOP      
        0x000014ba:    2001        .       MOVS     r0,#1
        0x000014bc:    bdf8        ..      POP      {r3-r7,pc}
    DrvUART_EnableFlowCtrl
        0x000014be:    b510        ..      PUSH     {r4,lr}
        0x000014c0:    2203        ."      MOVS     r2,#3
        0x000014c2:    0312        ..      LSLS     r2,r2,#12
        0x000014c4:    6843        Ch      LDR      r3,[r0,#4]
        0x000014c6:    4313        .C      ORRS     r3,r3,r2
        0x000014c8:    6043        C`      STR      r3,[r0,#4]
        0x000014ca:    bf00        ..      NOP      
        0x000014cc:    0112        ..      LSLS     r2,r2,#4
        0x000014ce:    6883        .h      LDR      r3,[r0,#8]
        0x000014d0:    240f        .$      MOVS     r4,#0xf
        0x000014d2:    0424        $.      LSLS     r4,r4,#16
        0x000014d4:    43a3        .C      BICS     r3,r3,r4
        0x000014d6:    4313        .C      ORRS     r3,r3,r2
        0x000014d8:    6083        .`      STR      r3,[r0,#8]
        0x000014da:    bf00        ..      NOP      
        0x000014dc:    684a        Jh      LDR      r2,[r1,#4]
        0x000014de:    1fd3        ..      SUBS     r3,r2,#7
        0x000014e0:    3bff        .;      SUBS     r3,r3,#0xff
        0x000014e2:    3bfa        .;      SUBS     r3,r3,#0xfa
        0x000014e4:    d107        ..      BNE      0x14f6 ; DrvUART_EnableFlowCtrl + 56
        0x000014e6:    bf00        ..      NOP      
        0x000014e8:    6902        .i      LDR      r2,[r0,#0x10]
        0x000014ea:    2301        .#      MOVS     r3,#1
        0x000014ec:    025b        [.      LSLS     r3,r3,#9
        0x000014ee:    431a        .C      ORRS     r2,r2,r3
        0x000014f0:    6102        .a      STR      r2,[r0,#0x10]
        0x000014f2:    bf00        ..      NOP      
        0x000014f4:    e007        ..      B        0x1506 ; DrvUART_EnableFlowCtrl + 72
        0x000014f6:    bf00        ..      NOP      
        0x000014f8:    6902        .i      LDR      r2,[r0,#0x10]
        0x000014fa:    2301        .#      MOVS     r3,#1
        0x000014fc:    025b        [.      LSLS     r3,r3,#9
        0x000014fe:    439a        .C      BICS     r2,r2,r3
        0x00001500:    6102        .a      STR      r2,[r0,#0x10]
        0x00001502:    bf00        ..      NOP      
        0x00001504:    bf00        ..      NOP      
        0x00001506:    688a        .h      LDR      r2,[r1,#8]
        0x00001508:    1fd3        ..      SUBS     r3,r2,#7
        0x0000150a:    3bf9        .;      SUBS     r3,r3,#0xf9
        0x0000150c:    d107        ..      BNE      0x151e ; DrvUART_EnableFlowCtrl + 96
        0x0000150e:    bf00        ..      NOP      
        0x00001510:    6942        Bi      LDR      r2,[r0,#0x14]
        0x00001512:    23ff        .#      MOVS     r3,#0xff
        0x00001514:    3301        .3      ADDS     r3,#1
        0x00001516:    431a        .C      ORRS     r2,r2,r3
        0x00001518:    6142        Ba      STR      r2,[r0,#0x14]
        0x0000151a:    bf00        ..      NOP      
        0x0000151c:    e007        ..      B        0x152e ; DrvUART_EnableFlowCtrl + 112
        0x0000151e:    bf00        ..      NOP      
        0x00001520:    6942        Bi      LDR      r2,[r0,#0x14]
        0x00001522:    23ff        .#      MOVS     r3,#0xff
        0x00001524:    3301        .3      ADDS     r3,#1
        0x00001526:    439a        .C      BICS     r2,r2,r3
        0x00001528:    6142        Ba      STR      r2,[r0,#0x14]
        0x0000152a:    bf00        ..      NOP      
        0x0000152c:    bf00        ..      NOP      
        0x0000152e:    bd10        ..      POP      {r4,pc}
    DrvUART_DisableFlowCtrl
        0x00001530:    2103        .!      MOVS     r1,#3
        0x00001532:    0309        ..      LSLS     r1,r1,#12
        0x00001534:    6842        Bh      LDR      r2,[r0,#4]
        0x00001536:    438a        .C      BICS     r2,r2,r1
        0x00001538:    6042        B`      STR      r2,[r0,#4]
        0x0000153a:    bf00        ..      NOP      
        0x0000153c:    4770        pG      BX       lr
    DrvUART_DeInit
        0x0000153e:    b510        ..      PUSH     {r4,lr}
        0x00001540:    4604        .F      MOV      r4,r0
        0x00001542:    bf00        ..      NOP      
        0x00001544:    bf00        ..      NOP      
        0x00001546:    69a0        .i      LDR      r0,[r4,#0x18]
        0x00001548:    2101        .!      MOVS     r1,#1
        0x0000154a:    0709        ..      LSLS     r1,r1,#28
        0x0000154c:    4008        .@      ANDS     r0,r0,r1
        0x0000154e:    2800        .(      CMP      r0,#0
        0x00001550:    d0f8        ..      BEQ      0x1544 ; DrvUART_DeInit + 6
        0x00001552:    4860        `H      LDR      r0,[pc,#384] ; [0x16d4] = 0x40150000
        0x00001554:    4284        .B      CMP      r4,r0
        0x00001556:    d106        ..      BNE      0x1566 ; DrvUART_DeInit + 40
        0x00001558:    12c8        ..      ASRS     r0,r1,#11
        0x0000155a:    f000f8a5    ....    BL       APBCLK_DISABLE ; 0x16a8
        0x0000155e:    200d        .       MOVS     r0,#0xd
        0x00001560:    f000f894    ....    BL       NVIC_DisableIRQ ; 0x168c
        0x00001564:    e006        ..      B        0x1574 ; DrvUART_DeInit + 54
        0x00001566:    2001        .       MOVS     r0,#1
        0x00001568:    0400        ..      LSLS     r0,r0,#16
        0x0000156a:    f000f89d    ....    BL       APBCLK_DISABLE ; 0x16a8
        0x0000156e:    200c        .       MOVS     r0,#0xc
        0x00001570:    f000f88c    ....    BL       NVIC_DisableIRQ ; 0x168c
        0x00001574:    bd10        ..      POP      {r4,pc}
    DrvUART_EnableInt
        0x00001576:    b570        p.      PUSH     {r4-r6,lr}
        0x00001578:    4604        .F      MOV      r4,r0
        0x0000157a:    460d        .F      MOV      r5,r1
        0x0000157c:    bf00        ..      NOP      
        0x0000157e:    6860        `h      LDR      r0,[r4,#4]
        0x00001580:    4328        (C      ORRS     r0,r0,r5
        0x00001582:    6060        ``      STR      r0,[r4,#4]
        0x00001584:    bf00        ..      NOP      
        0x00001586:    4852        RH      LDR      r0,[pc,#328] ; [0x16d0] = 0x40050000
        0x00001588:    4284        .B      CMP      r4,r0
        0x0000158a:    d103        ..      BNE      0x1594 ; DrvUART_EnableInt + 30
        0x0000158c:    200c        .       MOVS     r0,#0xc
        0x0000158e:    f000f876    ..v.    BL       NVIC_EnableIRQ ; 0x167e
        0x00001592:    e002        ..      B        0x159a ; DrvUART_EnableInt + 36
        0x00001594:    200d        .       MOVS     r0,#0xd
        0x00001596:    f000f872    ..r.    BL       NVIC_EnableIRQ ; 0x167e
        0x0000159a:    bd70        p.      POP      {r4-r6,pc}
    DrvUART_DisableInt
        0x0000159c:    b570        p.      PUSH     {r4-r6,lr}
        0x0000159e:    4604        .F      MOV      r4,r0
        0x000015a0:    460d        .F      MOV      r5,r1
        0x000015a2:    bf00        ..      NOP      
        0x000015a4:    6860        `h      LDR      r0,[r4,#4]
        0x000015a6:    43a8        .C      BICS     r0,r0,r5
        0x000015a8:    6060        ``      STR      r0,[r4,#4]
        0x000015aa:    bf00        ..      NOP      
        0x000015ac:    4848        HH      LDR      r0,[pc,#288] ; [0x16d0] = 0x40050000
        0x000015ae:    4284        .B      CMP      r4,r0
        0x000015b0:    d103        ..      BNE      0x15ba ; DrvUART_DisableInt + 30
        0x000015b2:    200c        .       MOVS     r0,#0xc
        0x000015b4:    f000f86a    ..j.    BL       NVIC_DisableIRQ ; 0x168c
        0x000015b8:    e002        ..      B        0x15c0 ; DrvUART_DisableInt + 36
        0x000015ba:    200d        .       MOVS     r0,#0xd
        0x000015bc:    f000f866    ..f.    BL       NVIC_DisableIRQ ; 0x168c
        0x000015c0:    bd70        p.      POP      {r4-r6,pc}
    DrvUART_GetCTSInfo
        0x000015c2:    b510        ..      PUSH     {r4,lr}
        0x000015c4:    bf00        ..      NOP      
        0x000015c6:    6943        Ci      LDR      r3,[r0,#0x14]
        0x000015c8:    2410        .$      MOVS     r4,#0x10
        0x000015ca:    4023        #@      ANDS     r3,r3,r4
        0x000015cc:    2b00        .+      CMP      r3,#0
        0x000015ce:    d001        ..      BEQ      0x15d4 ; DrvUART_GetCTSInfo + 18
        0x000015d0:    2301        .#      MOVS     r3,#1
        0x000015d2:    e000        ..      B        0x15d6 ; DrvUART_GetCTSInfo + 20
        0x000015d4:    2300        .#      MOVS     r3,#0
        0x000015d6:    700b        .p      STRB     r3,[r1,#0]
        0x000015d8:    bf00        ..      NOP      
        0x000015da:    6943        Ci      LDR      r3,[r0,#0x14]
        0x000015dc:    07db        ..      LSLS     r3,r3,#31
        0x000015de:    0fdb        ..      LSRS     r3,r3,#31
        0x000015e0:    2b00        .+      CMP      r3,#0
        0x000015e2:    d001        ..      BEQ      0x15e8 ; DrvUART_GetCTSInfo + 38
        0x000015e4:    2301        .#      MOVS     r3,#1
        0x000015e6:    e000        ..      B        0x15ea ; DrvUART_GetCTSInfo + 40
        0x000015e8:    2300        .#      MOVS     r3,#0
        0x000015ea:    7013        .p      STRB     r3,[r2,#0]
        0x000015ec:    bd10        ..      POP      {r4,pc}
    DrvUART_SetFnIRDA
        0x000015ee:    2202        ."      MOVS     r2,#2
        0x000015f0:    6302        .c      STR      r2,[r0,#0x30]
        0x000015f2:    6a82        .j      LDR      r2,[r0,#0x28]
        0x000015f4:    2362        b#      MOVS     r3,#0x62
        0x000015f6:    439a        .C      BICS     r2,r2,r3
        0x000015f8:    6282        .b      STR      r2,[r0,#0x28]
        0x000015fa:    6a82        .j      LDR      r2,[r0,#0x28]
        0x000015fc:    780b        .x      LDRB     r3,[r1,#0]
        0x000015fe:    2b00        .+      CMP      r3,#0
        0x00001600:    d001        ..      BEQ      0x1606 ; DrvUART_SetFnIRDA + 24
        0x00001602:    2302        .#      MOVS     r3,#2
        0x00001604:    e000        ..      B        0x1608 ; DrvUART_SetFnIRDA + 26
        0x00001606:    2300        .#      MOVS     r3,#0
        0x00001608:    431a        .C      ORRS     r2,r2,r3
        0x0000160a:    6282        .b      STR      r2,[r0,#0x28]
        0x0000160c:    6a82        .j      LDR      r2,[r0,#0x28]
        0x0000160e:    784b        Kx      LDRB     r3,[r1,#1]
        0x00001610:    2b00        .+      CMP      r3,#0
        0x00001612:    d001        ..      BEQ      0x1618 ; DrvUART_SetFnIRDA + 42
        0x00001614:    2320         #      MOVS     r3,#0x20
        0x00001616:    e000        ..      B        0x161a ; DrvUART_SetFnIRDA + 44
        0x00001618:    2300        .#      MOVS     r3,#0
        0x0000161a:    431a        .C      ORRS     r2,r2,r3
        0x0000161c:    6282        .b      STR      r2,[r0,#0x28]
        0x0000161e:    6a82        .j      LDR      r2,[r0,#0x28]
        0x00001620:    788b        .x      LDRB     r3,[r1,#2]
        0x00001622:    2b00        .+      CMP      r3,#0
        0x00001624:    d001        ..      BEQ      0x162a ; DrvUART_SetFnIRDA + 60
        0x00001626:    2340        @#      MOVS     r3,#0x40
        0x00001628:    e000        ..      B        0x162c ; DrvUART_SetFnIRDA + 62
        0x0000162a:    2300        .#      MOVS     r3,#0
        0x0000162c:    431a        .C      ORRS     r2,r2,r3
        0x0000162e:    6282        .b      STR      r2,[r0,#0x28]
        0x00001630:    4770        pG      BX       lr
    DrvUART_SetFnRS485
        0x00001632:    b510        ..      PUSH     {r4,lr}
        0x00001634:    2203        ."      MOVS     r2,#3
        0x00001636:    6302        .c      STR      r2,[r0,#0x30]
        0x00001638:    794a        Jy      LDRB     r2,[r1,#5]
        0x0000163a:    0612        ..      LSLS     r2,r2,#24
        0x0000163c:    790b        .y      LDRB     r3,[r1,#4]
        0x0000163e:    03db        ..      LSLS     r3,r3,#15
        0x00001640:    431a        .C      ORRS     r2,r2,r3
        0x00001642:    680b        .h      LDR      r3,[r1,#0]
        0x00001644:    431a        .C      ORRS     r2,r2,r3
        0x00001646:    6ac3        .j      LDR      r3,[r0,#0x2c]
        0x00001648:    431a        .C      ORRS     r2,r2,r3
        0x0000164a:    62c2        .b      STR      r2,[r0,#0x2c]
        0x0000164c:    798a        .y      LDRB     r2,[r1,#6]
        0x0000164e:    6a03        .j      LDR      r3,[r0,#0x20]
        0x00001650:    24ff        .$      MOVS     r4,#0xff
        0x00001652:    0224        $.      LSLS     r4,r4,#8
        0x00001654:    43a3        .C      BICS     r3,r3,r4
        0x00001656:    0214        ..      LSLS     r4,r2,#8
        0x00001658:    4323        #C      ORRS     r3,r3,r4
        0x0000165a:    6203        .b      STR      r3,[r0,#0x20]
        0x0000165c:    bf00        ..      NOP      
        0x0000165e:    6882        .h      LDR      r2,[r0,#8]
        0x00001660:    23ff        .#      MOVS     r3,#0xff
        0x00001662:    3301        .3      ADDS     r3,#1
        0x00001664:    439a        .C      BICS     r2,r2,r3
        0x00001666:    6082        .`      STR      r2,[r0,#8]
        0x00001668:    6882        .h      LDR      r2,[r0,#8]
        0x0000166a:    79cb        .y      LDRB     r3,[r1,#7]
        0x0000166c:    2b00        .+      CMP      r3,#0
        0x0000166e:    d002        ..      BEQ      0x1676 ; DrvUART_SetFnRS485 + 68
        0x00001670:    23ff        .#      MOVS     r3,#0xff
        0x00001672:    3301        .3      ADDS     r3,#1
        0x00001674:    e000        ..      B        0x1678 ; DrvUART_SetFnRS485 + 70
        0x00001676:    2300        .#      MOVS     r3,#0
        0x00001678:    431a        .C      ORRS     r2,r2,r3
        0x0000167a:    6082        .`      STR      r2,[r0,#8]
        0x0000167c:    bd10        ..      POP      {r4,pc}
    NVIC_EnableIRQ
        0x0000167e:    06c2        ..      LSLS     r2,r0,#27
        0x00001680:    0ed2        ..      LSRS     r2,r2,#27
        0x00001682:    2101        .!      MOVS     r1,#1
        0x00001684:    4091        .@      LSLS     r1,r1,r2
        0x00001686:    4a14        .J      LDR      r2,[pc,#80] ; [0x16d8] = 0xe000e100
        0x00001688:    6011        .`      STR      r1,[r2,#0]
        0x0000168a:    4770        pG      BX       lr
    NVIC_DisableIRQ
        0x0000168c:    06c2        ..      LSLS     r2,r0,#27
        0x0000168e:    0ed2        ..      LSRS     r2,r2,#27
        0x00001690:    2101        .!      MOVS     r1,#1
        0x00001692:    4091        .@      LSLS     r1,r1,r2
        0x00001694:    4a10        .J      LDR      r2,[pc,#64] ; [0x16d8] = 0xe000e100
        0x00001696:    3280        .2      ADDS     r2,r2,#0x80
        0x00001698:    6011        .`      STR      r1,[r2,#0]
        0x0000169a:    4770        pG      BX       lr
    APBCLK_ENABLE
        0x0000169c:    490b        .I      LDR      r1,[pc,#44] ; [0x16cc] = 0x50000200
        0x0000169e:    6889        .h      LDR      r1,[r1,#8]
        0x000016a0:    4301        .C      ORRS     r1,r1,r0
        0x000016a2:    4a0a        .J      LDR      r2,[pc,#40] ; [0x16cc] = 0x50000200
        0x000016a4:    6091        .`      STR      r1,[r2,#8]
        0x000016a6:    4770        pG      BX       lr
    APBCLK_DISABLE
        0x000016a8:    4908        .I      LDR      r1,[pc,#32] ; [0x16cc] = 0x50000200
        0x000016aa:    6889        .h      LDR      r1,[r1,#8]
        0x000016ac:    4381        .C      BICS     r1,r1,r0
        0x000016ae:    4a07        .J      LDR      r2,[pc,#28] ; [0x16cc] = 0x50000200
        0x000016b0:    6091        .`      STR      r1,[r2,#8]
        0x000016b2:    4770        pG      BX       lr
    SYS_RESET_IP2
        0x000016b4:    2105        .!      MOVS     r1,#5
        0x000016b6:    0709        ..      LSLS     r1,r1,#28
        0x000016b8:    68c9        .h      LDR      r1,[r1,#0xc]
        0x000016ba:    4301        .C      ORRS     r1,r1,r0
        0x000016bc:    2205        ."      MOVS     r2,#5
        0x000016be:    0712        ..      LSLS     r2,r2,#28
        0x000016c0:    60d1        .`      STR      r1,[r2,#0xc]
        0x000016c2:    4611        .F      MOV      r1,r2
        0x000016c4:    68c9        .h      LDR      r1,[r1,#0xc]
        0x000016c6:    4381        .C      BICS     r1,r1,r0
        0x000016c8:    60d1        .`      STR      r1,[r2,#0xc]
        0x000016ca:    4770        pG      BX       lr
    $d
        0x000016cc:    50000200    ...P    DCD    1342177792
        0x000016d0:    40050000    ...@    DCD    1074069504
        0x000016d4:    40150000    ...@    DCD    1075118080
        0x000016d8:    e000e100    ....    DCD    3758153984
    $t
    .text
    CLK_Init
        0x000016dc:    b510        ..      PUSH     {r4,lr}
        0x000016de:    f000f93c    ..<.    BL       SYS_UnlockReg ; 0x195a
        0x000016e2:    bf00        ..      NOP      
        0x000016e4:    48a1        .H      LDR      r0,[pc,#644] ; [0x196c] = 0x50000040
        0x000016e6:    6840        @h      LDR      r0,[r0,#4]
        0x000016e8:    2103        .!      MOVS     r1,#3
        0x000016ea:    4308        .C      ORRS     r0,r0,r1
        0x000016ec:    499f        .I      LDR      r1,[pc,#636] ; [0x196c] = 0x50000040
        0x000016ee:    6048        H`      STR      r0,[r1,#4]
        0x000016f0:    bf00        ..      NOP      
        0x000016f2:    bf00        ..      NOP      
        0x000016f4:    489e        .H      LDR      r0,[pc,#632] ; [0x1970] = 0x50000200
        0x000016f6:    6800        .h      LDR      r0,[r0,#0]
        0x000016f8:    2101        .!      MOVS     r1,#1
        0x000016fa:    4308        .C      ORRS     r0,r0,r1
        0x000016fc:    499c        .I      LDR      r1,[pc,#624] ; [0x1970] = 0x50000200
        0x000016fe:    6008        .`      STR      r0,[r1,#0]
        0x00001700:    bf00        ..      NOP      
        0x00001702:    bf00        ..      NOP      
        0x00001704:    2001        .       MOVS     r0,#1
        0x00001706:    f000f923    ..#.    BL       CLK_IS_STABLE ; 0x1950
        0x0000170a:    2800        .(      CMP      r0,#0
        0x0000170c:    d0fa        ..      BEQ      0x1704 ; CLK_Init + 40
        0x0000170e:    2000        .       MOVS     r0,#0
        0x00001710:    4998        .I      LDR      r1,[pc,#608] ; [0x1974] = 0x4a54
        0x00001712:    4602        .F      MOV      r2,r0
        0x00001714:    430a        .C      ORRS     r2,r2,r1
        0x00001716:    4b96        .K      LDR      r3,[pc,#600] ; [0x1970] = 0x50000200
        0x00001718:    621a        .b      STR      r2,[r3,#0x20]
        0x0000171a:    bf00        ..      NOP      
        0x0000171c:    bf00        ..      NOP      
        0x0000171e:    2004        .       MOVS     r0,#4
        0x00001720:    f000f916    ....    BL       CLK_IS_STABLE ; 0x1950
        0x00001724:    2800        .(      CMP      r0,#0
        0x00001726:    d0fa        ..      BEQ      0x171e ; CLK_Init + 66
        0x00001728:    2002        .       MOVS     r0,#2
        0x0000172a:    4991        .I      LDR      r1,[pc,#580] ; [0x1970] = 0x50000200
        0x0000172c:    6909        .i      LDR      r1,[r1,#0x10]
        0x0000172e:    08c9        ..      LSRS     r1,r1,#3
        0x00001730:    00c9        ..      LSLS     r1,r1,#3
        0x00001732:    4301        .C      ORRS     r1,r1,r0
        0x00001734:    4a8e        .J      LDR      r2,[pc,#568] ; [0x1970] = 0x50000200
        0x00001736:    6111        .a      STR      r1,[r2,#0x10]
        0x00001738:    bf00        ..      NOP      
        0x0000173a:    2001        .       MOVS     r0,#1
        0x0000173c:    4611        .F      MOV      r1,r2
        0x0000173e:    6ac9        .j      LDR      r1,[r1,#0x2c]
        0x00001740:    4381        .C      BICS     r1,r1,r0
        0x00001742:    4301        .C      ORRS     r1,r1,r0
        0x00001744:    62d1        .b      STR      r1,[r2,#0x2c]
        0x00001746:    bf00        ..      NOP      
        0x00001748:    f7fefcc4    ....    BL       SystemCoreClockUpdate ; 0xd4
        0x0000174c:    488a        .H      LDR      r0,[pc,#552] ; [0x1978] = 0x1770
        0x0000174e:    f000fd2d    ..-.    BL       SysTickInit ; 0x21ac
        0x00001752:    f000ff07    ....    BL       adcKeyClkInit ; 0x2564
        0x00001756:    bf00        ..      NOP      
        0x00001758:    2000        .       MOVS     r0,#0
        0x0000175a:    4984        .I      LDR      r1,[pc,#528] ; [0x196c] = 0x50000040
        0x0000175c:    31c0        .1      ADDS     r1,r1,#0xc0
        0x0000175e:    6008        .`      STR      r0,[r1,#0]
        0x00001760:    bf00        ..      NOP      
        0x00001762:    bd10        ..      POP      {r4,pc}
    Hal_Init
        0x00001764:    b510        ..      PUSH     {r4,lr}
        0x00001766:    bf00        ..      NOP      
        0x00001768:    f3ef8010    ....    MRS      r0,PRIMASK
        0x0000176c:    4604        .F      MOV      r4,r0
        0x0000176e:    2001        .       MOVS     r0,#1
        0x00001770:    f3808810    ....    MSR      PRIMASK,r0
        0x00001774:    bf00        ..      NOP      
        0x00001776:    f7ffffb1    ....    BL       CLK_Init ; 0x16dc
        0x0000177a:    4620         F      MOV      r0,r4
        0x0000177c:    f3808810    ....    MSR      PRIMASK,r0
        0x00001780:    bf00        ..      NOP      
        0x00001782:    f000fdee    ....    BL       sysTaskInit ; 0x2362
        0x00001786:    f002fa51    ..Q.    BL       ledInit ; 0x3c2c
        0x0000178a:    bd10        ..      POP      {r4,pc}
    main
        0x0000178c:    b51c        ..      PUSH     {r2-r4,lr}
        0x0000178e:    bf00        ..      NOP      
        0x00001790:    f7ffffe8    ....    BL       Hal_Init ; 0x1764
        0x00001794:    2001        .       MOVS     r0,#1
        0x00001796:    4979        yI      LDR      r1,[pc,#484] ; [0x197c] = 0x20000099
        0x00001798:    7008        .p      STRB     r0,[r1,#0]
        0x0000179a:    f002fc6b    ..k.    BL       ledTaskInit ; 0x4074
        0x0000179e:    4878        xH      LDR      r0,[pc,#480] ; [0x1980] = 0x500040c0
        0x000017a0:    6800        .h      LDR      r0,[r0,#0]
        0x000017a2:    2103        .!      MOVS     r1,#3
        0x000017a4:    0289        ..      LSLS     r1,r1,#10
        0x000017a6:    4388        .C      BICS     r0,r0,r1
        0x000017a8:    4975        uI      LDR      r1,[pc,#468] ; [0x1980] = 0x500040c0
        0x000017aa:    6008        .`      STR      r0,[r1,#0]
        0x000017ac:    4608        .F      MOV      r0,r1
        0x000017ae:    6800        .h      LDR      r0,[r0,#0]
        0x000017b0:    2101        .!      MOVS     r1,#1
        0x000017b2:    0289        ..      LSLS     r1,r1,#10
        0x000017b4:    4308        .C      ORRS     r0,r0,r1
        0x000017b6:    4972        rI      LDR      r1,[pc,#456] ; [0x1980] = 0x500040c0
        0x000017b8:    6008        .`      STR      r0,[r1,#0]
        0x000017ba:    bf00        ..      NOP      
        0x000017bc:    bf00        ..      NOP      
        0x000017be:    2001        .       MOVS     r0,#1
        0x000017c0:    4970        pI      LDR      r1,[pc,#448] ; [0x1984] = 0x500042d4
        0x000017c2:    6008        .`      STR      r0,[r1,#0]
        0x000017c4:    bf00        ..      NOP      
        0x000017c6:    bf00        ..      NOP      
        0x000017c8:    f000fb19    ....    BL       uartInit ; 0x1dfe
        0x000017cc:    f002fa2e    ....    BL       ledInit ; 0x3c2c
        0x000017d0:    20ff        .       MOVS     r0,#0xff
        0x000017d2:    496d        mI      LDR      r1,[pc,#436] ; [0x1988] = 0x20000278
        0x000017d4:    6008        .`      STR      r0,[r1,#0]
        0x000017d6:    2003        .       MOVS     r0,#3
        0x000017d8:    f002fb9c    ....    BL       ledColorSet ; 0x3f14
        0x000017dc:    f001fe15    ....    BL       i2cSysInit ; 0x340a
        0x000017e0:    f001f9a4    ....    BL       adckeyTaskInit ; 0x2b2c
        0x000017e4:    a069        i.      ADR      r0,{pc}+0x1a8 ; 0x198c
        0x000017e6:    f000f95d    ..].    BL       iputs ; 0x1aa4
        0x000017ea:    a06e        n.      ADR      r0,{pc}+0x1ba ; 0x19a4
        0x000017ec:    f000f95a    ..Z.    BL       iputs ; 0x1aa4
        0x000017f0:    a06e        n.      ADR      r0,{pc}+0x1bc ; 0x19ac
        0x000017f2:    f000f957    ..W.    BL       iputs ; 0x1aa4
        0x000017f6:    f002fe0a    ....    BL       spiFlashInit ; 0x440e
        0x000017fa:    f002f899    ....    BL       WDTInit ; 0x3930
        0x000017fe:    f003fa38    ..8.    BL       reset_DW1000 ; 0x4c72
        0x00001802:    f003fa55    ..U.    BL       spi_set_rate_low ; 0x4cb0
        0x00001806:    2002        .       MOVS     r0,#2
        0x00001808:    f000fcfd    ....    BL       sysDelayMs ; 0x2206
        0x0000180c:    f003fa6d    ..m.    BL       spi_set_rate_high ; 0x4cea
        0x00001810:    2002        .       MOVS     r0,#2
        0x00001812:    f000fcf8    ....    BL       sysDelayMs ; 0x2206
        0x00001816:    207d        }       MOVS     r0,#0x7d
        0x00001818:    00c0        ..      LSLS     r0,r0,#3
        0x0000181a:    f000fcf4    ....    BL       sysDelayMs ; 0x2206
        0x0000181e:    2000        .       MOVS     r0,#0
        0x00001820:    4956        VI      LDR      r1,[pc,#344] ; [0x197c] = 0x20000099
        0x00001822:    7008        .p      STRB     r0,[r1,#0]
        0x00001824:    e093        ..      B        0x194e ; main + 450
        0x00001826:    aa01        ..      ADD      r2,sp,#4
        0x00001828:    2104        .!      MOVS     r1,#4
        0x0000182a:    2000        .       MOVS     r0,#0
        0x0000182c:    f003f974    ..t.    BL       spiFlashRead2 ; 0x4b18
        0x00001830:    4669        iF      MOV      r1,sp
        0x00001832:    7908        .y      LDRB     r0,[r1,#4]
        0x00001834:    a163        c.      ADR      r1,{pc}+0x190 ; 0x19c4
        0x00001836:    f000fbe1    ....    BL       uartdecodeH ; 0x1ffc
        0x0000183a:    4669        iF      MOV      r1,sp
        0x0000183c:    7948        Hy      LDRB     r0,[r1,#5]
        0x0000183e:    a164        d.      ADR      r1,{pc}+0x192 ; 0x19d0
        0x00001840:    f000fbdc    ....    BL       uartdecodeH ; 0x1ffc
        0x00001844:    4669        iF      MOV      r1,sp
        0x00001846:    7988        .y      LDRB     r0,[r1,#6]
        0x00001848:    a164        d.      ADR      r1,{pc}+0x194 ; 0x19dc
        0x0000184a:    f000fbd7    ....    BL       uartdecodeH ; 0x1ffc
        0x0000184e:    4669        iF      MOV      r1,sp
        0x00001850:    79c8        .y      LDRB     r0,[r1,#7]
        0x00001852:    a165        e.      ADR      r1,{pc}+0x196 ; 0x19e8
        0x00001854:    f000fbd2    ....    BL       uartdecodeH ; 0x1ffc
        0x00001858:    a066        f.      ADR      r0,{pc}+0x19c ; 0x19f4
        0x0000185a:    f000f923    ..#.    BL       iputs ; 0x1aa4
        0x0000185e:    4866        fH      LDR      r0,[pc,#408] ; [0x19f8] = 0xbb8
        0x00001860:    f000fcd1    ....    BL       sysDelayMs ; 0x2206
        0x00001864:    2018        .       MOVS     r0,#0x18
        0x00001866:    4669        iF      MOV      r1,sp
        0x00001868:    7008        .p      STRB     r0,[r1,#0]
        0x0000186a:    7048        Hp      STRB     r0,[r1,#1]
        0x0000186c:    7088        .p      STRB     r0,[r1,#2]
        0x0000186e:    70c8        .p      STRB     r0,[r1,#3]
        0x00001870:    466b        kF      MOV      r3,sp
        0x00001872:    2204        ."      MOVS     r2,#4
        0x00001874:    2100        .!      MOVS     r1,#0
        0x00001876:    2003        .       MOVS     r0,#3
        0x00001878:    f003f99f    ....    BL       dwt_writetodevice ; 0x4bba
        0x0000187c:    207d        }       MOVS     r0,#0x7d
        0x0000187e:    00c0        ..      LSLS     r0,r0,#3
        0x00001880:    f000fcc1    ....    BL       sysDelayMs ; 0x2206
        0x00001884:    ab01        ..      ADD      r3,sp,#4
        0x00001886:    2204        ."      MOVS     r2,#4
        0x00001888:    2100        .!      MOVS     r1,#0
        0x0000188a:    2003        .       MOVS     r0,#3
        0x0000188c:    f003f8f9    ....    BL       dwt_readfromdevice ; 0x4a82
        0x00001890:    4669        iF      MOV      r1,sp
        0x00001892:    7908        .y      LDRB     r0,[r1,#4]
        0x00001894:    a159        Y.      ADR      r1,{pc}+0x168 ; 0x19fc
        0x00001896:    f000fbb1    ....    BL       uartdecodeH ; 0x1ffc
        0x0000189a:    4669        iF      MOV      r1,sp
        0x0000189c:    7948        Hy      LDRB     r0,[r1,#5]
        0x0000189e:    a15a        Z.      ADR      r1,{pc}+0x16a ; 0x1a08
        0x000018a0:    f000fbac    ....    BL       uartdecodeH ; 0x1ffc
        0x000018a4:    4669        iF      MOV      r1,sp
        0x000018a6:    7988        .y      LDRB     r0,[r1,#6]
        0x000018a8:    a15a        Z.      ADR      r1,{pc}+0x16c ; 0x1a14
        0x000018aa:    f000fba7    ....    BL       uartdecodeH ; 0x1ffc
        0x000018ae:    4669        iF      MOV      r1,sp
        0x000018b0:    79c8        .y      LDRB     r0,[r1,#7]
        0x000018b2:    a15b        [.      ADR      r1,{pc}+0x16e ; 0x1a20
        0x000018b4:    f000fba2    ....    BL       uartdecodeH ; 0x1ffc
        0x000018b8:    a04e        N.      ADR      r0,{pc}+0x13c ; 0x19f4
        0x000018ba:    f000f8f3    ....    BL       iputs ; 0x1aa4
        0x000018be:    207d        }       MOVS     r0,#0x7d
        0x000018c0:    0100        ..      LSLS     r0,r0,#4
        0x000018c2:    f000fca0    ....    BL       sysDelayMs ; 0x2206
        0x000018c6:    2028        (       MOVS     r0,#0x28
        0x000018c8:    4669        iF      MOV      r1,sp
        0x000018ca:    7008        .p      STRB     r0,[r1,#0]
        0x000018cc:    7048        Hp      STRB     r0,[r1,#1]
        0x000018ce:    7088        .p      STRB     r0,[r1,#2]
        0x000018d0:    70c8        .p      STRB     r0,[r1,#3]
        0x000018d2:    466b        kF      MOV      r3,sp
        0x000018d4:    2204        ."      MOVS     r2,#4
        0x000018d6:    2100        .!      MOVS     r1,#0
        0x000018d8:    2003        .       MOVS     r0,#3
        0x000018da:    f003f96e    ..n.    BL       dwt_writetodevice ; 0x4bba
        0x000018de:    207d        }       MOVS     r0,#0x7d
        0x000018e0:    00c0        ..      LSLS     r0,r0,#3
        0x000018e2:    f000fc90    ....    BL       sysDelayMs ; 0x2206
        0x000018e6:    ab01        ..      ADD      r3,sp,#4
        0x000018e8:    2204        ."      MOVS     r2,#4
        0x000018ea:    2100        .!      MOVS     r1,#0
        0x000018ec:    2003        .       MOVS     r0,#3
        0x000018ee:    f003f8c8    ....    BL       dwt_readfromdevice ; 0x4a82
        0x000018f2:    4669        iF      MOV      r1,sp
        0x000018f4:    7908        .y      LDRB     r0,[r1,#4]
        0x000018f6:    a141        A.      ADR      r1,{pc}+0x106 ; 0x19fc
        0x000018f8:    f000fb80    ....    BL       uartdecodeH ; 0x1ffc
        0x000018fc:    4669        iF      MOV      r1,sp
        0x000018fe:    7948        Hy      LDRB     r0,[r1,#5]
        0x00001900:    a141        A.      ADR      r1,{pc}+0x108 ; 0x1a08
        0x00001902:    f000fb7b    ..{.    BL       uartdecodeH ; 0x1ffc
        0x00001906:    4669        iF      MOV      r1,sp
        0x00001908:    7988        .y      LDRB     r0,[r1,#6]
        0x0000190a:    a142        B.      ADR      r1,{pc}+0x10a ; 0x1a14
        0x0000190c:    f000fb76    ..v.    BL       uartdecodeH ; 0x1ffc
        0x00001910:    4669        iF      MOV      r1,sp
        0x00001912:    79c8        .y      LDRB     r0,[r1,#7]
        0x00001914:    a142        B.      ADR      r1,{pc}+0x10c ; 0x1a20
        0x00001916:    f000fb71    ..q.    BL       uartdecodeH ; 0x1ffc
        0x0000191a:    a036        6.      ADR      r0,{pc}+0xda ; 0x19f4
        0x0000191c:    f000f8c2    ....    BL       iputs ; 0x1aa4
        0x00001920:    207d        }       MOVS     r0,#0x7d
        0x00001922:    0100        ..      LSLS     r0,r0,#4
        0x00001924:    f000fc6f    ..o.    BL       sysDelayMs ; 0x2206
        0x00001928:    f000fcf0    ....    BL       runTimedTasks ; 0x230c
        0x0000192c:    f000f815    ....    BL       SYS_UnlockReg ; 0x195a
        0x00001930:    bf00        ..      NOP      
        0x00001932:    483e        >H      LDR      r0,[pc,#248] ; [0x1a2c] = 0x40004000
        0x00001934:    6800        .h      LDR      r0,[r0,#0]
        0x00001936:    2101        .!      MOVS     r1,#1
        0x00001938:    4308        .C      ORRS     r0,r0,r1
        0x0000193a:    493c        <I      LDR      r1,[pc,#240] ; [0x1a2c] = 0x40004000
        0x0000193c:    6008        .`      STR      r0,[r1,#0]
        0x0000193e:    bf00        ..      NOP      
        0x00001940:    bf00        ..      NOP      
        0x00001942:    2000        .       MOVS     r0,#0
        0x00001944:    4909        .I      LDR      r1,[pc,#36] ; [0x196c] = 0x50000040
        0x00001946:    31c0        .1      ADDS     r1,r1,#0xc0
        0x00001948:    6008        .`      STR      r0,[r1,#0]
        0x0000194a:    bf00        ..      NOP      
        0x0000194c:    bf00        ..      NOP      
        0x0000194e:    e76a        j.      B        0x1826 ; main + 154
    CLK_IS_STABLE
        0x00001950:    4601        .F      MOV      r1,r0
        0x00001952:    4807        .H      LDR      r0,[pc,#28] ; [0x1970] = 0x50000200
        0x00001954:    68c0        .h      LDR      r0,[r0,#0xc]
        0x00001956:    4008        .@      ANDS     r0,r0,r1
        0x00001958:    4770        pG      BX       lr
    SYS_UnlockReg
        0x0000195a:    2059        Y       MOVS     r0,#0x59
        0x0000195c:    4903        .I      LDR      r1,[pc,#12] ; [0x196c] = 0x50000040
        0x0000195e:    31c0        .1      ADDS     r1,r1,#0xc0
        0x00001960:    6008        .`      STR      r0,[r1,#0]
        0x00001962:    2016        .       MOVS     r0,#0x16
        0x00001964:    6008        .`      STR      r0,[r1,#0]
        0x00001966:    2088        .       MOVS     r0,#0x88
        0x00001968:    6008        .`      STR      r0,[r1,#0]
        0x0000196a:    4770        pG      BX       lr
    $d
        0x0000196c:    50000040    @..P    DCD    1342177344
        0x00001970:    50000200    ...P    DCD    1342177792
        0x00001974:    00004a54    TJ..    DCD    19028
        0x00001978:    00001770    p...    DCD    6000
        0x0000197c:    20000099    ...     DCD    536871065
        0x00001980:    500040c0    .@.P    DCD    1342193856
        0x00001984:    500042d4    .B.P    DCD    1342194388
        0x00001988:    20000278    x..     DCD    536871544
        0x0000198c:    2d2d0a0d    ..--    DCD    757926413
        0x00001990:    2d2d2d2d    ----    DCD    757935405
        0x00001994:    2d2d2d2d    ----    DCD    757935405
        0x00001998:    2d2d2d2d    ----    DCD    757935405
        0x0000199c:    2d2d2d2d    ----    DCD    757935405
        0x000019a0:    00000020     ...    DCD    32
        0x000019a4:    2e303176    v10.    DCD    774910326
        0x000019a8:    00003638    86..    DCD    13880
        0x000019ac:    2d2d2d20     ---    DCD    757935392
        0x000019b0:    2d2d2d2d    ----    DCD    757935405
        0x000019b4:    2d2d2d2d    ----    DCD    757935405
        0x000019b8:    2d2d2d2d    ----    DCD    757935405
        0x000019bc:    0a0d2d2d    --..    DCD    168635693
        0x000019c0:    00000000    ....    DCD    0
        0x000019c4:    69302020      0i    DCD    1764761632
        0x000019c8:    30667562    buf0    DCD    812021090
        0x000019cc:    0000203a    : ..    DCD    8250
        0x000019d0:    69302020      0i    DCD    1764761632
        0x000019d4:    31667562    buf1    DCD    828798306
        0x000019d8:    0000203a    : ..    DCD    8250
        0x000019dc:    69302020      0i    DCD    1764761632
        0x000019e0:    32667562    buf2    DCD    845575522
        0x000019e4:    0000203a    : ..    DCD    8250
        0x000019e8:    69302020      0i    DCD    1764761632
        0x000019ec:    33667562    buf3    DCD    862352738
        0x000019f0:    0000203a    : ..    DCD    8250
        0x000019f4:    00000a0d    ....    DCD    2573
        0x000019f8:    00000bb8    ....    DCD    3000
        0x000019fc:    62692020      ib    DCD    1651056672
        0x00001a00:    3a306675    uf0:    DCD    976250485
        0x00001a04:    00000020     ...    DCD    32
        0x00001a08:    62692020      ib    DCD    1651056672
        0x00001a0c:    3a316675    uf1:    DCD    976316021
        0x00001a10:    00000020     ...    DCD    32
        0x00001a14:    62692020      ib    DCD    1651056672
        0x00001a18:    3a326675    uf2:    DCD    976381557
        0x00001a1c:    00000020     ...    DCD    32
        0x00001a20:    62692020      ib    DCD    1651056672
        0x00001a24:    3a336675    uf3:    DCD    976447093
        0x00001a28:    00000020     ...    DCD    32
        0x00001a2c:    40004000    .@.@    DCD    1073758208
    $t
    .text
    uartSendCmd
        0x00001a30:    b570        p.      PUSH     {r4-r6,lr}
        0x00001a32:    4605        .F      MOV      r5,r0
        0x00001a34:    460e        .F      MOV      r6,r1
        0x00001a36:    2400        .$      MOVS     r4,#0
        0x00001a38:    e00c        ..      B        0x1a54 ; uartSendCmd + 36
        0x00001a3a:    5d30        0]      LDRB     r0,[r6,r4]
        0x00001a3c:    49fe        .I      LDR      r1,[pc,#1016] ; [0x1e38] = 0x20000024
        0x00001a3e:    8809        ..      LDRH     r1,[r1,#0]
        0x00001a40:    05c9        ..      LSLS     r1,r1,#23
        0x00001a42:    0dc9        ..      LSRS     r1,r1,#23
        0x00001a44:    4afd        .J      LDR      r2,[pc,#1012] ; [0x1e3c] = 0x20000704
        0x00001a46:    5450        PT      STRB     r0,[r2,r1]
        0x00001a48:    48fb        .H      LDR      r0,[pc,#1004] ; [0x1e38] = 0x20000024
        0x00001a4a:    6800        .h      LDR      r0,[r0,#0]
        0x00001a4c:    1c40        @.      ADDS     r0,r0,#1
        0x00001a4e:    49fa        .I      LDR      r1,[pc,#1000] ; [0x1e38] = 0x20000024
        0x00001a50:    6008        .`      STR      r0,[r1,#0]
        0x00001a52:    1c64        d.      ADDS     r4,r4,#1
        0x00001a54:    42ac        .B      CMP      r4,r5
        0x00001a56:    d3f0        ..      BCC      0x1a3a ; uartSendCmd + 10
        0x00001a58:    48f9        .H      LDR      r0,[pc,#996] ; [0x1e40] = 0x2000002c
        0x00001a5a:    6800        .h      LDR      r0,[r0,#0]
        0x00001a5c:    2801        .(      CMP      r0,#1
        0x00001a5e:    d106        ..      BNE      0x1a6e ; uartSendCmd + 62
        0x00001a60:    2000        .       MOVS     r0,#0
        0x00001a62:    49f7        .I      LDR      r1,[pc,#988] ; [0x1e40] = 0x2000002c
        0x00001a64:    6008        .`      STR      r0,[r1,#0]
        0x00001a66:    2102        .!      MOVS     r1,#2
        0x00001a68:    48f6        .H      LDR      r0,[pc,#984] ; [0x1e44] = 0x40050000
        0x00001a6a:    f000fb79    ..y.    BL       UART_ENABLE_INT ; 0x2160
        0x00001a6e:    bd70        p.      POP      {r4-r6,pc}
    smscSendCmd
        0x00001a70:    4770        pG      BX       lr
    iputc
        0x00001a72:    b510        ..      PUSH     {r4,lr}
        0x00001a74:    4604        .F      MOV      r4,r0
        0x00001a76:    48f0        .H      LDR      r0,[pc,#960] ; [0x1e38] = 0x20000024
        0x00001a78:    8800        ..      LDRH     r0,[r0,#0]
        0x00001a7a:    05c0        ..      LSLS     r0,r0,#23
        0x00001a7c:    0dc0        ..      LSRS     r0,r0,#23
        0x00001a7e:    49ef        .I      LDR      r1,[pc,#956] ; [0x1e3c] = 0x20000704
        0x00001a80:    540c        .T      STRB     r4,[r1,r0]
        0x00001a82:    48ed        .H      LDR      r0,[pc,#948] ; [0x1e38] = 0x20000024
        0x00001a84:    6800        .h      LDR      r0,[r0,#0]
        0x00001a86:    1c40        @.      ADDS     r0,r0,#1
        0x00001a88:    49eb        .I      LDR      r1,[pc,#940] ; [0x1e38] = 0x20000024
        0x00001a8a:    6008        .`      STR      r0,[r1,#0]
        0x00001a8c:    48ec        .H      LDR      r0,[pc,#944] ; [0x1e40] = 0x2000002c
        0x00001a8e:    6800        .h      LDR      r0,[r0,#0]
        0x00001a90:    2801        .(      CMP      r0,#1
        0x00001a92:    d106        ..      BNE      0x1aa2 ; iputc + 48
        0x00001a94:    2000        .       MOVS     r0,#0
        0x00001a96:    49ea        .I      LDR      r1,[pc,#936] ; [0x1e40] = 0x2000002c
        0x00001a98:    6008        .`      STR      r0,[r1,#0]
        0x00001a9a:    2102        .!      MOVS     r1,#2
        0x00001a9c:    48e9        .H      LDR      r0,[pc,#932] ; [0x1e44] = 0x40050000
        0x00001a9e:    f000fb5f    .._.    BL       UART_ENABLE_INT ; 0x2160
        0x00001aa2:    bd10        ..      POP      {r4,pc}
    iputs
        0x00001aa4:    b570        p.      PUSH     {r4-r6,lr}
        0x00001aa6:    4604        .F      MOV      r4,r0
        0x00001aa8:    2500        .%      MOVS     r5,#0
        0x00001aaa:    bf00        ..      NOP      
        0x00001aac:    e00c        ..      B        0x1ac8 ; iputs + 36
        0x00001aae:    5d60        `]      LDRB     r0,[r4,r5]
        0x00001ab0:    49e1        .I      LDR      r1,[pc,#900] ; [0x1e38] = 0x20000024
        0x00001ab2:    8809        ..      LDRH     r1,[r1,#0]
        0x00001ab4:    05c9        ..      LSLS     r1,r1,#23
        0x00001ab6:    0dc9        ..      LSRS     r1,r1,#23
        0x00001ab8:    4ae0        .J      LDR      r2,[pc,#896] ; [0x1e3c] = 0x20000704
        0x00001aba:    5450        PT      STRB     r0,[r2,r1]
        0x00001abc:    48de        .H      LDR      r0,[pc,#888] ; [0x1e38] = 0x20000024
        0x00001abe:    6800        .h      LDR      r0,[r0,#0]
        0x00001ac0:    1c40        @.      ADDS     r0,r0,#1
        0x00001ac2:    49dd        .I      LDR      r1,[pc,#884] ; [0x1e38] = 0x20000024
        0x00001ac4:    6008        .`      STR      r0,[r1,#0]
        0x00001ac6:    1c6d        m.      ADDS     r5,r5,#1
        0x00001ac8:    5d60        `]      LDRB     r0,[r4,r5]
        0x00001aca:    2800        .(      CMP      r0,#0
        0x00001acc:    d1ef        ..      BNE      0x1aae ; iputs + 10
        0x00001ace:    48dc        .H      LDR      r0,[pc,#880] ; [0x1e40] = 0x2000002c
        0x00001ad0:    6800        .h      LDR      r0,[r0,#0]
        0x00001ad2:    2801        .(      CMP      r0,#1
        0x00001ad4:    d106        ..      BNE      0x1ae4 ; iputs + 64
        0x00001ad6:    2000        .       MOVS     r0,#0
        0x00001ad8:    49d9        .I      LDR      r1,[pc,#868] ; [0x1e40] = 0x2000002c
        0x00001ada:    6008        .`      STR      r0,[r1,#0]
        0x00001adc:    2102        .!      MOVS     r1,#2
        0x00001ade:    48d9        .H      LDR      r0,[pc,#868] ; [0x1e44] = 0x40050000
        0x00001ae0:    f000fb3e    ..>.    BL       UART_ENABLE_INT ; 0x2160
        0x00001ae4:    bd70        p.      POP      {r4-r6,pc}
    iputchar
        0x00001ae6:    b510        ..      PUSH     {r4,lr}
        0x00001ae8:    4604        .F      MOV      r4,r0
        0x00001aea:    48d3        .H      LDR      r0,[pc,#844] ; [0x1e38] = 0x20000024
        0x00001aec:    8800        ..      LDRH     r0,[r0,#0]
        0x00001aee:    05c0        ..      LSLS     r0,r0,#23
        0x00001af0:    0dc0        ..      LSRS     r0,r0,#23
        0x00001af2:    49d2        .I      LDR      r1,[pc,#840] ; [0x1e3c] = 0x20000704
        0x00001af4:    540c        .T      STRB     r4,[r1,r0]
        0x00001af6:    48d0        .H      LDR      r0,[pc,#832] ; [0x1e38] = 0x20000024
        0x00001af8:    6800        .h      LDR      r0,[r0,#0]
        0x00001afa:    1c40        @.      ADDS     r0,r0,#1
        0x00001afc:    49ce        .I      LDR      r1,[pc,#824] ; [0x1e38] = 0x20000024
        0x00001afe:    6008        .`      STR      r0,[r1,#0]
        0x00001b00:    48cf        .H      LDR      r0,[pc,#828] ; [0x1e40] = 0x2000002c
        0x00001b02:    6800        .h      LDR      r0,[r0,#0]
        0x00001b04:    2801        .(      CMP      r0,#1
        0x00001b06:    d106        ..      BNE      0x1b16 ; iputchar + 48
        0x00001b08:    2000        .       MOVS     r0,#0
        0x00001b0a:    49cd        .I      LDR      r1,[pc,#820] ; [0x1e40] = 0x2000002c
        0x00001b0c:    6008        .`      STR      r0,[r1,#0]
        0x00001b0e:    2102        .!      MOVS     r1,#2
        0x00001b10:    48cc        .H      LDR      r0,[pc,#816] ; [0x1e44] = 0x40050000
        0x00001b12:    f000fb25    ..%.    BL       UART_ENABLE_INT ; 0x2160
        0x00001b16:    bd10        ..      POP      {r4,pc}
    igetc
        0x00001b18:    48cb        .H      LDR      r0,[pc,#812] ; [0x1e48] = 0x20000020
        0x00001b1a:    7801        .x      LDRB     r1,[r0,#0]
        0x00001b1c:    6800        .h      LDR      r0,[r0,#0]
        0x00001b1e:    1c40        @.      ADDS     r0,r0,#1
        0x00001b20:    4ac9        .J      LDR      r2,[pc,#804] ; [0x1e48] = 0x20000020
        0x00001b22:    6010        .`      STR      r0,[r2,#0]
        0x00001b24:    b2c8        ..      UXTB     r0,r1
        0x00001b26:    49c9        .I      LDR      r1,[pc,#804] ; [0x1e4c] = 0x20000604
        0x00001b28:    5c08        .\      LDRB     r0,[r1,r0]
        0x00001b2a:    4770        pG      BX       lr
    iungetc
        0x00001b2c:    4770        pG      BX       lr
    clr
        0x00001b2e:    b510        ..      PUSH     {r4,lr}
        0x00001b30:    2400        .$      MOVS     r4,#0
        0x00001b32:    e003        ..      B        0x1b3c ; clr + 14
        0x00001b34:    200a        .       MOVS     r0,#0xa
        0x00001b36:    f7ffff9c    ....    BL       iputc ; 0x1a72
        0x00001b3a:    1c64        d.      ADDS     r4,r4,#1
        0x00001b3c:    2c50        P,      CMP      r4,#0x50
        0x00001b3e:    d3f9        ..      BCC      0x1b34 ; clr + 6
        0x00001b40:    200d        .       MOVS     r0,#0xd
        0x00001b42:    f7ffff96    ....    BL       iputc ; 0x1a72
        0x00001b46:    bd10        ..      POP      {r4,pc}
    itoa
        0x00001b48:    b5f8        ..      PUSH     {r3-r7,lr}
        0x00001b4a:    4606        .F      MOV      r6,r0
        0x00001b4c:    460c        .F      MOV      r4,r1
        0x00001b4e:    2500        .%      MOVS     r5,#0
        0x00001b50:    e00c        ..      B        0x1b6c ; itoa + 36
        0x00001b52:    210a        .!      MOVS     r1,#0xa
        0x00001b54:    4630        0F      MOV      r0,r6
        0x00001b56:    f005f941    ..A.    BL       __aeabi_uidiv ; 0x6ddc
        0x00001b5a:    3130        01      ADDS     r1,r1,#0x30
        0x00001b5c:    4628        (F      MOV      r0,r5
        0x00001b5e:    1c6d        m.      ADDS     r5,r5,#1
        0x00001b60:    5421        !T      STRB     r1,[r4,r0]
        0x00001b62:    210a        .!      MOVS     r1,#0xa
        0x00001b64:    4630        0F      MOV      r0,r6
        0x00001b66:    f005f939    ..9.    BL       __aeabi_uidiv ; 0x6ddc
        0x00001b6a:    4606        .F      MOV      r6,r0
        0x00001b6c:    2e00        ..      CMP      r6,#0
        0x00001b6e:    d1f0        ..      BNE      0x1b52 ; itoa + 10
        0x00001b70:    2d00        .-      CMP      r5,#0
        0x00001b72:    d102        ..      BNE      0x1b7a ; itoa + 50
        0x00001b74:    2501        .%      MOVS     r5,#1
        0x00001b76:    2030        0       MOVS     r0,#0x30
        0x00001b78:    7020         p      STRB     r0,[r4,#0]
        0x00001b7a:    2000        .       MOVS     r0,#0
        0x00001b7c:    5560        `U      STRB     r0,[r4,r5]
        0x00001b7e:    9500        ..      STR      r5,[sp,#0]
        0x00001b80:    e007        ..      B        0x1b92 ; itoa + 74
        0x00001b82:    5da7        .]      LDRB     r7,[r4,r6]
        0x00001b84:    1e68        h.      SUBS     r0,r5,#1
        0x00001b86:    4605        .F      MOV      r5,r0
        0x00001b88:    5c22        "\      LDRB     r2,[r4,r0]
        0x00001b8a:    4630        0F      MOV      r0,r6
        0x00001b8c:    1c76        v.      ADDS     r6,r6,#1
        0x00001b8e:    5422        "T      STRB     r2,[r4,r0]
        0x00001b90:    5567        gU      STRB     r7,[r4,r5]
        0x00001b92:    42ae        .B      CMP      r6,r5
        0x00001b94:    d3f5        ..      BCC      0x1b82 ; itoa + 58
        0x00001b96:    9800        ..      LDR      r0,[sp,#0]
        0x00001b98:    bdf8        ..      POP      {r3-r7,pc}
    itoh
        0x00001b9a:    b510        ..      PUSH     {r4,lr}
        0x00001b9c:    4602        .F      MOV      r2,r0
        0x00001b9e:    4613        .F      MOV      r3,r2
        0x00001ba0:    1110        ..      ASRS     r0,r2,#4
        0x00001ba2:    4cab        .L      LDR      r4,[pc,#684] ; [0x1e50] = 0x6e8a
        0x00001ba4:    5c20         \      LDRB     r0,[r4,r0]
        0x00001ba6:    7008        .p      STRB     r0,[r1,#0]
        0x00001ba8:    0718        ..      LSLS     r0,r3,#28
        0x00001baa:    0e03        ..      LSRS     r3,r0,#24
        0x00001bac:    111b        ..      ASRS     r3,r3,#4
        0x00001bae:    4620         F      MOV      r0,r4
        0x00001bb0:    5cc0        .\      LDRB     r0,[r0,r3]
        0x00001bb2:    7048        Hp      STRB     r0,[r1,#1]
        0x00001bb4:    2000        .       MOVS     r0,#0
        0x00001bb6:    7088        .p      STRB     r0,[r1,#2]
        0x00001bb8:    4608        .F      MOV      r0,r1
        0x00001bba:    bd10        ..      POP      {r4,pc}
    dps
        0x00001bbc:    b510        ..      PUSH     {r4,lr}
        0x00001bbe:    a0a5        ..      ADR      r0,{pc}+0x296 ; 0x1e54
        0x00001bc0:    f7ffff70    ..p.    BL       iputs ; 0x1aa4
        0x00001bc4:    2000        .       MOVS     r0,#0
        0x00001bc6:    49a5        .I      LDR      r1,[pc,#660] ; [0x1e5c] = 0x20000034
        0x00001bc8:    6008        .`      STR      r0,[r1,#0]
        0x00001bca:    bd10        ..      POP      {r4,pc}
    strncmp
        0x00001bcc:    b510        ..      PUSH     {r4,lr}
        0x00001bce:    4603        .F      MOV      r3,r0
        0x00001bd0:    e005        ..      B        0x1bde ; strncmp + 18
        0x00001bd2:    5c98        .\      LDRB     r0,[r3,r2]
        0x00001bd4:    5c8c        .\      LDRB     r4,[r1,r2]
        0x00001bd6:    42a0        .B      CMP      r0,r4
        0x00001bd8:    d001        ..      BEQ      0x1bde ; strncmp + 18
        0x00001bda:    2000        .       MOVS     r0,#0
        0x00001bdc:    bd10        ..      POP      {r4,pc}
        0x00001bde:    4610        .F      MOV      r0,r2
        0x00001be0:    1e52        R.      SUBS     r2,r2,#1
        0x00001be2:    2800        .(      CMP      r0,#0
        0x00001be4:    d1f5        ..      BNE      0x1bd2 ; strncmp + 6
        0x00001be6:    2001        .       MOVS     r0,#1
        0x00001be8:    e7f8        ..      B        0x1bdc ; strncmp + 16
    strcmp
        0x00001bea:    b510        ..      PUSH     {r4,lr}
        0x00001bec:    4602        .F      MOV      r2,r0
        0x00001bee:    460b        .F      MOV      r3,r1
        0x00001bf0:    2100        .!      MOVS     r1,#0
        0x00001bf2:    e006        ..      B        0x1c02 ; strcmp + 24
        0x00001bf4:    5c50        P\      LDRB     r0,[r2,r1]
        0x00001bf6:    5c5c        \\      LDRB     r4,[r3,r1]
        0x00001bf8:    42a0        .B      CMP      r0,r4
        0x00001bfa:    d001        ..      BEQ      0x1c00 ; strcmp + 22
        0x00001bfc:    2000        .       MOVS     r0,#0
        0x00001bfe:    bd10        ..      POP      {r4,pc}
        0x00001c00:    1c49        I.      ADDS     r1,r1,#1
        0x00001c02:    5c50        P\      LDRB     r0,[r2,r1]
        0x00001c04:    2800        .(      CMP      r0,#0
        0x00001c06:    d1f5        ..      BNE      0x1bf4 ; strcmp + 10
        0x00001c08:    5c58        X\      LDRB     r0,[r3,r1]
        0x00001c0a:    2800        .(      CMP      r0,#0
        0x00001c0c:    d1f2        ..      BNE      0x1bf4 ; strcmp + 10
        0x00001c0e:    2001        .       MOVS     r0,#1
        0x00001c10:    e7f5        ..      B        0x1bfe ; strcmp + 20
    strlen
        0x00001c12:    4601        .F      MOV      r1,r0
        0x00001c14:    2000        .       MOVS     r0,#0
        0x00001c16:    e000        ..      B        0x1c1a ; strlen + 8
        0x00001c18:    1c40        @.      ADDS     r0,r0,#1
        0x00001c1a:    780b        .x      LDRB     r3,[r1,#0]
        0x00001c1c:    1c49        I.      ADDS     r1,r1,#1
        0x00001c1e:    2b00        .+      CMP      r3,#0
        0x00001c20:    d1fa        ..      BNE      0x1c18 ; strlen + 6
        0x00001c22:    4770        pG      BX       lr
    sendInfo
        0x00001c24:    b510        ..      PUSH     {r4,lr}
        0x00001c26:    4604        .F      MOV      r4,r0
        0x00001c28:    4620         F      MOV      r0,r4
        0x00001c2a:    f7ffff3b    ..;.    BL       iputs ; 0x1aa4
        0x00001c2e:    f7ffffc5    ....    BL       dps ; 0x1bbc
        0x00001c32:    bd10        ..      POP      {r4,pc}
    UART0_IRQHandler
        0x00001c34:    b510        ..      PUSH     {r4,lr}
        0x00001c36:    bf00        ..      NOP      
        0x00001c38:    4882        .H      LDR      r0,[pc,#520] ; [0x1e44] = 0x40050000
        0x00001c3a:    69c0        .i      LDR      r0,[r0,#0x1c]
        0x00001c3c:    21ff        .!      MOVS     r1,#0xff
        0x00001c3e:    3101        .1      ADDS     r1,#1
        0x00001c40:    4008        .@      ANDS     r0,r0,r1
        0x00001c42:    2800        .(      CMP      r0,#0
        0x00001c44:    d106        ..      BNE      0x1c54 ; UART0_IRQHandler + 32
        0x00001c46:    bf00        ..      NOP      
        0x00001c48:    487e        ~H      LDR      r0,[pc,#504] ; [0x1e44] = 0x40050000
        0x00001c4a:    69c0        .i      LDR      r0,[r0,#0x1c]
        0x00001c4c:    0109        ..      LSLS     r1,r1,#4
        0x00001c4e:    4008        .@      ANDS     r0,r0,r1
        0x00001c50:    2800        .(      CMP      r0,#0
        0x00001c52:    d07d        }.      BEQ      0x1d50 ; UART0_IRQHandler + 284
        0x00001c54:    e08d        ..      B        0x1d72 ; UART0_IRQHandler + 318
        0x00001c56:    487b        {H      LDR      r0,[pc,#492] ; [0x1e44] = 0x40050000
        0x00001c58:    6800        .h      LDR      r0,[r0,#0]
        0x00001c5a:    b2c4        ..      UXTB     r4,r0
        0x00001c5c:    2c08        .,      CMP      r4,#8
        0x00001c5e:    d129        ).      BNE      0x1cb4 ; UART0_IRQHandler + 128
        0x00001c60:    487e        ~H      LDR      r0,[pc,#504] ; [0x1e5c] = 0x20000034
        0x00001c62:    6800        .h      LDR      r0,[r0,#0]
        0x00001c64:    2800        .(      CMP      r0,#0
        0x00001c66:    d103        ..      BNE      0x1c70 ; UART0_IRQHandler + 60
        0x00001c68:    2007        .       MOVS     r0,#7
        0x00001c6a:    f7ffff02    ....    BL       iputc ; 0x1a72
        0x00001c6e:    bd10        ..      POP      {r4,pc}
        0x00001c70:    a07b        {.      ADR      r0,{pc}+0x1f0 ; 0x1e60
        0x00001c72:    f7ffff17    ....    BL       iputs ; 0x1aa4
        0x00001c76:    487b        {H      LDR      r0,[pc,#492] ; [0x1e64] = 0x20000038
        0x00001c78:    6800        .h      LDR      r0,[r0,#0]
        0x00001c7a:    2800        .(      CMP      r0,#0
        0x00001c7c:    d005        ..      BEQ      0x1c8a ; UART0_IRQHandler + 86
        0x00001c7e:    4879        yH      LDR      r0,[pc,#484] ; [0x1e64] = 0x20000038
        0x00001c80:    6800        .h      LDR      r0,[r0,#0]
        0x00001c82:    1e40        @.      SUBS     r0,r0,#1
        0x00001c84:    4977        wI      LDR      r1,[pc,#476] ; [0x1e64] = 0x20000038
        0x00001c86:    6008        .`      STR      r0,[r1,#0]
        0x00001c88:    e013        ..      B        0x1cb2 ; UART0_IRQHandler + 126
        0x00001c8a:    4874        tH      LDR      r0,[pc,#464] ; [0x1e5c] = 0x20000034
        0x00001c8c:    6800        .h      LDR      r0,[r0,#0]
        0x00001c8e:    1e40        @.      SUBS     r0,r0,#1
        0x00001c90:    4972        rI      LDR      r1,[pc,#456] ; [0x1e5c] = 0x20000034
        0x00001c92:    6008        .`      STR      r0,[r1,#0]
        0x00001c94:    4874        tH      LDR      r0,[pc,#464] ; [0x1e68] = 0x2000001c
        0x00001c96:    6800        .h      LDR      r0,[r0,#0]
        0x00001c98:    1e40        @.      SUBS     r0,r0,#1
        0x00001c9a:    4973        sI      LDR      r1,[pc,#460] ; [0x1e68] = 0x2000001c
        0x00001c9c:    6008        .`      STR      r0,[r1,#0]
        0x00001c9e:    486a        jH      LDR      r0,[pc,#424] ; [0x1e48] = 0x20000020
        0x00001ca0:    6800        .h      LDR      r0,[r0,#0]
        0x00001ca2:    6809        .h      LDR      r1,[r1,#0]
        0x00001ca4:    4288        .B      CMP      r0,r1
        0x00001ca6:    d304        ..      BCC      0x1cb2 ; UART0_IRQHandler + 126
        0x00001ca8:    4867        gH      LDR      r0,[pc,#412] ; [0x1e48] = 0x20000020
        0x00001caa:    6800        .h      LDR      r0,[r0,#0]
        0x00001cac:    1e40        @.      SUBS     r0,r0,#1
        0x00001cae:    4966        fI      LDR      r1,[pc,#408] ; [0x1e48] = 0x20000020
        0x00001cb0:    6008        .`      STR      r0,[r1,#0]
        0x00001cb2:    e7dc        ..      B        0x1c6e ; UART0_IRQHandler + 58
        0x00001cb4:    4620         F      MOV      r0,r4
        0x00001cb6:    496d        mI      LDR      r1,[pc,#436] ; [0x1e6c] = 0x20000030
        0x00001cb8:    6809        .h      LDR      r1,[r1,#0]
        0x00001cba:    0209        ..      LSLS     r1,r1,#8
        0x00001cbc:    4a6b        kJ      LDR      r2,[pc,#428] ; [0x1e6c] = 0x20000030
        0x00001cbe:    6011        .`      STR      r1,[r2,#0]
        0x00001cc0:    4611        .F      MOV      r1,r2
        0x00001cc2:    6809        .h      LDR      r1,[r1,#0]
        0x00001cc4:    4301        .C      ORRS     r1,r1,r0
        0x00001cc6:    6011        .`      STR      r1,[r2,#0]
        0x00001cc8:    2820         (      CMP      r0,#0x20
        0x00001cca:    db01        ..      BLT      0x1cd0 ; UART0_IRQHandler + 156
        0x00001ccc:    287e        ~(      CMP      r0,#0x7e
        0x00001cce:    dd03        ..      BLE      0x1cd8 ; UART0_IRQHandler + 164
        0x00001cd0:    280a        .(      CMP      r0,#0xa
        0x00001cd2:    d001        ..      BEQ      0x1cd8 ; UART0_IRQHandler + 164
        0x00001cd4:    280d        .(      CMP      r0,#0xd
        0x00001cd6:    d101        ..      BNE      0x1cdc ; UART0_IRQHandler + 168
        0x00001cd8:    2101        .!      MOVS     r1,#1
        0x00001cda:    e000        ..      B        0x1cde ; UART0_IRQHandler + 170
        0x00001cdc:    2100        .!      MOVS     r1,#0
        0x00001cde:    2900        .)      CMP      r1,#0
        0x00001ce0:    d017        ..      BEQ      0x1d12 ; UART0_IRQHandler + 222
        0x00001ce2:    2c5b        [,      CMP      r4,#0x5b
        0x00001ce4:    d109        ..      BNE      0x1cfa ; UART0_IRQHandler + 198
        0x00001ce6:    4861        aH      LDR      r0,[pc,#388] ; [0x1e6c] = 0x20000030
        0x00001ce8:    6800        .h      LDR      r0,[r0,#0]
        0x00001cea:    21ff        .!      MOVS     r1,#0xff
        0x00001cec:    0209        ..      LSLS     r1,r1,#8
        0x00001cee:    4008        .@      ANDS     r0,r0,r1
        0x00001cf0:    211b        .!      MOVS     r1,#0x1b
        0x00001cf2:    0209        ..      LSLS     r1,r1,#8
        0x00001cf4:    4288        .B      CMP      r0,r1
        0x00001cf6:    d100        ..      BNE      0x1cfa ; UART0_IRQHandler + 198
        0x00001cf8:    e7b9        ..      B        0x1c6e ; UART0_IRQHandler + 58
        0x00001cfa:    485c        \H      LDR      r0,[pc,#368] ; [0x1e6c] = 0x20000030
        0x00001cfc:    6800        .h      LDR      r0,[r0,#0]
        0x00001cfe:    495c        \I      LDR      r1,[pc,#368] ; [0x1e70] = 0xffff00
        0x00001d00:    4008        .@      ANDS     r0,r0,r1
        0x00001d02:    495c        \I      LDR      r1,[pc,#368] ; [0x1e74] = 0x1b5b00
        0x00001d04:    4288        .B      CMP      r0,r1
        0x00001d06:    d105        ..      BNE      0x1d14 ; UART0_IRQHandler + 224
        0x00001d08:    2c41        A,      CMP      r4,#0x41
        0x00001d0a:    db03        ..      BLT      0x1d14 ; UART0_IRQHandler + 224
        0x00001d0c:    2c44        D,      CMP      r4,#0x44
        0x00001d0e:    dc01        ..      BGT      0x1d14 ; UART0_IRQHandler + 224
        0x00001d10:    e7ad        ..      B        0x1c6e ; UART0_IRQHandler + 58
        0x00001d12:    e7ac        ..      B        0x1c6e ; UART0_IRQHandler + 58
        0x00001d14:    484c        LH      LDR      r0,[pc,#304] ; [0x1e48] = 0x20000020
        0x00001d16:    6800        .h      LDR      r0,[r0,#0]
        0x00001d18:    30ff        .0      ADDS     r0,r0,#0xff
        0x00001d1a:    3001        .0      ADDS     r0,#1
        0x00001d1c:    4952        RI      LDR      r1,[pc,#328] ; [0x1e68] = 0x2000001c
        0x00001d1e:    6809        .h      LDR      r1,[r1,#0]
        0x00001d20:    4288        .B      CMP      r0,r1
        0x00001d22:    d303        ..      BCC      0x1d2c ; UART0_IRQHandler + 248
        0x00001d24:    484d        MH      LDR      r0,[pc,#308] ; [0x1e5c] = 0x20000034
        0x00001d26:    6800        .h      LDR      r0,[r0,#0]
        0x00001d28:    28ff        .(      CMP      r0,#0xff
        0x00001d2a:    d919        ..      BLS      0x1d60 ; UART0_IRQHandler + 300
        0x00001d2c:    4620         F      MOV      r0,r4
        0x00001d2e:    f7fffea0    ....    BL       iputc ; 0x1a72
        0x00001d32:    484c        LH      LDR      r0,[pc,#304] ; [0x1e64] = 0x20000038
        0x00001d34:    6800        .h      LDR      r0,[r0,#0]
        0x00001d36:    1c40        @.      ADDS     r0,r0,#1
        0x00001d38:    494a        JI      LDR      r1,[pc,#296] ; [0x1e64] = 0x20000038
        0x00001d3a:    6008        .`      STR      r0,[r1,#0]
        0x00001d3c:    2c0d        .,      CMP      r4,#0xd
        0x00001d3e:    d10e        ..      BNE      0x1d5e ; UART0_IRQHandler + 298
        0x00001d40:    2000        .       MOVS     r0,#0
        0x00001d42:    6008        .`      STR      r0,[r1,#0]
        0x00001d44:    4848        HH      LDR      r0,[pc,#288] ; [0x1e68] = 0x2000001c
        0x00001d46:    7800        .x      LDRB     r0,[r0,#0]
        0x00001d48:    1e40        @.      SUBS     r0,r0,#1
        0x00001d4a:    b2c0        ..      UXTB     r0,r0
        0x00001d4c:    493f        ?I      LDR      r1,[pc,#252] ; [0x1e4c] = 0x20000604
        0x00001d4e:    e000        ..      B        0x1d52 ; UART0_IRQHandler + 286
        0x00001d50:    e019        ..      B        0x1d86 ; UART0_IRQHandler + 338
        0x00001d52:    540c        .T      STRB     r4,[r1,r0]
        0x00001d54:    483c        <H      LDR      r0,[pc,#240] ; [0x1e48] = 0x20000020
        0x00001d56:    6800        .h      LDR      r0,[r0,#0]
        0x00001d58:    1e40        @.      SUBS     r0,r0,#1
        0x00001d5a:    493b        ;I      LDR      r1,[pc,#236] ; [0x1e48] = 0x20000020
        0x00001d5c:    6008        .`      STR      r0,[r1,#0]
        0x00001d5e:    e786        ..      B        0x1c6e ; UART0_IRQHandler + 58
        0x00001d60:    4841        AH      LDR      r0,[pc,#260] ; [0x1e68] = 0x2000001c
        0x00001d62:    7801        .x      LDRB     r1,[r0,#0]
        0x00001d64:    6800        .h      LDR      r0,[r0,#0]
        0x00001d66:    1c40        @.      ADDS     r0,r0,#1
        0x00001d68:    4a3f        ?J      LDR      r2,[pc,#252] ; [0x1e68] = 0x2000001c
        0x00001d6a:    6010        .`      STR      r0,[r2,#0]
        0x00001d6c:    b2c8        ..      UXTB     r0,r1
        0x00001d6e:    4937        7I      LDR      r1,[pc,#220] ; [0x1e4c] = 0x20000604
        0x00001d70:    540c        .T      STRB     r4,[r1,r0]
        0x00001d72:    bf00        ..      NOP      
        0x00001d74:    4833        3H      LDR      r0,[pc,#204] ; [0x1e44] = 0x40050000
        0x00001d76:    6980        .i      LDR      r0,[r0,#0x18]
        0x00001d78:    2101        .!      MOVS     r1,#1
        0x00001d7a:    0389        ..      LSLS     r1,r1,#14
        0x00001d7c:    4008        .@      ANDS     r0,r0,r1
        0x00001d7e:    2800        .(      CMP      r0,#0
        0x00001d80:    d100        ..      BNE      0x1d84 ; UART0_IRQHandler + 336
        0x00001d82:    e768        h.      B        0x1c56 ; UART0_IRQHandler + 34
        0x00001d84:    e039        9.      B        0x1dfa ; UART0_IRQHandler + 454
        0x00001d86:    bf00        ..      NOP      
        0x00001d88:    482e        .H      LDR      r0,[pc,#184] ; [0x1e44] = 0x40050000
        0x00001d8a:    69c0        .i      LDR      r0,[r0,#0x1c]
        0x00001d8c:    2101        .!      MOVS     r1,#1
        0x00001d8e:    0249        I.      LSLS     r1,r1,#9
        0x00001d90:    4008        .@      ANDS     r0,r0,r1
        0x00001d92:    2800        .(      CMP      r0,#0
        0x00001d94:    d031        1.      BEQ      0x1dfa ; UART0_IRQHandler + 454
        0x00001d96:    e00c        ..      B        0x1db2 ; UART0_IRQHandler + 382
        0x00001d98:    4837        7H      LDR      r0,[pc,#220] ; [0x1e78] = 0x20000028
        0x00001d9a:    8800        ..      LDRH     r0,[r0,#0]
        0x00001d9c:    05c0        ..      LSLS     r0,r0,#23
        0x00001d9e:    0dc0        ..      LSRS     r0,r0,#23
        0x00001da0:    4926        &I      LDR      r1,[pc,#152] ; [0x1e3c] = 0x20000704
        0x00001da2:    5c08        .\      LDRB     r0,[r1,r0]
        0x00001da4:    4927        'I      LDR      r1,[pc,#156] ; [0x1e44] = 0x40050000
        0x00001da6:    6008        .`      STR      r0,[r1,#0]
        0x00001da8:    4833        3H      LDR      r0,[pc,#204] ; [0x1e78] = 0x20000028
        0x00001daa:    6800        .h      LDR      r0,[r0,#0]
        0x00001dac:    1c40        @.      ADDS     r0,r0,#1
        0x00001dae:    4932        2I      LDR      r1,[pc,#200] ; [0x1e78] = 0x20000028
        0x00001db0:    6008        .`      STR      r0,[r1,#0]
        0x00001db2:    4831        1H      LDR      r0,[pc,#196] ; [0x1e78] = 0x20000028
        0x00001db4:    6800        .h      LDR      r0,[r0,#0]
        0x00001db6:    4920         I      LDR      r1,[pc,#128] ; [0x1e38] = 0x20000024
        0x00001db8:    6809        .h      LDR      r1,[r1,#0]
        0x00001dba:    4288        .B      CMP      r0,r1
        0x00001dbc:    d207        ..      BCS      0x1dce ; UART0_IRQHandler + 410
        0x00001dbe:    bf00        ..      NOP      
        0x00001dc0:    4820         H      LDR      r0,[pc,#128] ; [0x1e44] = 0x40050000
        0x00001dc2:    6980        .i      LDR      r0,[r0,#0x18]
        0x00001dc4:    2101        .!      MOVS     r1,#1
        0x00001dc6:    05c9        ..      LSLS     r1,r1,#23
        0x00001dc8:    4008        .@      ANDS     r0,r0,r1
        0x00001dca:    2800        .(      CMP      r0,#0
        0x00001dcc:    d0e4        ..      BEQ      0x1d98 ; UART0_IRQHandler + 356
        0x00001dce:    482a        *H      LDR      r0,[pc,#168] ; [0x1e78] = 0x20000028
        0x00001dd0:    6800        .h      LDR      r0,[r0,#0]
        0x00001dd2:    4919        .I      LDR      r1,[pc,#100] ; [0x1e38] = 0x20000024
        0x00001dd4:    6809        .h      LDR      r1,[r1,#0]
        0x00001dd6:    4288        .B      CMP      r0,r1
        0x00001dd8:    d10f        ..      BNE      0x1dfa ; UART0_IRQHandler + 454
        0x00001dda:    2002        .       MOVS     r0,#2
        0x00001ddc:    4919        .I      LDR      r1,[pc,#100] ; [0x1e44] = 0x40050000
        0x00001dde:    6849        Ih      LDR      r1,[r1,#4]
        0x00001de0:    4381        .C      BICS     r1,r1,r0
        0x00001de2:    4a18        .J      LDR      r2,[pc,#96] ; [0x1e44] = 0x40050000
        0x00001de4:    6051        Q`      STR      r1,[r2,#4]
        0x00001de6:    bf00        ..      NOP      
        0x00001de8:    2001        .       MOVS     r0,#1
        0x00001dea:    4915        .I      LDR      r1,[pc,#84] ; [0x1e40] = 0x2000002c
        0x00001dec:    6008        .`      STR      r0,[r1,#0]
        0x00001dee:    4812        .H      LDR      r0,[pc,#72] ; [0x1e38] = 0x20000024
        0x00001df0:    7800        .x      LDRB     r0,[r0,#0]
        0x00001df2:    4911        .I      LDR      r1,[pc,#68] ; [0x1e38] = 0x20000024
        0x00001df4:    6008        .`      STR      r0,[r1,#0]
        0x00001df6:    4920         I      LDR      r1,[pc,#128] ; [0x1e78] = 0x20000028
        0x00001df8:    6008        .`      STR      r0,[r1,#0]
        0x00001dfa:    bf00        ..      NOP      
        0x00001dfc:    e737        7.      B        0x1c6e ; UART0_IRQHandler + 58
    uartInit
        0x00001dfe:    b510        ..      PUSH     {r4,lr}
        0x00001e00:    b08a        ..      SUB      sp,sp,#0x28
        0x00001e02:    bf00        ..      NOP      
        0x00001e04:    2005        .       MOVS     r0,#5
        0x00001e06:    0700        ..      LSLS     r0,r0,#28
        0x00001e08:    6b80        .k      LDR      r0,[r0,#0x38]
        0x00001e0a:    2130        0!      MOVS     r1,#0x30
        0x00001e0c:    4308        .C      ORRS     r0,r0,r1
        0x00001e0e:    2105        .!      MOVS     r1,#5
        0x00001e10:    0709        ..      LSLS     r1,r1,#28
        0x00001e12:    6388        .c      STR      r0,[r1,#0x38]
        0x00001e14:    4819        .H      LDR      r0,[pc,#100] ; [0x1e7c] = 0x50000040
        0x00001e16:    6900        .i      LDR      r0,[r0,#0x10]
        0x00001e18:    2103        .!      MOVS     r1,#3
        0x00001e1a:    0749        I.      LSLS     r1,r1,#29
        0x00001e1c:    4308        .C      ORRS     r0,r0,r1
        0x00001e1e:    4917        .I      LDR      r1,[pc,#92] ; [0x1e7c] = 0x50000040
        0x00001e20:    6108        .a      STR      r0,[r1,#0x10]
        0x00001e22:    bf00        ..      NOP      
        0x00001e24:    2000        .       MOVS     r0,#0
        0x00001e26:    9000        ..      STR      r0,[sp,#0]
        0x00001e28:    2001        .       MOVS     r0,#1
        0x00001e2a:    9001        ..      STR      r0,[sp,#4]
        0x00001e2c:    4814        .H      LDR      r0,[pc,#80] ; [0x1e80] = 0xb71b00
        0x00001e2e:    9002        ..      STR      r0,[sp,#8]
        0x00001e30:    20e1        .       MOVS     r0,#0xe1
        0x00001e32:    0240        @.      LSLS     r0,r0,#9
        0x00001e34:    9003        ..      STR      r0,[sp,#0xc]
        0x00001e36:    e025        %.      B        0x1e84 ; uartInit + 134
    $d
        0x00001e38:    20000024    $..     DCD    536870948
        0x00001e3c:    20000704    ...     DCD    536872708
        0x00001e40:    2000002c    ,..     DCD    536870956
        0x00001e44:    40050000    ...@    DCD    1074069504
        0x00001e48:    20000020     ..     DCD    536870944
        0x00001e4c:    20000604    ...     DCD    536872452
        0x00001e50:    00006e8a    .n..    DCD    28298
        0x00001e54:    4e534c47    GLSN    DCD    1314081863
        0x00001e58:    00002024    $ ..    DCD    8228
        0x00001e5c:    20000034    4..     DCD    536870964
        0x00001e60:    00082008    . ..    DCD    532488
        0x00001e64:    20000038    8..     DCD    536870968
        0x00001e68:    2000001c    ...     DCD    536870940
        0x00001e6c:    20000030    0..     DCD    536870960
        0x00001e70:    00ffff00    ....    DCD    16776960
        0x00001e74:    001b5b00    .[..    DCD    1792768
        0x00001e78:    20000028    (..     DCD    536870952
        0x00001e7c:    50000040    @..P    DCD    1342177344
        0x00001e80:    00b71b00    ....    DCD    12000000
    $t
        0x00001e84:    2003        .       MOVS     r0,#3
        0x00001e86:    9004        ..      STR      r0,[sp,#0x10]
        0x00001e88:    2000        .       MOVS     r0,#0
        0x00001e8a:    9005        ..      STR      r0,[sp,#0x14]
        0x00001e8c:    9006        ..      STR      r0,[sp,#0x18]
        0x00001e8e:    2010        .       MOVS     r0,#0x10
        0x00001e90:    9007        ..      STR      r0,[sp,#0x1c]
        0x00001e92:    2003        .       MOVS     r0,#3
        0x00001e94:    0700        ..      LSLS     r0,r0,#28
        0x00001e96:    9008        ..      STR      r0,[sp,#0x20]
        0x00001e98:    2064        d       MOVS     r0,#0x64
        0x00001e9a:    a908        ..      ADD      r1,sp,#0x20
        0x00001e9c:    7108        .q      STRB     r0,[r1,#4]
        0x00001e9e:    4669        iF      MOV      r1,sp
        0x00001ea0:    48b1        .H      LDR      r0,[pc,#708] ; [0x2168] = 0x40050000
        0x00001ea2:    f7fffaa1    ....    BL       DrvUART_Init ; 0x13e8
        0x00001ea6:    2102        .!      MOVS     r1,#2
        0x00001ea8:    200c        .       MOVS     r0,#0xc
        0x00001eaa:    f000f922    ..".    BL       NVIC_SetPriority ; 0x20f2
        0x00001eae:    49af        .I      LDR      r1,[pc,#700] ; [0x216c] = 0x811
        0x00001eb0:    48ad        .H      LDR      r0,[pc,#692] ; [0x2168] = 0x40050000
        0x00001eb2:    f7fffb60    ..`.    BL       DrvUART_EnableInt ; 0x1576
        0x00001eb6:    2400        .$      MOVS     r4,#0
        0x00001eb8:    e003        ..      B        0x1ec2 ; uartInit + 196
        0x00001eba:    2000        .       MOVS     r0,#0
        0x00001ebc:    49ac        .I      LDR      r1,[pc,#688] ; [0x2170] = 0x20000604
        0x00001ebe:    5508        .U      STRB     r0,[r1,r4]
        0x00001ec0:    1c64        d.      ADDS     r4,r4,#1
        0x00001ec2:    2cff        .,      CMP      r4,#0xff
        0x00001ec4:    d9f9        ..      BLS      0x1eba ; uartInit + 188
        0x00001ec6:    2400        .$      MOVS     r4,#0
        0x00001ec8:    e003        ..      B        0x1ed2 ; uartInit + 212
        0x00001eca:    2000        .       MOVS     r0,#0
        0x00001ecc:    49a9        .I      LDR      r1,[pc,#676] ; [0x2174] = 0x20000704
        0x00001ece:    5508        .U      STRB     r0,[r1,r4]
        0x00001ed0:    1c64        d.      ADDS     r4,r4,#1
        0x00001ed2:    2001        .       MOVS     r0,#1
        0x00001ed4:    0240        @.      LSLS     r0,r0,#9
        0x00001ed6:    4284        .B      CMP      r4,r0
        0x00001ed8:    d3f7        ..      BCC      0x1eca ; uartInit + 204
        0x00001eda:    2000        .       MOVS     r0,#0
        0x00001edc:    49a6        .I      LDR      r1,[pc,#664] ; [0x2178] = 0x20000020
        0x00001ede:    6008        .`      STR      r0,[r1,#0]
        0x00001ee0:    49a6        .I      LDR      r1,[pc,#664] ; [0x217c] = 0x2000001c
        0x00001ee2:    6008        .`      STR      r0,[r1,#0]
        0x00001ee4:    49a6        .I      LDR      r1,[pc,#664] ; [0x2180] = 0x20000028
        0x00001ee6:    6008        .`      STR      r0,[r1,#0]
        0x00001ee8:    49a6        .I      LDR      r1,[pc,#664] ; [0x2184] = 0x20000024
        0x00001eea:    6008        .`      STR      r0,[r1,#0]
        0x00001eec:    2001        .       MOVS     r0,#1
        0x00001eee:    49a6        .I      LDR      r1,[pc,#664] ; [0x2188] = 0x2000002c
        0x00001ef0:    6008        .`      STR      r0,[r1,#0]
        0x00001ef2:    b00a        ..      ADD      sp,sp,#0x28
        0x00001ef4:    bd10        ..      POP      {r4,pc}
    i32toh
        0x00001ef6:    b510        ..      PUSH     {r4,lr}
        0x00001ef8:    4602        .F      MOV      r2,r0
        0x00001efa:    0f13        ..      LSRS     r3,r2,#28
        0x00001efc:    4ca3        .L      LDR      r4,[pc,#652] ; [0x218c] = 0x6e9a
        0x00001efe:    5ce3        .\      LDRB     r3,[r4,r3]
        0x00001f00:    700b        .p      STRB     r3,[r1,#0]
        0x00001f02:    230f        .#      MOVS     r3,#0xf
        0x00001f04:    061b        ..      LSLS     r3,r3,#24
        0x00001f06:    4013        .@      ANDS     r3,r3,r2
        0x00001f08:    0e1b        ..      LSRS     r3,r3,#24
        0x00001f0a:    5ce3        .\      LDRB     r3,[r4,r3]
        0x00001f0c:    704b        Kp      STRB     r3,[r1,#1]
        0x00001f0e:    230f        .#      MOVS     r3,#0xf
        0x00001f10:    051b        ..      LSLS     r3,r3,#20
        0x00001f12:    4013        .@      ANDS     r3,r3,r2
        0x00001f14:    0d1b        ..      LSRS     r3,r3,#20
        0x00001f16:    5ce3        .\      LDRB     r3,[r4,r3]
        0x00001f18:    708b        .p      STRB     r3,[r1,#2]
        0x00001f1a:    230f        .#      MOVS     r3,#0xf
        0x00001f1c:    041b        ..      LSLS     r3,r3,#16
        0x00001f1e:    4013        .@      ANDS     r3,r3,r2
        0x00001f20:    0c1b        ..      LSRS     r3,r3,#16
        0x00001f22:    5ce3        .\      LDRB     r3,[r4,r3]
        0x00001f24:    70cb        .p      STRB     r3,[r1,#3]
        0x00001f26:    230f        .#      MOVS     r3,#0xf
        0x00001f28:    031b        ..      LSLS     r3,r3,#12
        0x00001f2a:    4013        .@      ANDS     r3,r3,r2
        0x00001f2c:    0b1b        ..      LSRS     r3,r3,#12
        0x00001f2e:    5ce3        .\      LDRB     r3,[r4,r3]
        0x00001f30:    710b        .q      STRB     r3,[r1,#4]
        0x00001f32:    230f        .#      MOVS     r3,#0xf
        0x00001f34:    021b        ..      LSLS     r3,r3,#8
        0x00001f36:    4013        .@      ANDS     r3,r3,r2
        0x00001f38:    0a1b        ..      LSRS     r3,r3,#8
        0x00001f3a:    5ce3        .\      LDRB     r3,[r4,r3]
        0x00001f3c:    714b        Kq      STRB     r3,[r1,#5]
        0x00001f3e:    23f0        .#      MOVS     r3,#0xf0
        0x00001f40:    4013        .@      ANDS     r3,r3,r2
        0x00001f42:    091b        ..      LSRS     r3,r3,#4
        0x00001f44:    5ce3        .\      LDRB     r3,[r4,r3]
        0x00001f46:    718b        .q      STRB     r3,[r1,#6]
        0x00001f48:    0713        ..      LSLS     r3,r2,#28
        0x00001f4a:    0f1b        ..      LSRS     r3,r3,#28
        0x00001f4c:    5ce3        .\      LDRB     r3,[r4,r3]
        0x00001f4e:    71cb        .q      STRB     r3,[r1,#7]
        0x00001f50:    2320         #      MOVS     r3,#0x20
        0x00001f52:    720b        .r      STRB     r3,[r1,#8]
        0x00001f54:    2300        .#      MOVS     r3,#0
        0x00001f56:    724b        Kr      STRB     r3,[r1,#9]
        0x00001f58:    bd10        ..      POP      {r4,pc}
    cpld_send_data
        0x00001f5a:    b570        p.      PUSH     {r4-r6,lr}
        0x00001f5c:    4604        .F      MOV      r4,r0
        0x00001f5e:    2500        .%      MOVS     r5,#0
        0x00001f60:    e01c        ..      B        0x1f9c ; cpld_send_data + 66
        0x00001f62:    2080        .       MOVS     r0,#0x80
        0x00001f64:    4204        .B      TST      r4,r0
        0x00001f66:    d005        ..      BEQ      0x1f74 ; cpld_send_data + 26
        0x00001f68:    bf00        ..      NOP      
        0x00001f6a:    2001        .       MOVS     r0,#1
        0x00001f6c:    4988        .I      LDR      r1,[pc,#544] ; [0x2190] = 0x500042cc
        0x00001f6e:    6008        .`      STR      r0,[r1,#0]
        0x00001f70:    bf00        ..      NOP      
        0x00001f72:    e005        ..      B        0x1f80 ; cpld_send_data + 38
        0x00001f74:    bf00        ..      NOP      
        0x00001f76:    2000        .       MOVS     r0,#0
        0x00001f78:    4985        .I      LDR      r1,[pc,#532] ; [0x2190] = 0x500042cc
        0x00001f7a:    6008        .`      STR      r0,[r1,#0]
        0x00001f7c:    bf00        ..      NOP      
        0x00001f7e:    bf00        ..      NOP      
        0x00001f80:    bf00        ..      NOP      
        0x00001f82:    2000        .       MOVS     r0,#0
        0x00001f84:    4982        .I      LDR      r1,[pc,#520] ; [0x2190] = 0x500042cc
        0x00001f86:    3908        .9      SUBS     r1,r1,#8
        0x00001f88:    6008        .`      STR      r0,[r1,#0]
        0x00001f8a:    bf00        ..      NOP      
        0x00001f8c:    0660        `.      LSLS     r0,r4,#25
        0x00001f8e:    0e04        ..      LSRS     r4,r0,#24
        0x00001f90:    bf00        ..      NOP      
        0x00001f92:    2001        .       MOVS     r0,#1
        0x00001f94:    6008        .`      STR      r0,[r1,#0]
        0x00001f96:    bf00        ..      NOP      
        0x00001f98:    1c68        h.      ADDS     r0,r5,#1
        0x00001f9a:    b2c5        ..      UXTB     r5,r0
        0x00001f9c:    2d08        .-      CMP      r5,#8
        0x00001f9e:    dbe0        ..      BLT      0x1f62 ; cpld_send_data + 8
        0x00001fa0:    bf00        ..      NOP      
        0x00001fa2:    2001        .       MOVS     r0,#1
        0x00001fa4:    497a        zI      LDR      r1,[pc,#488] ; [0x2190] = 0x500042cc
        0x00001fa6:    1f09        ..      SUBS     r1,r1,#4
        0x00001fa8:    6008        .`      STR      r0,[r1,#0]
        0x00001faa:    bf00        ..      NOP      
        0x00001fac:    2064        d       MOVS     r0,#0x64
        0x00001fae:    f000f918    ....    BL       sysDelayUs ; 0x21e2
        0x00001fb2:    bf00        ..      NOP      
        0x00001fb4:    2000        .       MOVS     r0,#0
        0x00001fb6:    4976        vI      LDR      r1,[pc,#472] ; [0x2190] = 0x500042cc
        0x00001fb8:    1f09        ..      SUBS     r1,r1,#4
        0x00001fba:    6008        .`      STR      r0,[r1,#0]
        0x00001fbc:    bf00        ..      NOP      
        0x00001fbe:    bd70        p.      POP      {r4-r6,pc}
    uartdecode
        0x00001fc0:    b57f        ..      PUSH     {r0-r6,lr}
        0x00001fc2:    4606        .F      MOV      r6,r0
        0x00001fc4:    460d        .F      MOV      r5,r1
        0x00001fc6:    4669        iF      MOV      r1,sp
        0x00001fc8:    4630        0F      MOV      r0,r6
        0x00001fca:    f7fffdbd    ....    BL       itoa ; 0x1b48
        0x00001fce:    4604        .F      MOV      r4,r0
        0x00001fd0:    e003        ..      B        0x1fda ; uartdecode + 26
        0x00001fd2:    2020                MOVS     r0,#0x20
        0x00001fd4:    4669        iF      MOV      r1,sp
        0x00001fd6:    5508        .U      STRB     r0,[r1,r4]
        0x00001fd8:    1c64        d.      ADDS     r4,r4,#1
        0x00001fda:    2c06        .,      CMP      r4,#6
        0x00001fdc:    d3f9        ..      BCC      0x1fd2 ; uartdecode + 18
        0x00001fde:    2200        ."      MOVS     r2,#0
        0x00001fe0:    4620         F      MOV      r0,r4
        0x00001fe2:    1c64        d.      ADDS     r4,r4,#1
        0x00001fe4:    4669        iF      MOV      r1,sp
        0x00001fe6:    540a        .T      STRB     r2,[r1,r0]
        0x00001fe8:    4628        (F      MOV      r0,r5
        0x00001fea:    f7fffd5b    ..[.    BL       iputs ; 0x1aa4
        0x00001fee:    4668        hF      MOV      r0,sp
        0x00001ff0:    f7fffd58    ..X.    BL       iputs ; 0x1aa4
        0x00001ff4:    a067        g.      ADR      r0,{pc}+0x1a0 ; 0x2194
        0x00001ff6:    f7fffd55    ..U.    BL       iputs ; 0x1aa4
        0x00001ffa:    bd7f        ..      POP      {r0-r6,pc}
    uartdecodeH
        0x00001ffc:    b57f        ..      PUSH     {r0-r6,lr}
        0x00001ffe:    4604        .F      MOV      r4,r0
        0x00002000:    460d        .F      MOV      r5,r1
        0x00002002:    4628        (F      MOV      r0,r5
        0x00002004:    f7fffd4e    ..N.    BL       iputs ; 0x1aa4
        0x00002008:    20f0        .       MOVS     r0,#0xf0
        0x0000200a:    4020         @      ANDS     r0,r0,r4
        0x0000200c:    0906        ..      LSRS     r6,r0,#4
        0x0000200e:    4862        bH      LDR      r0,[pc,#392] ; [0x2198] = 0x6eaa
        0x00002010:    5d81        .]      LDRB     r1,[r0,r6]
        0x00002012:    4668        hF      MOV      r0,sp
        0x00002014:    7001        .p      STRB     r1,[r0,#0]
        0x00002016:    0726        &.      LSLS     r6,r4,#28
        0x00002018:    0f36        6.      LSRS     r6,r6,#28
        0x0000201a:    485f        _H      LDR      r0,[pc,#380] ; [0x2198] = 0x6eaa
        0x0000201c:    5d81        .]      LDRB     r1,[r0,r6]
        0x0000201e:    4668        hF      MOV      r0,sp
        0x00002020:    7041        Ap      STRB     r1,[r0,#1]
        0x00002022:    2100        .!      MOVS     r1,#0
        0x00002024:    7081        .p      STRB     r1,[r0,#2]
        0x00002026:    f7fffd3d    ..=.    BL       iputs ; 0x1aa4
        0x0000202a:    a05a        Z.      ADR      r0,{pc}+0x16a ; 0x2194
        0x0000202c:    f7fffd3a    ..:.    BL       iputs ; 0x1aa4
        0x00002030:    bd7f        ..      POP      {r0-r6,pc}
    uartdecodeH2
        0x00002032:    b57f        ..      PUSH     {r0-r6,lr}
        0x00002034:    4604        .F      MOV      r4,r0
        0x00002036:    460d        .F      MOV      r5,r1
        0x00002038:    4628        (F      MOV      r0,r5
        0x0000203a:    f7fffd33    ..3.    BL       iputs ; 0x1aa4
        0x0000203e:    20f0        .       MOVS     r0,#0xf0
        0x00002040:    4020         @      ANDS     r0,r0,r4
        0x00002042:    0906        ..      LSRS     r6,r0,#4
        0x00002044:    4855        UH      LDR      r0,[pc,#340] ; [0x219c] = 0x6eba
        0x00002046:    5d81        .]      LDRB     r1,[r0,r6]
        0x00002048:    4668        hF      MOV      r0,sp
        0x0000204a:    7001        .p      STRB     r1,[r0,#0]
        0x0000204c:    0726        &.      LSLS     r6,r4,#28
        0x0000204e:    0f36        6.      LSRS     r6,r6,#28
        0x00002050:    4852        RH      LDR      r0,[pc,#328] ; [0x219c] = 0x6eba
        0x00002052:    5d81        .]      LDRB     r1,[r0,r6]
        0x00002054:    4668        hF      MOV      r0,sp
        0x00002056:    7041        Ap      STRB     r1,[r0,#1]
        0x00002058:    2100        .!      MOVS     r1,#0
        0x0000205a:    7081        .p      STRB     r1,[r0,#2]
        0x0000205c:    f7fffd22    ..".    BL       iputs ; 0x1aa4
        0x00002060:    bd7f        ..      POP      {r0-r6,pc}
    uartdecodeH32
        0x00002062:    b57f        ..      PUSH     {r0-r6,lr}
        0x00002064:    4604        .F      MOV      r4,r0
        0x00002066:    460e        .F      MOV      r6,r1
        0x00002068:    4630        0F      MOV      r0,r6
        0x0000206a:    f7fffd1b    ....    BL       iputs ; 0x1aa4
        0x0000206e:    0f25        %.      LSRS     r5,r4,#28
        0x00002070:    484b        KH      LDR      r0,[pc,#300] ; [0x21a0] = 0x6eca
        0x00002072:    5d41        A]      LDRB     r1,[r0,r5]
        0x00002074:    4668        hF      MOV      r0,sp
        0x00002076:    7001        .p      STRB     r1,[r0,#0]
        0x00002078:    200f        .       MOVS     r0,#0xf
        0x0000207a:    0600        ..      LSLS     r0,r0,#24
        0x0000207c:    4020         @      ANDS     r0,r0,r4
        0x0000207e:    0e05        ..      LSRS     r5,r0,#24
        0x00002080:    4847        GH      LDR      r0,[pc,#284] ; [0x21a0] = 0x6eca
        0x00002082:    5d41        A]      LDRB     r1,[r0,r5]
        0x00002084:    4668        hF      MOV      r0,sp
        0x00002086:    7041        Ap      STRB     r1,[r0,#1]
        0x00002088:    200f        .       MOVS     r0,#0xf
        0x0000208a:    0500        ..      LSLS     r0,r0,#20
        0x0000208c:    4020         @      ANDS     r0,r0,r4
        0x0000208e:    0d05        ..      LSRS     r5,r0,#20
        0x00002090:    4843        CH      LDR      r0,[pc,#268] ; [0x21a0] = 0x6eca
        0x00002092:    5d41        A]      LDRB     r1,[r0,r5]
        0x00002094:    4668        hF      MOV      r0,sp
        0x00002096:    7081        .p      STRB     r1,[r0,#2]
        0x00002098:    200f        .       MOVS     r0,#0xf
        0x0000209a:    0400        ..      LSLS     r0,r0,#16
        0x0000209c:    4020         @      ANDS     r0,r0,r4
        0x0000209e:    0c05        ..      LSRS     r5,r0,#16
        0x000020a0:    483f        ?H      LDR      r0,[pc,#252] ; [0x21a0] = 0x6eca
        0x000020a2:    5d41        A]      LDRB     r1,[r0,r5]
        0x000020a4:    4668        hF      MOV      r0,sp
        0x000020a6:    70c1        .p      STRB     r1,[r0,#3]
        0x000020a8:    200f        .       MOVS     r0,#0xf
        0x000020aa:    0300        ..      LSLS     r0,r0,#12
        0x000020ac:    4020         @      ANDS     r0,r0,r4
        0x000020ae:    0b05        ..      LSRS     r5,r0,#12
        0x000020b0:    483b        ;H      LDR      r0,[pc,#236] ; [0x21a0] = 0x6eca
        0x000020b2:    5d41        A]      LDRB     r1,[r0,r5]
        0x000020b4:    4668        hF      MOV      r0,sp
        0x000020b6:    7101        .q      STRB     r1,[r0,#4]
        0x000020b8:    200f        .       MOVS     r0,#0xf
        0x000020ba:    0200        ..      LSLS     r0,r0,#8
        0x000020bc:    4020         @      ANDS     r0,r0,r4
        0x000020be:    0a05        ..      LSRS     r5,r0,#8
        0x000020c0:    4837        7H      LDR      r0,[pc,#220] ; [0x21a0] = 0x6eca
        0x000020c2:    5d41        A]      LDRB     r1,[r0,r5]
        0x000020c4:    4668        hF      MOV      r0,sp
        0x000020c6:    7141        Aq      STRB     r1,[r0,#5]
        0x000020c8:    20f0        .       MOVS     r0,#0xf0
        0x000020ca:    4020         @      ANDS     r0,r0,r4
        0x000020cc:    0905        ..      LSRS     r5,r0,#4
        0x000020ce:    4834        4H      LDR      r0,[pc,#208] ; [0x21a0] = 0x6eca
        0x000020d0:    5d41        A]      LDRB     r1,[r0,r5]
        0x000020d2:    4668        hF      MOV      r0,sp
        0x000020d4:    7181        .q      STRB     r1,[r0,#6]
        0x000020d6:    0725        %.      LSLS     r5,r4,#28
        0x000020d8:    0f2d        -.      LSRS     r5,r5,#28
        0x000020da:    4831        1H      LDR      r0,[pc,#196] ; [0x21a0] = 0x6eca
        0x000020dc:    5d41        A]      LDRB     r1,[r0,r5]
        0x000020de:    4668        hF      MOV      r0,sp
        0x000020e0:    71c1        .q      STRB     r1,[r0,#7]
        0x000020e2:    2100        .!      MOVS     r1,#0
        0x000020e4:    7201        .r      STRB     r1,[r0,#8]
        0x000020e6:    f7fffcdd    ....    BL       iputs ; 0x1aa4
        0x000020ea:    a02a        *.      ADR      r0,{pc}+0xaa ; 0x2194
        0x000020ec:    f7fffcda    ....    BL       iputs ; 0x1aa4
        0x000020f0:    bd7f        ..      POP      {r0-r6,pc}
    NVIC_SetPriority
        0x000020f2:    b510        ..      PUSH     {r4,lr}
        0x000020f4:    2800        .(      CMP      r0,#0
        0x000020f6:    da19        ..      BGE      0x212c ; NVIC_SetPriority + 58
        0x000020f8:    4a2a        *J      LDR      r2,[pc,#168] ; [0x21a4] = 0xe000ed1c
        0x000020fa:    0703        ..      LSLS     r3,r0,#28
        0x000020fc:    0f1b        ..      LSRS     r3,r3,#28
        0x000020fe:    3b08        .;      SUBS     r3,r3,#8
        0x00002100:    089b        ..      LSRS     r3,r3,#2
        0x00002102:    009b        ..      LSLS     r3,r3,#2
        0x00002104:    58d2        .X      LDR      r2,[r2,r3]
        0x00002106:    0783        ..      LSLS     r3,r0,#30
        0x00002108:    0edc        ..      LSRS     r4,r3,#27
        0x0000210a:    23ff        .#      MOVS     r3,#0xff
        0x0000210c:    40a3        .@      LSLS     r3,r3,r4
        0x0000210e:    439a        .C      BICS     r2,r2,r3
        0x00002110:    078b        ..      LSLS     r3,r1,#30
        0x00002112:    0e1b        ..      LSRS     r3,r3,#24
        0x00002114:    0784        ..      LSLS     r4,r0,#30
        0x00002116:    0ee4        ..      LSRS     r4,r4,#27
        0x00002118:    40a3        .@      LSLS     r3,r3,r4
        0x0000211a:    431a        .C      ORRS     r2,r2,r3
        0x0000211c:    4b21        !K      LDR      r3,[pc,#132] ; [0x21a4] = 0xe000ed1c
        0x0000211e:    0704        ..      LSLS     r4,r0,#28
        0x00002120:    0f24        $.      LSRS     r4,r4,#28
        0x00002122:    3c08        .<      SUBS     r4,r4,#8
        0x00002124:    08a4        ..      LSRS     r4,r4,#2
        0x00002126:    00a4        ..      LSLS     r4,r4,#2
        0x00002128:    511a        .Q      STR      r2,[r3,r4]
        0x0000212a:    e018        ..      B        0x215e ; NVIC_SetPriority + 108
        0x0000212c:    4a1e        .J      LDR      r2,[pc,#120] ; [0x21a8] = 0xe000e100
        0x0000212e:    2303        .#      MOVS     r3,#3
        0x00002130:    021b        ..      LSLS     r3,r3,#8
        0x00002132:    18d2        ..      ADDS     r2,r2,r3
        0x00002134:    0883        ..      LSRS     r3,r0,#2
        0x00002136:    009b        ..      LSLS     r3,r3,#2
        0x00002138:    58d2        .X      LDR      r2,[r2,r3]
        0x0000213a:    0783        ..      LSLS     r3,r0,#30
        0x0000213c:    0edc        ..      LSRS     r4,r3,#27
        0x0000213e:    23ff        .#      MOVS     r3,#0xff
        0x00002140:    40a3        .@      LSLS     r3,r3,r4
        0x00002142:    439a        .C      BICS     r2,r2,r3
        0x00002144:    078b        ..      LSLS     r3,r1,#30
        0x00002146:    0e1b        ..      LSRS     r3,r3,#24
        0x00002148:    0784        ..      LSLS     r4,r0,#30
        0x0000214a:    0ee4        ..      LSRS     r4,r4,#27
        0x0000214c:    40a3        .@      LSLS     r3,r3,r4
        0x0000214e:    431a        .C      ORRS     r2,r2,r3
        0x00002150:    4b15        .K      LDR      r3,[pc,#84] ; [0x21a8] = 0xe000e100
        0x00002152:    2403        .$      MOVS     r4,#3
        0x00002154:    0224        $.      LSLS     r4,r4,#8
        0x00002156:    191b        ..      ADDS     r3,r3,r4
        0x00002158:    0884        ..      LSRS     r4,r0,#2
        0x0000215a:    00a4        ..      LSLS     r4,r4,#2
        0x0000215c:    511a        .Q      STR      r2,[r3,r4]
        0x0000215e:    bd10        ..      POP      {r4,pc}
    UART_ENABLE_INT
        0x00002160:    6842        Bh      LDR      r2,[r0,#4]
        0x00002162:    430a        .C      ORRS     r2,r2,r1
        0x00002164:    6042        B`      STR      r2,[r0,#4]
        0x00002166:    4770        pG      BX       lr
    $d
        0x00002168:    40050000    ...@    DCD    1074069504
        0x0000216c:    00000811    ....    DCD    2065
        0x00002170:    20000604    ...     DCD    536872452
        0x00002174:    20000704    ...     DCD    536872708
        0x00002178:    20000020     ..     DCD    536870944
        0x0000217c:    2000001c    ...     DCD    536870940
        0x00002180:    20000028    (..     DCD    536870952
        0x00002184:    20000024    $..     DCD    536870948
        0x00002188:    2000002c    ,..     DCD    536870956
        0x0000218c:    00006e9a    .n..    DCD    28314
        0x00002190:    500042cc    .B.P    DCD    1342194380
        0x00002194:    00000a0d    ....    DCD    2573
        0x00002198:    00006eaa    .n..    DCD    28330
        0x0000219c:    00006eba    .n..    DCD    28346
        0x000021a0:    00006eca    .n..    DCD    28362
        0x000021a4:    e000ed1c    ....    DCD    3758157084
        0x000021a8:    e000e100    ....    DCD    3758153984
    $t
    .text
    SysTickInit
        0x000021ac:    b510        ..      PUSH     {r4,lr}
        0x000021ae:    4604        .F      MOV      r4,r0
        0x000021b0:    0220         .      LSLS     r0,r4,#8
        0x000021b2:    0a00        ..      LSRS     r0,r0,#8
        0x000021b4:    1e40        @.      SUBS     r0,r0,#1
        0x000021b6:    49c4        .I      LDR      r1,[pc,#784] ; [0x24c8] = 0xe000e000
        0x000021b8:    6148        Ha      STR      r0,[r1,#0x14]
        0x000021ba:    2103        .!      MOVS     r1,#3
        0x000021bc:    1f08        ..      SUBS     r0,r1,#4
        0x000021be:    f000f93d    ..=.    BL       NVIC_SetPriority ; 0x243c
        0x000021c2:    2000        .       MOVS     r0,#0
        0x000021c4:    49c0        .I      LDR      r1,[pc,#768] ; [0x24c8] = 0xe000e000
        0x000021c6:    6188        .a      STR      r0,[r1,#0x18]
        0x000021c8:    2010        .       MOVS     r0,#0x10
        0x000021ca:    49c0        .I      LDR      r1,[pc,#768] ; [0x24cc] = 0x50000200
        0x000021cc:    6909        .i      LDR      r1,[r1,#0x10]
        0x000021ce:    2238        8"      MOVS     r2,#0x38
        0x000021d0:    4391        .C      BICS     r1,r1,r2
        0x000021d2:    4301        .C      ORRS     r1,r1,r0
        0x000021d4:    4abd        .J      LDR      r2,[pc,#756] ; [0x24cc] = 0x50000200
        0x000021d6:    6111        .a      STR      r1,[r2,#0x10]
        0x000021d8:    bf00        ..      NOP      
        0x000021da:    2003        .       MOVS     r0,#3
        0x000021dc:    49ba        .I      LDR      r1,[pc,#744] ; [0x24c8] = 0xe000e000
        0x000021de:    6108        .a      STR      r0,[r1,#0x10]
        0x000021e0:    bd10        ..      POP      {r4,pc}
    sysDelayUs
        0x000021e2:    e00d        ..      B        0x2200 ; sysDelayUs + 30
        0x000021e4:    1e40        @.      SUBS     r0,r0,#1
        0x000021e6:    2100        .!      MOVS     r1,#0
        0x000021e8:    4ab9        .J      LDR      r2,[pc,#740] ; [0x24d0] = 0x20000040
        0x000021ea:    6011        .`      STR      r1,[r2,#0]
        0x000021ec:    e004        ..      B        0x21f8 ; sysDelayUs + 22
        0x000021ee:    49b8        .I      LDR      r1,[pc,#736] ; [0x24d0] = 0x20000040
        0x000021f0:    6809        .h      LDR      r1,[r1,#0]
        0x000021f2:    1c49        I.      ADDS     r1,r1,#1
        0x000021f4:    4ab6        .J      LDR      r2,[pc,#728] ; [0x24d0] = 0x20000040
        0x000021f6:    6011        .`      STR      r1,[r2,#0]
        0x000021f8:    49b5        .I      LDR      r1,[pc,#724] ; [0x24d0] = 0x20000040
        0x000021fa:    6809        .h      LDR      r1,[r1,#0]
        0x000021fc:    2905        .)      CMP      r1,#5
        0x000021fe:    d3f6        ..      BCC      0x21ee ; sysDelayUs + 12
        0x00002200:    2800        .(      CMP      r0,#0
        0x00002202:    d1ef        ..      BNE      0x21e4 ; sysDelayUs + 2
        0x00002204:    4770        pG      BX       lr
    sysDelayMs
        0x00002206:    b510        ..      PUSH     {r4,lr}
        0x00002208:    4604        .F      MOV      r4,r0
        0x0000220a:    48b2        .H      LDR      r0,[pc,#712] ; [0x24d4] = 0x2000003c
        0x0000220c:    6800        .h      LDR      r0,[r0,#0]
        0x0000220e:    1900        ..      ADDS     r0,r0,r4
        0x00002210:    49b1        .I      LDR      r1,[pc,#708] ; [0x24d8] = 0x20000044
        0x00002212:    6008        .`      STR      r0,[r1,#0]
        0x00002214:    e009        ..      B        0x222a ; sysDelayMs + 36
        0x00002216:    f000f948    ..H.    BL       SYS_UnlockReg ; 0x24aa
        0x0000221a:    f000f94e    ..N.    BL       WDT_TIMER_RESET ; 0x24ba
        0x0000221e:    bf00        ..      NOP      
        0x00002220:    2000        .       MOVS     r0,#0
        0x00002222:    49ae        .I      LDR      r1,[pc,#696] ; [0x24dc] = 0x50000100
        0x00002224:    6008        .`      STR      r0,[r1,#0]
        0x00002226:    bf00        ..      NOP      
        0x00002228:    bf00        ..      NOP      
        0x0000222a:    48ab        .H      LDR      r0,[pc,#684] ; [0x24d8] = 0x20000044
        0x0000222c:    6800        .h      LDR      r0,[r0,#0]
        0x0000222e:    49a9        .I      LDR      r1,[pc,#676] ; [0x24d4] = 0x2000003c
        0x00002230:    6809        .h      LDR      r1,[r1,#0]
        0x00002232:    4288        .B      CMP      r0,r1
        0x00002234:    d2ef        ..      BCS      0x2216 ; sysDelayMs + 16
        0x00002236:    bd10        ..      POP      {r4,pc}
    sysDelayAMs
        0x00002238:    b510        ..      PUSH     {r4,lr}
        0x0000223a:    4604        .F      MOV      r4,r0
        0x0000223c:    2000        .       MOVS     r0,#0
        0x0000223e:    49a2        .I      LDR      r1,[pc,#648] ; [0x24c8] = 0xe000e000
        0x00002240:    6188        .a      STR      r0,[r1,#0x18]
        0x00002242:    bf00        ..      NOP      
        0x00002244:    bf00        ..      NOP      
        0x00002246:    bf00        ..      NOP      
        0x00002248:    bf00        ..      NOP      
        0x0000224a:    bf00        ..      NOP      
        0x0000224c:    bf00        ..      NOP      
        0x0000224e:    bf00        ..      NOP      
        0x00002250:    bf00        ..      NOP      
        0x00002252:    48a0        .H      LDR      r0,[pc,#640] ; [0x24d4] = 0x2000003c
        0x00002254:    6800        .h      LDR      r0,[r0,#0]
        0x00002256:    1900        ..      ADDS     r0,r0,r4
        0x00002258:    499f        .I      LDR      r1,[pc,#636] ; [0x24d8] = 0x20000044
        0x0000225a:    6008        .`      STR      r0,[r1,#0]
        0x0000225c:    e009        ..      B        0x2272 ; sysDelayAMs + 58
        0x0000225e:    f000f924    ..$.    BL       SYS_UnlockReg ; 0x24aa
        0x00002262:    f000f92a    ..*.    BL       WDT_TIMER_RESET ; 0x24ba
        0x00002266:    bf00        ..      NOP      
        0x00002268:    2000        .       MOVS     r0,#0
        0x0000226a:    499c        .I      LDR      r1,[pc,#624] ; [0x24dc] = 0x50000100
        0x0000226c:    6008        .`      STR      r0,[r1,#0]
        0x0000226e:    bf00        ..      NOP      
        0x00002270:    bf00        ..      NOP      
        0x00002272:    4899        .H      LDR      r0,[pc,#612] ; [0x24d8] = 0x20000044
        0x00002274:    6800        .h      LDR      r0,[r0,#0]
        0x00002276:    4997        .I      LDR      r1,[pc,#604] ; [0x24d4] = 0x2000003c
        0x00002278:    6809        .h      LDR      r1,[r1,#0]
        0x0000227a:    4288        .B      CMP      r0,r1
        0x0000227c:    d8ef        ..      BHI      0x225e ; sysDelayAMs + 38
        0x0000227e:    bd10        ..      POP      {r4,pc}
    SysTick_Handler
        0x00002280:    b510        ..      PUSH     {r4,lr}
        0x00002282:    4894        .H      LDR      r0,[pc,#592] ; [0x24d4] = 0x2000003c
        0x00002284:    6800        .h      LDR      r0,[r0,#0]
        0x00002286:    1c40        @.      ADDS     r0,r0,#1
        0x00002288:    4992        .I      LDR      r1,[pc,#584] ; [0x24d4] = 0x2000003c
        0x0000228a:    6008        .`      STR      r0,[r1,#0]
        0x0000228c:    2400        .$      MOVS     r4,#0
        0x0000228e:    e02f        /.      B        0x22f0 ; SysTick_Handler + 112
        0x00002290:    200c        .       MOVS     r0,#0xc
        0x00002292:    4360        `C      MULS     r0,r4,r0
        0x00002294:    4992        .I      LDR      r1,[pc,#584] ; [0x24e0] = 0x20000904
        0x00002296:    1840        @.      ADDS     r0,r0,r1
        0x00002298:    7840        @x      LDRB     r0,[r0,#1]
        0x0000229a:    2800        .(      CMP      r0,#0
        0x0000229c:    d027        '.      BEQ      0x22ee ; SysTick_Handler + 110
        0x0000229e:    200c        .       MOVS     r0,#0xc
        0x000022a0:    4360        `C      MULS     r0,r4,r0
        0x000022a2:    1840        @.      ADDS     r0,r0,r1
        0x000022a4:    6840        @h      LDR      r0,[r0,#4]
        0x000022a6:    2800        .(      CMP      r0,#0
        0x000022a8:    d009        ..      BEQ      0x22be ; SysTick_Handler + 62
        0x000022aa:    200c        .       MOVS     r0,#0xc
        0x000022ac:    4360        `C      MULS     r0,r4,r0
        0x000022ae:    1840        @.      ADDS     r0,r0,r1
        0x000022b0:    6840        @h      LDR      r0,[r0,#4]
        0x000022b2:    1e40        @.      SUBS     r0,r0,#1
        0x000022b4:    210c        .!      MOVS     r1,#0xc
        0x000022b6:    4361        aC      MULS     r1,r4,r1
        0x000022b8:    4a89        .J      LDR      r2,[pc,#548] ; [0x24e0] = 0x20000904
        0x000022ba:    1889        ..      ADDS     r1,r1,r2
        0x000022bc:    6048        H`      STR      r0,[r1,#4]
        0x000022be:    200c        .       MOVS     r0,#0xc
        0x000022c0:    4360        `C      MULS     r0,r4,r0
        0x000022c2:    4987        .I      LDR      r1,[pc,#540] ; [0x24e0] = 0x20000904
        0x000022c4:    1840        @.      ADDS     r0,r0,r1
        0x000022c6:    6840        @h      LDR      r0,[r0,#4]
        0x000022c8:    2800        .(      CMP      r0,#0
        0x000022ca:    d110        ..      BNE      0x22ee ; SysTick_Handler + 110
        0x000022cc:    200c        .       MOVS     r0,#0xc
        0x000022ce:    4360        `C      MULS     r0,r4,r0
        0x000022d0:    5c08        .\      LDRB     r0,[r1,r0]
        0x000022d2:    2800        .(      CMP      r0,#0
        0x000022d4:    d00b        ..      BEQ      0x22ee ; SysTick_Handler + 110
        0x000022d6:    200c        .       MOVS     r0,#0xc
        0x000022d8:    4360        `C      MULS     r0,r4,r0
        0x000022da:    1840        @.      ADDS     r0,r0,r1
        0x000022dc:    6880        .h      LDR      r0,[r0,#8]
        0x000022de:    2800        .(      CMP      r0,#0
        0x000022e0:    d005        ..      BEQ      0x22ee ; SysTick_Handler + 110
        0x000022e2:    210c        .!      MOVS     r1,#0xc
        0x000022e4:    4361        aC      MULS     r1,r4,r1
        0x000022e6:    4a7e        ~J      LDR      r2,[pc,#504] ; [0x24e0] = 0x20000904
        0x000022e8:    1889        ..      ADDS     r1,r1,r2
        0x000022ea:    6888        .h      LDR      r0,[r1,#8]
        0x000022ec:    4780        .G      BLX      r0
        0x000022ee:    1c64        d.      ADDS     r4,r4,#1
        0x000022f0:    2c0a        .,      CMP      r4,#0xa
        0x000022f2:    d3cd        ..      BCC      0x2290 ; SysTick_Handler + 16
        0x000022f4:    bf00        ..      NOP      
        0x000022f6:    487b        {H      LDR      r0,[pc,#492] ; [0x24e4] = 0x400e0000
        0x000022f8:    6a00        .j      LDR      r0,[r0,#0x20]
        0x000022fa:    2101        .!      MOVS     r1,#1
        0x000022fc:    02c9        ..      LSLS     r1,r1,#11
        0x000022fe:    4308        .C      ORRS     r0,r0,r1
        0x00002300:    4978        xI      LDR      r1,[pc,#480] ; [0x24e4] = 0x400e0000
        0x00002302:    6208        .b      STR      r0,[r1,#0x20]
        0x00002304:    bf00        ..      NOP      
        0x00002306:    f000fe59    ..Y.    BL       i2cSpirit ; 0x2fbc
        0x0000230a:    bd10        ..      POP      {r4,pc}
    runTimedTasks
        0x0000230c:    b510        ..      PUSH     {r4,lr}
        0x0000230e:    2400        .$      MOVS     r4,#0
        0x00002310:    e024        $.      B        0x235c ; runTimedTasks + 80
        0x00002312:    200c        .       MOVS     r0,#0xc
        0x00002314:    4360        `C      MULS     r0,r4,r0
        0x00002316:    4972        rI      LDR      r1,[pc,#456] ; [0x24e0] = 0x20000904
        0x00002318:    1840        @.      ADDS     r0,r0,r1
        0x0000231a:    7840        @x      LDRB     r0,[r0,#1]
        0x0000231c:    2800        .(      CMP      r0,#0
        0x0000231e:    d01c        ..      BEQ      0x235a ; runTimedTasks + 78
        0x00002320:    200c        .       MOVS     r0,#0xc
        0x00002322:    4360        `C      MULS     r0,r4,r0
        0x00002324:    1840        @.      ADDS     r0,r0,r1
        0x00002326:    6840        @h      LDR      r0,[r0,#4]
        0x00002328:    2800        .(      CMP      r0,#0
        0x0000232a:    d116        ..      BNE      0x235a ; runTimedTasks + 78
        0x0000232c:    200c        .       MOVS     r0,#0xc
        0x0000232e:    4360        `C      MULS     r0,r4,r0
        0x00002330:    5c08        .\      LDRB     r0,[r1,r0]
        0x00002332:    2800        .(      CMP      r0,#0
        0x00002334:    d111        ..      BNE      0x235a ; runTimedTasks + 78
        0x00002336:    2100        .!      MOVS     r1,#0
        0x00002338:    200c        .       MOVS     r0,#0xc
        0x0000233a:    4360        `C      MULS     r0,r4,r0
        0x0000233c:    4a68        hJ      LDR      r2,[pc,#416] ; [0x24e0] = 0x20000904
        0x0000233e:    1880        ..      ADDS     r0,r0,r2
        0x00002340:    7041        Ap      STRB     r1,[r0,#1]
        0x00002342:    200c        .       MOVS     r0,#0xc
        0x00002344:    4360        `C      MULS     r0,r4,r0
        0x00002346:    4611        .F      MOV      r1,r2
        0x00002348:    1840        @.      ADDS     r0,r0,r1
        0x0000234a:    6880        .h      LDR      r0,[r0,#8]
        0x0000234c:    2800        .(      CMP      r0,#0
        0x0000234e:    d004        ..      BEQ      0x235a ; runTimedTasks + 78
        0x00002350:    210c        .!      MOVS     r1,#0xc
        0x00002352:    4361        aC      MULS     r1,r4,r1
        0x00002354:    1889        ..      ADDS     r1,r1,r2
        0x00002356:    6888        .h      LDR      r0,[r1,#8]
        0x00002358:    4780        .G      BLX      r0
        0x0000235a:    1c64        d.      ADDS     r4,r4,#1
        0x0000235c:    2c0a        .,      CMP      r4,#0xa
        0x0000235e:    d3d8        ..      BCC      0x2312 ; runTimedTasks + 6
        0x00002360:    bd10        ..      POP      {r4,pc}
    sysTaskInit
        0x00002362:    2000        .       MOVS     r0,#0
        0x00002364:    e015        ..      B        0x2392 ; sysTaskInit + 48
        0x00002366:    2200        ."      MOVS     r2,#0
        0x00002368:    210c        .!      MOVS     r1,#0xc
        0x0000236a:    4341        AC      MULS     r1,r0,r1
        0x0000236c:    4b5c        \K      LDR      r3,[pc,#368] ; [0x24e0] = 0x20000904
        0x0000236e:    545a        ZT      STRB     r2,[r3,r1]
        0x00002370:    210c        .!      MOVS     r1,#0xc
        0x00002372:    4341        AC      MULS     r1,r0,r1
        0x00002374:    18c9        ..      ADDS     r1,r1,r3
        0x00002376:    704a        Jp      STRB     r2,[r1,#1]
        0x00002378:    210c        .!      MOVS     r1,#0xc
        0x0000237a:    4341        AC      MULS     r1,r0,r1
        0x0000237c:    18c9        ..      ADDS     r1,r1,r3
        0x0000237e:    708a        .p      STRB     r2,[r1,#2]
        0x00002380:    210c        .!      MOVS     r1,#0xc
        0x00002382:    4341        AC      MULS     r1,r0,r1
        0x00002384:    18c9        ..      ADDS     r1,r1,r3
        0x00002386:    604a        J`      STR      r2,[r1,#4]
        0x00002388:    210c        .!      MOVS     r1,#0xc
        0x0000238a:    4341        AC      MULS     r1,r0,r1
        0x0000238c:    18c9        ..      ADDS     r1,r1,r3
        0x0000238e:    608a        .`      STR      r2,[r1,#8]
        0x00002390:    1c40        @.      ADDS     r0,r0,#1
        0x00002392:    280a        .(      CMP      r0,#0xa
        0x00002394:    d3e7        ..      BCC      0x2366 ; sysTaskInit + 4
        0x00002396:    4770        pG      BX       lr
    getATask
        0x00002398:    2100        .!      MOVS     r1,#0
        0x0000239a:    e010        ..      B        0x23be ; getATask + 38
        0x0000239c:    200c        .       MOVS     r0,#0xc
        0x0000239e:    4348        HC      MULS     r0,r1,r0
        0x000023a0:    4a4f        OJ      LDR      r2,[pc,#316] ; [0x24e0] = 0x20000904
        0x000023a2:    1880        ..      ADDS     r0,r0,r2
        0x000023a4:    7880        .x      LDRB     r0,[r0,#2]
        0x000023a6:    2800        .(      CMP      r0,#0
        0x000023a8:    d107        ..      BNE      0x23ba ; getATask + 34
        0x000023aa:    2201        ."      MOVS     r2,#1
        0x000023ac:    200c        .       MOVS     r0,#0xc
        0x000023ae:    4348        HC      MULS     r0,r1,r0
        0x000023b0:    4b4b        KK      LDR      r3,[pc,#300] ; [0x24e0] = 0x20000904
        0x000023b2:    18c0        ..      ADDS     r0,r0,r3
        0x000023b4:    7082        .p      STRB     r2,[r0,#2]
        0x000023b6:    4608        .F      MOV      r0,r1
        0x000023b8:    4770        pG      BX       lr
        0x000023ba:    1c48        H.      ADDS     r0,r1,#1
        0x000023bc:    b2c1        ..      UXTB     r1,r0
        0x000023be:    290a        .)      CMP      r1,#0xa
        0x000023c0:    dbec        ..      BLT      0x239c ; getATask + 4
        0x000023c2:    20ff        .       MOVS     r0,#0xff
        0x000023c4:    e7f8        ..      B        0x23b8 ; getATask + 32
    taskFlush
        0x000023c6:    2000        .       MOVS     r0,#0
        0x000023c8:    e013        ..      B        0x23f2 ; taskFlush + 44
        0x000023ca:    bf00        ..      NOP      
        0x000023cc:    2200        ."      MOVS     r2,#0
        0x000023ce:    210c        .!      MOVS     r1,#0xc
        0x000023d0:    4341        AC      MULS     r1,r0,r1
        0x000023d2:    4b43        CK      LDR      r3,[pc,#268] ; [0x24e0] = 0x20000904
        0x000023d4:    18c9        ..      ADDS     r1,r1,r3
        0x000023d6:    704a        Jp      STRB     r2,[r1,#1]
        0x000023d8:    bf00        ..      NOP      
        0x000023da:    bf00        ..      NOP      
        0x000023dc:    210c        .!      MOVS     r1,#0xc
        0x000023de:    4341        AC      MULS     r1,r0,r1
        0x000023e0:    18c9        ..      ADDS     r1,r1,r3
        0x000023e2:    608a        .`      STR      r2,[r1,#8]
        0x000023e4:    210c        .!      MOVS     r1,#0xc
        0x000023e6:    4341        AC      MULS     r1,r0,r1
        0x000023e8:    18c9        ..      ADDS     r1,r1,r3
        0x000023ea:    708a        .p      STRB     r2,[r1,#2]
        0x000023ec:    bf00        ..      NOP      
        0x000023ee:    1c41        A.      ADDS     r1,r0,#1
        0x000023f0:    b2c8        ..      UXTB     r0,r1
        0x000023f2:    280a        .(      CMP      r0,#0xa
        0x000023f4:    dbe9        ..      BLT      0x23ca ; taskFlush + 4
        0x000023f6:    4770        pG      BX       lr
    startATask
        0x000023f8:    b570        p.      PUSH     {r4-r6,lr}
        0x000023fa:    4c33        3L      LDR      r4,[pc,#204] ; [0x24c8] = 0xe000e000
        0x000023fc:    6924        $i      LDR      r4,[r4,#0x10]
        0x000023fe:    2502        .%      MOVS     r5,#2
        0x00002400:    43ac        .C      BICS     r4,r4,r5
        0x00002402:    4d31        1M      LDR      r5,[pc,#196] ; [0x24c8] = 0xe000e000
        0x00002404:    612c        ,a      STR      r4,[r5,#0x10]
        0x00002406:    bf00        ..      NOP      
        0x00002408:    bf00        ..      NOP      
        0x0000240a:    240c        .$      MOVS     r4,#0xc
        0x0000240c:    4344        DC      MULS     r4,r0,r4
        0x0000240e:    4d34        4M      LDR      r5,[pc,#208] ; [0x24e0] = 0x20000904
        0x00002410:    552a        *U      STRB     r2,[r5,r4]
        0x00002412:    240c        .$      MOVS     r4,#0xc
        0x00002414:    4344        DC      MULS     r4,r0,r4
        0x00002416:    1964        d.      ADDS     r4,r4,r5
        0x00002418:    6061        a`      STR      r1,[r4,#4]
        0x0000241a:    240c        .$      MOVS     r4,#0xc
        0x0000241c:    4344        DC      MULS     r4,r0,r4
        0x0000241e:    1964        d.      ADDS     r4,r4,r5
        0x00002420:    60a3        .`      STR      r3,[r4,#8]
        0x00002422:    2501        .%      MOVS     r5,#1
        0x00002424:    240c        .$      MOVS     r4,#0xc
        0x00002426:    4344        DC      MULS     r4,r0,r4
        0x00002428:    4e2d        -N      LDR      r6,[pc,#180] ; [0x24e0] = 0x20000904
        0x0000242a:    19a4        ..      ADDS     r4,r4,r6
        0x0000242c:    7065        ep      STRB     r5,[r4,#1]
        0x0000242e:    4c26        &L      LDR      r4,[pc,#152] ; [0x24c8] = 0xe000e000
        0x00002430:    6924        $i      LDR      r4,[r4,#0x10]
        0x00002432:    2502        .%      MOVS     r5,#2
        0x00002434:    432c        ,C      ORRS     r4,r4,r5
        0x00002436:    4d24        $M      LDR      r5,[pc,#144] ; [0x24c8] = 0xe000e000
        0x00002438:    612c        ,a      STR      r4,[r5,#0x10]
        0x0000243a:    bd70        p.      POP      {r4-r6,pc}
    NVIC_SetPriority
        0x0000243c:    b510        ..      PUSH     {r4,lr}
        0x0000243e:    2800        .(      CMP      r0,#0
        0x00002440:    da19        ..      BGE      0x2476 ; NVIC_SetPriority + 58
        0x00002442:    4a29        )J      LDR      r2,[pc,#164] ; [0x24e8] = 0xe000ed1c
        0x00002444:    0703        ..      LSLS     r3,r0,#28
        0x00002446:    0f1b        ..      LSRS     r3,r3,#28
        0x00002448:    3b08        .;      SUBS     r3,r3,#8
        0x0000244a:    089b        ..      LSRS     r3,r3,#2
        0x0000244c:    009b        ..      LSLS     r3,r3,#2
        0x0000244e:    58d2        .X      LDR      r2,[r2,r3]
        0x00002450:    0783        ..      LSLS     r3,r0,#30
        0x00002452:    0edc        ..      LSRS     r4,r3,#27
        0x00002454:    23ff        .#      MOVS     r3,#0xff
        0x00002456:    40a3        .@      LSLS     r3,r3,r4
        0x00002458:    439a        .C      BICS     r2,r2,r3
        0x0000245a:    078b        ..      LSLS     r3,r1,#30
        0x0000245c:    0e1b        ..      LSRS     r3,r3,#24
        0x0000245e:    0784        ..      LSLS     r4,r0,#30
        0x00002460:    0ee4        ..      LSRS     r4,r4,#27
        0x00002462:    40a3        .@      LSLS     r3,r3,r4
        0x00002464:    431a        .C      ORRS     r2,r2,r3
        0x00002466:    4b20         K      LDR      r3,[pc,#128] ; [0x24e8] = 0xe000ed1c
        0x00002468:    0704        ..      LSLS     r4,r0,#28
        0x0000246a:    0f24        $.      LSRS     r4,r4,#28
        0x0000246c:    3c08        .<      SUBS     r4,r4,#8
        0x0000246e:    08a4        ..      LSRS     r4,r4,#2
        0x00002470:    00a4        ..      LSLS     r4,r4,#2
        0x00002472:    511a        .Q      STR      r2,[r3,r4]
        0x00002474:    e018        ..      B        0x24a8 ; NVIC_SetPriority + 108
        0x00002476:    4a1d        .J      LDR      r2,[pc,#116] ; [0x24ec] = 0xe000e100
        0x00002478:    2303        .#      MOVS     r3,#3
        0x0000247a:    021b        ..      LSLS     r3,r3,#8
        0x0000247c:    18d2        ..      ADDS     r2,r2,r3
        0x0000247e:    0883        ..      LSRS     r3,r0,#2
        0x00002480:    009b        ..      LSLS     r3,r3,#2
        0x00002482:    58d2        .X      LDR      r2,[r2,r3]
        0x00002484:    0783        ..      LSLS     r3,r0,#30
        0x00002486:    0edc        ..      LSRS     r4,r3,#27
        0x00002488:    23ff        .#      MOVS     r3,#0xff
        0x0000248a:    40a3        .@      LSLS     r3,r3,r4
        0x0000248c:    439a        .C      BICS     r2,r2,r3
        0x0000248e:    078b        ..      LSLS     r3,r1,#30
        0x00002490:    0e1b        ..      LSRS     r3,r3,#24
        0x00002492:    0784        ..      LSLS     r4,r0,#30
        0x00002494:    0ee4        ..      LSRS     r4,r4,#27
        0x00002496:    40a3        .@      LSLS     r3,r3,r4
        0x00002498:    431a        .C      ORRS     r2,r2,r3
        0x0000249a:    4b14        .K      LDR      r3,[pc,#80] ; [0x24ec] = 0xe000e100
        0x0000249c:    2403        .$      MOVS     r4,#3
        0x0000249e:    0224        $.      LSLS     r4,r4,#8
        0x000024a0:    191b        ..      ADDS     r3,r3,r4
        0x000024a2:    0884        ..      LSRS     r4,r0,#2
        0x000024a4:    00a4        ..      LSLS     r4,r4,#2
        0x000024a6:    511a        .Q      STR      r2,[r3,r4]
        0x000024a8:    bd10        ..      POP      {r4,pc}
    SYS_UnlockReg
        0x000024aa:    2059        Y       MOVS     r0,#0x59
        0x000024ac:    490b        .I      LDR      r1,[pc,#44] ; [0x24dc] = 0x50000100
        0x000024ae:    6008        .`      STR      r0,[r1,#0]
        0x000024b0:    2016        .       MOVS     r0,#0x16
        0x000024b2:    6008        .`      STR      r0,[r1,#0]
        0x000024b4:    2088        .       MOVS     r0,#0x88
        0x000024b6:    6008        .`      STR      r0,[r1,#0]
        0x000024b8:    4770        pG      BX       lr
    WDT_TIMER_RESET
        0x000024ba:    480d        .H      LDR      r0,[pc,#52] ; [0x24f0] = 0x40004000
        0x000024bc:    6800        .h      LDR      r0,[r0,#0]
        0x000024be:    2101        .!      MOVS     r1,#1
        0x000024c0:    4308        .C      ORRS     r0,r0,r1
        0x000024c2:    490b        .I      LDR      r1,[pc,#44] ; [0x24f0] = 0x40004000
        0x000024c4:    6008        .`      STR      r0,[r1,#0]
        0x000024c6:    4770        pG      BX       lr
    $d
        0x000024c8:    e000e000    ....    DCD    3758153728
        0x000024cc:    50000200    ...P    DCD    1342177792
        0x000024d0:    20000040    @..     DCD    536870976
        0x000024d4:    2000003c    <..     DCD    536870972
        0x000024d8:    20000044    D..     DCD    536870980
        0x000024dc:    50000100    ...P    DCD    1342177536
        0x000024e0:    20000904    ...     DCD    536873220
        0x000024e4:    400e0000    ...@    DCD    1074659328
        0x000024e8:    e000ed1c    ....    DCD    3758157084
        0x000024ec:    e000e100    ....    DCD    3758153984
        0x000024f0:    40004000    .@.@    DCD    1073758208
    $t
    .text
    delStandbytkey
        0x000024f4:    4770        pG      BX       lr
    setConfig
        0x000024f6:    4770        pG      BX       lr
    getDevCofig
        0x000024f8:    4770        pG      BX       lr
    playBTname
        0x000024fa:    4770        pG      BX       lr
    delStartkey
        0x000024fc:    b510        ..      PUSH     {r4,lr}
        0x000024fe:    4604        .F      MOV      r4,r0
        0x00002500:    2c55        U,      CMP      r4,#0x55
        0x00002502:    d006        ..      BEQ      0x2512 ; delStartkey + 22
        0x00002504:    2c58        X,      CMP      r4,#0x58
        0x00002506:    d005        ..      BEQ      0x2514 ; delStartkey + 24
        0x00002508:    2c5c        \,      CMP      r4,#0x5c
        0x0000250a:    d007        ..      BEQ      0x251c ; delStartkey + 32
        0x0000250c:    2c5d        ],      CMP      r4,#0x5d
        0x0000250e:    d10d        ..      BNE      0x252c ; delStartkey + 48
        0x00002510:    e008        ..      B        0x2524 ; delStartkey + 40
        0x00002512:    e00c        ..      B        0x252e ; delStartkey + 50
        0x00002514:    a007        ..      ADR      r0,{pc}+0x20 ; 0x2534
        0x00002516:    f7fffac5    ....    BL       iputs ; 0x1aa4
        0x0000251a:    e008        ..      B        0x252e ; delStartkey + 50
        0x0000251c:    a009        ..      ADR      r0,{pc}+0x28 ; 0x2544
        0x0000251e:    f7fffac1    ....    BL       iputs ; 0x1aa4
        0x00002522:    e004        ..      B        0x252e ; delStartkey + 50
        0x00002524:    a00b        ..      ADR      r0,{pc}+0x30 ; 0x2554
        0x00002526:    f7fffabd    ....    BL       iputs ; 0x1aa4
        0x0000252a:    e000        ..      B        0x252e ; delStartkey + 50
        0x0000252c:    bf00        ..      NOP      
        0x0000252e:    bf00        ..      NOP      
        0x00002530:    bd10        ..      POP      {r4,pc}
    delStartkeyContinue
        0x00002532:    4770        pG      BX       lr
    $d
        0x00002534:    45574f50    POWE    DCD    1163349840
        0x00002538:    454b2052    R KE    DCD    1162551378
        0x0000253c:    6e692059    Y in    DCD    1852383321
        0x00002540:    00000a0d    ....    DCD    2573
        0x00002544:    20434e49    INC     DCD    541281865
        0x00002548:    2059454b    KEY     DCD    542721355
        0x0000254c:    0a0d6e69    in..    DCD    168652393
        0x00002550:    00000000    ....    DCD    0
        0x00002554:    20434544    DEC     DCD    541279556
        0x00002558:    2059454b    KEY     DCD    542721355
        0x0000255c:    0a0d6e69    in..    DCD    168652393
        0x00002560:    00000000    ....    DCD    0
    $t
    .text
    adcKeyClkInit
        0x00002564:    2001        .       MOVS     r0,#1
        0x00002566:    0700        ..      LSLS     r0,r0,#28
        0x00002568:    2105        .!      MOVS     r1,#5
        0x0000256a:    0709        ..      LSLS     r1,r1,#28
        0x0000256c:    68c9        .h      LDR      r1,[r1,#0xc]
        0x0000256e:    4301        .C      ORRS     r1,r1,r0
        0x00002570:    2205        ."      MOVS     r2,#5
        0x00002572:    0712        ..      LSLS     r2,r2,#28
        0x00002574:    60d1        .`      STR      r1,[r2,#0xc]
        0x00002576:    4611        .F      MOV      r1,r2
        0x00002578:    68c9        .h      LDR      r1,[r1,#0xc]
        0x0000257a:    4381        .C      BICS     r1,r1,r0
        0x0000257c:    60d1        .`      STR      r1,[r2,#0xc]
        0x0000257e:    bf00        ..      NOP      
        0x00002580:    2000        .       MOVS     r0,#0
        0x00002582:    49fc        .I      LDR      r1,[pc,#1008] ; [0x2974] = 0x50000200
        0x00002584:    6949        Ii      LDR      r1,[r1,#0x14]
        0x00002586:    220c        ."      MOVS     r2,#0xc
        0x00002588:    4391        .C      BICS     r1,r1,r2
        0x0000258a:    4301        .C      ORRS     r1,r1,r0
        0x0000258c:    4af9        .J      LDR      r2,[pc,#996] ; [0x2974] = 0x50000200
        0x0000258e:    6151        Qa      STR      r1,[r2,#0x14]
        0x00002590:    bf00        ..      NOP      
        0x00002592:    202c        ,       MOVS     r0,#0x2c
        0x00002594:    4611        .F      MOV      r1,r2
        0x00002596:    6989        .i      LDR      r1,[r1,#0x18]
        0x00002598:    22ff        ."      MOVS     r2,#0xff
        0x0000259a:    0412        ..      LSLS     r2,r2,#16
        0x0000259c:    4391        .C      BICS     r1,r1,r2
        0x0000259e:    1e42        B.      SUBS     r2,r0,#1
        0x000025a0:    0412        ..      LSLS     r2,r2,#16
        0x000025a2:    4311        .C      ORRS     r1,r1,r2
        0x000025a4:    4af3        .J      LDR      r2,[pc,#972] ; [0x2974] = 0x50000200
        0x000025a6:    6191        .a      STR      r1,[r2,#0x18]
        0x000025a8:    bf00        ..      NOP      
        0x000025aa:    04d0        ..      LSLS     r0,r2,#19
        0x000025ac:    4611        .F      MOV      r1,r2
        0x000025ae:    6889        .h      LDR      r1,[r1,#8]
        0x000025b0:    4301        .C      ORRS     r1,r1,r0
        0x000025b2:    6091        .`      STR      r1,[r2,#8]
        0x000025b4:    bf00        ..      NOP      
        0x000025b6:    4770        pG      BX       lr
    readCAP8298
        0x000025b8:    b51c        ..      PUSH     {r2-r4,lr}
        0x000025ba:    4604        .F      MOV      r4,r0
        0x000025bc:    48ee        .H      LDR      r0,[pc,#952] ; [0x2978] = 0x2000098c
        0x000025be:    2101        .!      MOVS     r1,#1
        0x000025c0:    2302        .#      MOVS     r3,#2
        0x000025c2:    460a        .F      MOV      r2,r1
        0x000025c4:    9100        ..      STR      r1,[sp,#0]
        0x000025c6:    9001        ..      STR      r0,[sp,#4]
        0x000025c8:    2150        P!      MOVS     r1,#0x50
        0x000025ca:    48ec        .H      LDR      r0,[pc,#944] ; [0x297c] = 0x2000097c
        0x000025cc:    f000fccf    ....    BL       initI2cDataBlock ; 0x2f6e
        0x000025d0:    49e9        .I      LDR      r1,[pc,#932] ; [0x2978] = 0x2000098c
        0x000025d2:    704c        Lp      STRB     r4,[r1,#1]
        0x000025d4:    2000        .       MOVS     r0,#0
        0x000025d6:    7088        .p      STRB     r0,[r1,#2]
        0x000025d8:    20a2        .       MOVS     r0,#0xa2
        0x000025da:    7008        .p      STRB     r0,[r1,#0]
        0x000025dc:    2100        .!      MOVS     r1,#0
        0x000025de:    48e7        .H      LDR      r0,[pc,#924] ; [0x297c] = 0x2000097c
        0x000025e0:    f000fd8c    ....    BL       addI2cChain ; 0x30fc
        0x000025e4:    bf00        ..      NOP      
        0x000025e6:    48e4        .H      LDR      r0,[pc,#912] ; [0x2978] = 0x2000098c
        0x000025e8:    7800        .x      LDRB     r0,[r0,#0]
        0x000025ea:    28a2        .(      CMP      r0,#0xa2
        0x000025ec:    d0fb        ..      BEQ      0x25e6 ; readCAP8298 + 46
        0x000025ee:    48e2        .H      LDR      r0,[pc,#904] ; [0x2978] = 0x2000098c
        0x000025f0:    7880        .x      LDRB     r0,[r0,#2]
        0x000025f2:    bd1c        ..      POP      {r2-r4,pc}
    capack
        0x000025f4:    48e0        .H      LDR      r0,[pc,#896] ; [0x2978] = 0x2000098c
        0x000025f6:    7800        .x      LDRB     r0,[r0,#0]
        0x000025f8:    4770        pG      BX       lr
    readCAPBlock
        0x000025fa:    b57c        |.      PUSH     {r2-r6,lr}
        0x000025fc:    4604        .F      MOV      r4,r0
        0x000025fe:    460d        .F      MOV      r5,r1
        0x00002600:    48dd        .H      LDR      r0,[pc,#884] ; [0x2978] = 0x2000098c
        0x00002602:    2101        .!      MOVS     r1,#1
        0x00002604:    9100        ..      STR      r1,[sp,#0]
        0x00002606:    9001        ..      STR      r0,[sp,#4]
        0x00002608:    1c68        h.      ADDS     r0,r5,#1
        0x0000260a:    b2c3        ..      UXTB     r3,r0
        0x0000260c:    460a        .F      MOV      r2,r1
        0x0000260e:    2150        P!      MOVS     r1,#0x50
        0x00002610:    48da        .H      LDR      r0,[pc,#872] ; [0x297c] = 0x2000097c
        0x00002612:    f000fcac    ....    BL       initI2cDataBlock ; 0x2f6e
        0x00002616:    49d8        .I      LDR      r1,[pc,#864] ; [0x2978] = 0x2000098c
        0x00002618:    704c        Lp      STRB     r4,[r1,#1]
        0x0000261a:    2000        .       MOVS     r0,#0
        0x0000261c:    7088        .p      STRB     r0,[r1,#2]
        0x0000261e:    20a2        .       MOVS     r0,#0xa2
        0x00002620:    7008        .p      STRB     r0,[r1,#0]
        0x00002622:    2100        .!      MOVS     r1,#0
        0x00002624:    48d5        .H      LDR      r0,[pc,#852] ; [0x297c] = 0x2000097c
        0x00002626:    f000fd69    ..i.    BL       addI2cChain ; 0x30fc
        0x0000262a:    bf00        ..      NOP      
        0x0000262c:    48d2        .H      LDR      r0,[pc,#840] ; [0x2978] = 0x2000098c
        0x0000262e:    7800        .x      LDRB     r0,[r0,#0]
        0x00002630:    28a2        .(      CMP      r0,#0xa2
        0x00002632:    d0fb        ..      BEQ      0x262c ; readCAPBlock + 50
        0x00002634:    48d0        .H      LDR      r0,[pc,#832] ; [0x2978] = 0x2000098c
        0x00002636:    7800        .x      LDRB     r0,[r0,#0]
        0x00002638:    28a0        .(      CMP      r0,#0xa0
        0x0000263a:    d101        ..      BNE      0x2640 ; readCAPBlock + 70
        0x0000263c:    2001        .       MOVS     r0,#1
        0x0000263e:    bd7c        |.      POP      {r2-r6,pc}
        0x00002640:    2000        .       MOVS     r0,#0
        0x00002642:    e7fc        ..      B        0x263e ; readCAPBlock + 68
    writeCAP8298
        0x00002644:    b57c        |.      PUSH     {r2-r6,lr}
        0x00002646:    4604        .F      MOV      r4,r0
        0x00002648:    460d        .F      MOV      r5,r1
        0x0000264a:    48cb        .H      LDR      r0,[pc,#812] ; [0x2978] = 0x2000098c
        0x0000264c:    2101        .!      MOVS     r1,#1
        0x0000264e:    2302        .#      MOVS     r3,#2
        0x00002650:    2200        ."      MOVS     r2,#0
        0x00002652:    9100        ..      STR      r1,[sp,#0]
        0x00002654:    9001        ..      STR      r0,[sp,#4]
        0x00002656:    2150        P!      MOVS     r1,#0x50
        0x00002658:    48c8        .H      LDR      r0,[pc,#800] ; [0x297c] = 0x2000097c
        0x0000265a:    f000fc88    ....    BL       initI2cDataBlock ; 0x2f6e
        0x0000265e:    49c6        .I      LDR      r1,[pc,#792] ; [0x2978] = 0x2000098c
        0x00002660:    704d        Mp      STRB     r5,[r1,#1]
        0x00002662:    708c        .p      STRB     r4,[r1,#2]
        0x00002664:    20a2        .       MOVS     r0,#0xa2
        0x00002666:    7008        .p      STRB     r0,[r1,#0]
        0x00002668:    2100        .!      MOVS     r1,#0
        0x0000266a:    48c4        .H      LDR      r0,[pc,#784] ; [0x297c] = 0x2000097c
        0x0000266c:    f000fd46    ..F.    BL       addI2cChain ; 0x30fc
        0x00002670:    bf00        ..      NOP      
        0x00002672:    48c1        .H      LDR      r0,[pc,#772] ; [0x2978] = 0x2000098c
        0x00002674:    7800        .x      LDRB     r0,[r0,#0]
        0x00002676:    28a2        .(      CMP      r0,#0xa2
        0x00002678:    d0fb        ..      BEQ      0x2672 ; writeCAP8298 + 46
        0x0000267a:    48bf        .H      LDR      r0,[pc,#764] ; [0x2978] = 0x2000098c
        0x0000267c:    7800        .x      LDRB     r0,[r0,#0]
        0x0000267e:    28a0        .(      CMP      r0,#0xa0
        0x00002680:    d101        ..      BNE      0x2686 ; writeCAP8298 + 66
        0x00002682:    2001        .       MOVS     r0,#1
        0x00002684:    bd7c        |.      POP      {r2-r6,pc}
        0x00002686:    2000        .       MOVS     r0,#0
        0x00002688:    e7fc        ..      B        0x2684 ; writeCAP8298 + 64
    writeCAP8298Block
        0x0000268a:    b57c        |.      PUSH     {r2-r6,lr}
        0x0000268c:    4604        .F      MOV      r4,r0
        0x0000268e:    460d        .F      MOV      r5,r1
        0x00002690:    2001        .       MOVS     r0,#1
        0x00002692:    9401        ..      STR      r4,[sp,#4]
        0x00002694:    9000        ..      STR      r0,[sp,#0]
        0x00002696:    1c68        h.      ADDS     r0,r5,#1
        0x00002698:    b2c3        ..      UXTB     r3,r0
        0x0000269a:    2200        ."      MOVS     r2,#0
        0x0000269c:    2150        P!      MOVS     r1,#0x50
        0x0000269e:    48b7        .H      LDR      r0,[pc,#732] ; [0x297c] = 0x2000097c
        0x000026a0:    f000fc65    ..e.    BL       initI2cDataBlock ; 0x2f6e
        0x000026a4:    20a2        .       MOVS     r0,#0xa2
        0x000026a6:    7020         p      STRB     r0,[r4,#0]
        0x000026a8:    2100        .!      MOVS     r1,#0
        0x000026aa:    48b4        .H      LDR      r0,[pc,#720] ; [0x297c] = 0x2000097c
        0x000026ac:    f000fd26    ..&.    BL       addI2cChain ; 0x30fc
        0x000026b0:    bf00        ..      NOP      
        0x000026b2:    7820         x      LDRB     r0,[r4,#0]
        0x000026b4:    28a2        .(      CMP      r0,#0xa2
        0x000026b6:    d0fc        ..      BEQ      0x26b2 ; writeCAP8298Block + 40
        0x000026b8:    7820         x      LDRB     r0,[r4,#0]
        0x000026ba:    28a0        .(      CMP      r0,#0xa0
        0x000026bc:    d101        ..      BNE      0x26c2 ; writeCAP8298Block + 56
        0x000026be:    2001        .       MOVS     r0,#1
        0x000026c0:    bd7c        |.      POP      {r2-r6,pc}
        0x000026c2:    2000        .       MOVS     r0,#0
        0x000026c4:    e7fc        ..      B        0x26c0 ; writeCAP8298Block + 54
    touchKeyconfig
        0x000026c6:    b510        ..      PUSH     {r4,lr}
        0x000026c8:    2400        .$      MOVS     r4,#0
        0x000026ca:    e008        ..      B        0x26de ; touchKeyconfig + 24
        0x000026cc:    0062        b.      LSLS     r2,r4,#1
        0x000026ce:    4bac        .K      LDR      r3,[pc,#688] ; [0x2980] = 0x2000009a
        0x000026d0:    5c99        .\      LDRB     r1,[r3,r2]
        0x000026d2:    0062        b.      LSLS     r2,r4,#1
        0x000026d4:    18d2        ..      ADDS     r2,r2,r3
        0x000026d6:    7850        Px      LDRB     r0,[r2,#1]
        0x000026d8:    f7ffffb4    ....    BL       writeCAP8298 ; 0x2644
        0x000026dc:    1c64        d.      ADDS     r4,r4,#1
        0x000026de:    2c2e        .,      CMP      r4,#0x2e
        0x000026e0:    d3f4        ..      BCC      0x26cc ; touchKeyconfig + 6
        0x000026e2:    bd10        ..      POP      {r4,pc}
    capIntEnable
        0x000026e4:    4770        pG      BX       lr
    capIntDisable
        0x000026e6:    b510        ..      PUSH     {r4,lr}
        0x000026e8:    21c9        .!      MOVS     r1,#0xc9
        0x000026ea:    2000        .       MOVS     r0,#0
        0x000026ec:    f7ffffaa    ....    BL       writeCAP8298 ; 0x2644
        0x000026f0:    2032        2       MOVS     r0,#0x32
        0x000026f2:    f7fffd88    ....    BL       sysDelayMs ; 0x2206
        0x000026f6:    bd10        ..      POP      {r4,pc}
    capIntDisable1
        0x000026f8:    b510        ..      PUSH     {r4,lr}
        0x000026fa:    21c9        .!      MOVS     r1,#0xc9
        0x000026fc:    2002        .       MOVS     r0,#2
        0x000026fe:    f7ffffa1    ....    BL       writeCAP8298 ; 0x2644
        0x00002702:    2032        2       MOVS     r0,#0x32
        0x00002704:    f7fffd7f    ....    BL       sysDelayMs ; 0x2206
        0x00002708:    bd10        ..      POP      {r4,pc}
    capPinEnable
        0x0000270a:    b510        ..      PUSH     {r4,lr}
        0x0000270c:    4604        .F      MOV      r4,r0
        0x0000270e:    2121        !!      MOVS     r1,#0x21
        0x00002710:    4620         F      MOV      r0,r4
        0x00002712:    f7ffff97    ....    BL       writeCAP8298 ; 0x2644
        0x00002716:    bd10        ..      POP      {r4,pc}
    resetCap
        0x00002718:    b510        ..      PUSH     {r4,lr}
        0x0000271a:    21ce        .!      MOVS     r1,#0xce
        0x0000271c:    20aa        .       MOVS     r0,#0xaa
        0x0000271e:    f7ffff91    ....    BL       writeCAP8298 ; 0x2644
        0x00002722:    bd10        ..      POP      {r4,pc}
    capSliderPostion
        0x00002724:    b570        p.      PUSH     {r4-r6,lr}
        0x00002726:    2500        .%      MOVS     r5,#0
        0x00002728:    2600        .&      MOVS     r6,#0
        0x0000272a:    2000        .       MOVS     r0,#0
        0x0000272c:    4995        .I      LDR      r1,[pc,#596] ; [0x2984] = 0x20000114
        0x0000272e:    7008        .p      STRB     r0,[r1,#0]
        0x00002730:    2400        .$      MOVS     r4,#0
        0x00002732:    e012        ..      B        0x275a ; capSliderPostion + 54
        0x00002734:    4894        .H      LDR      r0,[pc,#592] ; [0x2988] = 0x20000130
        0x00002736:    5700        .W      LDRSB    r0,[r0,r4]
        0x00002738:    2805        .(      CMP      r0,#5
        0x0000273a:    da02        ..      BGE      0x2742 ; capSliderPostion + 30
        0x0000273c:    2000        .       MOVS     r0,#0
        0x0000273e:    4992        .I      LDR      r1,[pc,#584] ; [0x2988] = 0x20000130
        0x00002740:    5508        .U      STRB     r0,[r1,r4]
        0x00002742:    4891        .H      LDR      r0,[pc,#580] ; [0x2988] = 0x20000130
        0x00002744:    5700        .W      LDRSB    r0,[r0,r4]
        0x00002746:    42a8        .B      CMP      r0,r5
        0x00002748:    dd03        ..      BLE      0x2752 ; capSliderPostion + 46
        0x0000274a:    498e        .I      LDR      r1,[pc,#568] ; [0x2984] = 0x20000114
        0x0000274c:    700c        .p      STRB     r4,[r1,#0]
        0x0000274e:    488e        .H      LDR      r0,[pc,#568] ; [0x2988] = 0x20000130
        0x00002750:    5705        .W      LDRSB    r5,[r0,r4]
        0x00002752:    488d        .H      LDR      r0,[pc,#564] ; [0x2988] = 0x20000130
        0x00002754:    5700        .W      LDRSB    r0,[r0,r4]
        0x00002756:    1986        ..      ADDS     r6,r0,r6
        0x00002758:    1c64        d.      ADDS     r4,r4,#1
        0x0000275a:    2c06        .,      CMP      r4,#6
        0x0000275c:    dbea        ..      BLT      0x2734 ; capSliderPostion + 16
        0x0000275e:    00a8        ..      LSLS     r0,r5,#2
        0x00002760:    1828        (.      ADDS     r0,r5,r0
        0x00002762:    1040        @.      ASRS     r0,r0,#1
        0x00002764:    42b0        .B      CMP      r0,r6
        0x00002766:    db01        ..      BLT      0x276c ; capSliderPostion + 72
        0x00002768:    2d0a        .-      CMP      r5,#0xa
        0x0000276a:    da01        ..      BGE      0x2770 ; capSliderPostion + 76
        0x0000276c:    20ff        .       MOVS     r0,#0xff
        0x0000276e:    bd70        p.      POP      {r4-r6,pc}
        0x00002770:    4884        .H      LDR      r0,[pc,#528] ; [0x2984] = 0x20000114
        0x00002772:    7800        .x      LDRB     r0,[r0,#0]
        0x00002774:    2800        .(      CMP      r0,#0
        0x00002776:    d11d        ..      BNE      0x27b4 ; capSliderPostion + 144
        0x00002778:    2005        .       MOVS     r0,#5
        0x0000277a:    4984        .I      LDR      r1,[pc,#528] ; [0x298c] = 0x20000115
        0x0000277c:    7008        .p      STRB     r0,[r1,#0]
        0x0000277e:    2001        .       MOVS     r0,#1
        0x00002780:    4983        .I      LDR      r1,[pc,#524] ; [0x2990] = 0x20000116
        0x00002782:    7008        .p      STRB     r0,[r1,#0]
        0x00002784:    4880        .H      LDR      r0,[pc,#512] ; [0x2988] = 0x20000130
        0x00002786:    7809        .x      LDRB     r1,[r1,#0]
        0x00002788:    5640        @V      LDRSB    r0,[r0,r1]
        0x0000278a:    497f        .I      LDR      r1,[pc,#508] ; [0x2988] = 0x20000130
        0x0000278c:    4a7f        .J      LDR      r2,[pc,#508] ; [0x298c] = 0x20000115
        0x0000278e:    7812        .x      LDRB     r2,[r2,#0]
        0x00002790:    5689        .V      LDRSB    r1,[r1,r2]
        0x00002792:    4288        .B      CMP      r0,r1
        0x00002794:    dd05        ..      BLE      0x27a2 ; capSliderPostion + 126
        0x00002796:    2000        .       MOVS     r0,#0
        0x00002798:    497c        |I      LDR      r1,[pc,#496] ; [0x298c] = 0x20000115
        0x0000279a:    7008        .p      STRB     r0,[r1,#0]
        0x0000279c:    497d        }I      LDR      r1,[pc,#500] ; [0x2994] = 0x20000110
        0x0000279e:    6008        .`      STR      r0,[r1,#0]
        0x000027a0:    e053        S.      B        0x284a ; capSliderPostion + 294
        0x000027a2:    2000        .       MOVS     r0,#0
        0x000027a4:    497a        zI      LDR      r1,[pc,#488] ; [0x2990] = 0x20000116
        0x000027a6:    7008        .p      STRB     r0,[r1,#0]
        0x000027a8:    2005        .       MOVS     r0,#5
        0x000027aa:    4978        xI      LDR      r1,[pc,#480] ; [0x298c] = 0x20000115
        0x000027ac:    7008        .p      STRB     r0,[r1,#0]
        0x000027ae:    4979        yI      LDR      r1,[pc,#484] ; [0x2994] = 0x20000110
        0x000027b0:    6008        .`      STR      r0,[r1,#0]
        0x000027b2:    e04a        J.      B        0x284a ; capSliderPostion + 294
        0x000027b4:    4873        sH      LDR      r0,[pc,#460] ; [0x2984] = 0x20000114
        0x000027b6:    7800        .x      LDRB     r0,[r0,#0]
        0x000027b8:    2805        .(      CMP      r0,#5
        0x000027ba:    d11d        ..      BNE      0x27f8 ; capSliderPostion + 212
        0x000027bc:    2004        .       MOVS     r0,#4
        0x000027be:    4973        sI      LDR      r1,[pc,#460] ; [0x298c] = 0x20000115
        0x000027c0:    7008        .p      STRB     r0,[r1,#0]
        0x000027c2:    2000        .       MOVS     r0,#0
        0x000027c4:    4972        rI      LDR      r1,[pc,#456] ; [0x2990] = 0x20000116
        0x000027c6:    7008        .p      STRB     r0,[r1,#0]
        0x000027c8:    486f        oH      LDR      r0,[pc,#444] ; [0x2988] = 0x20000130
        0x000027ca:    7809        .x      LDRB     r1,[r1,#0]
        0x000027cc:    5640        @V      LDRSB    r0,[r0,r1]
        0x000027ce:    496e        nI      LDR      r1,[pc,#440] ; [0x2988] = 0x20000130
        0x000027d0:    4a6e        nJ      LDR      r2,[pc,#440] ; [0x298c] = 0x20000115
        0x000027d2:    7812        .x      LDRB     r2,[r2,#0]
        0x000027d4:    5689        .V      LDRSB    r1,[r1,r2]
        0x000027d6:    4288        .B      CMP      r0,r1
        0x000027d8:    dd05        ..      BLE      0x27e6 ; capSliderPostion + 194
        0x000027da:    2005        .       MOVS     r0,#5
        0x000027dc:    496b        kI      LDR      r1,[pc,#428] ; [0x298c] = 0x20000115
        0x000027de:    7008        .p      STRB     r0,[r1,#0]
        0x000027e0:    496c        lI      LDR      r1,[pc,#432] ; [0x2994] = 0x20000110
        0x000027e2:    6008        .`      STR      r0,[r1,#0]
        0x000027e4:    e031        1.      B        0x284a ; capSliderPostion + 294
        0x000027e6:    2005        .       MOVS     r0,#5
        0x000027e8:    4969        iI      LDR      r1,[pc,#420] ; [0x2990] = 0x20000116
        0x000027ea:    7008        .p      STRB     r0,[r1,#0]
        0x000027ec:    2004        .       MOVS     r0,#4
        0x000027ee:    4967        gI      LDR      r1,[pc,#412] ; [0x298c] = 0x20000115
        0x000027f0:    7008        .p      STRB     r0,[r1,#0]
        0x000027f2:    4968        hI      LDR      r1,[pc,#416] ; [0x2994] = 0x20000110
        0x000027f4:    6008        .`      STR      r0,[r1,#0]
        0x000027f6:    e028        (.      B        0x284a ; capSliderPostion + 294
        0x000027f8:    4862        bH      LDR      r0,[pc,#392] ; [0x2984] = 0x20000114
        0x000027fa:    7800        .x      LDRB     r0,[r0,#0]
        0x000027fc:    1e40        @.      SUBS     r0,r0,#1
        0x000027fe:    4963        cI      LDR      r1,[pc,#396] ; [0x298c] = 0x20000115
        0x00002800:    7008        .p      STRB     r0,[r1,#0]
        0x00002802:    4860        `H      LDR      r0,[pc,#384] ; [0x2984] = 0x20000114
        0x00002804:    7800        .x      LDRB     r0,[r0,#0]
        0x00002806:    1c40        @.      ADDS     r0,r0,#1
        0x00002808:    4961        aI      LDR      r1,[pc,#388] ; [0x2990] = 0x20000116
        0x0000280a:    7008        .p      STRB     r0,[r1,#0]
        0x0000280c:    485e        ^H      LDR      r0,[pc,#376] ; [0x2988] = 0x20000130
        0x0000280e:    7809        .x      LDRB     r1,[r1,#0]
        0x00002810:    5640        @V      LDRSB    r0,[r0,r1]
        0x00002812:    495d        ]I      LDR      r1,[pc,#372] ; [0x2988] = 0x20000130
        0x00002814:    4a5d        ]J      LDR      r2,[pc,#372] ; [0x298c] = 0x20000115
        0x00002816:    7812        .x      LDRB     r2,[r2,#0]
        0x00002818:    5689        .V      LDRSB    r1,[r1,r2]
        0x0000281a:    4288        .B      CMP      r0,r1
        0x0000281c:    dd08        ..      BLE      0x2830 ; capSliderPostion + 268
        0x0000281e:    4859        YH      LDR      r0,[pc,#356] ; [0x2984] = 0x20000114
        0x00002820:    7800        .x      LDRB     r0,[r0,#0]
        0x00002822:    495a        ZI      LDR      r1,[pc,#360] ; [0x298c] = 0x20000115
        0x00002824:    7008        .p      STRB     r0,[r1,#0]
        0x00002826:    4857        WH      LDR      r0,[pc,#348] ; [0x2984] = 0x20000114
        0x00002828:    7800        .x      LDRB     r0,[r0,#0]
        0x0000282a:    495a        ZI      LDR      r1,[pc,#360] ; [0x2994] = 0x20000110
        0x0000282c:    6008        .`      STR      r0,[r1,#0]
        0x0000282e:    e00c        ..      B        0x284a ; capSliderPostion + 294
        0x00002830:    4854        TH      LDR      r0,[pc,#336] ; [0x2984] = 0x20000114
        0x00002832:    7800        .x      LDRB     r0,[r0,#0]
        0x00002834:    4956        VI      LDR      r1,[pc,#344] ; [0x2990] = 0x20000116
        0x00002836:    7008        .p      STRB     r0,[r1,#0]
        0x00002838:    4852        RH      LDR      r0,[pc,#328] ; [0x2984] = 0x20000114
        0x0000283a:    7800        .x      LDRB     r0,[r0,#0]
        0x0000283c:    1e40        @.      SUBS     r0,r0,#1
        0x0000283e:    4953        SI      LDR      r1,[pc,#332] ; [0x298c] = 0x20000115
        0x00002840:    7008        .p      STRB     r0,[r1,#0]
        0x00002842:    4608        .F      MOV      r0,r1
        0x00002844:    7800        .x      LDRB     r0,[r0,#0]
        0x00002846:    4953        SI      LDR      r1,[pc,#332] ; [0x2994] = 0x20000110
        0x00002848:    6008        .`      STR      r0,[r1,#0]
        0x0000284a:    484f        OH      LDR      r0,[pc,#316] ; [0x2988] = 0x20000130
        0x0000284c:    4950        PI      LDR      r1,[pc,#320] ; [0x2990] = 0x20000116
        0x0000284e:    7809        .x      LDRB     r1,[r1,#0]
        0x00002850:    5640        @V      LDRSB    r0,[r0,r1]
        0x00002852:    2114        .!      MOVS     r1,#0x14
        0x00002854:    4348        HC      MULS     r0,r1,r0
        0x00002856:    4950        PI      LDR      r1,[pc,#320] ; [0x2998] = 0x2000010c
        0x00002858:    6008        .`      STR      r0,[r1,#0]
        0x0000285a:    484b        KH      LDR      r0,[pc,#300] ; [0x2988] = 0x20000130
        0x0000285c:    4a4c        LJ      LDR      r2,[pc,#304] ; [0x2990] = 0x20000116
        0x0000285e:    7812        .x      LDRB     r2,[r2,#0]
        0x00002860:    5680        .V      LDRSB    r0,[r0,r2]
        0x00002862:    4a49        IJ      LDR      r2,[pc,#292] ; [0x2988] = 0x20000130
        0x00002864:    4b49        IK      LDR      r3,[pc,#292] ; [0x298c] = 0x20000115
        0x00002866:    781b        .x      LDRB     r3,[r3,#0]
        0x00002868:    56d2        .V      LDRSB    r2,[r2,r3]
        0x0000286a:    1881        ..      ADDS     r1,r0,r2
        0x0000286c:    484a        JH      LDR      r0,[pc,#296] ; [0x2998] = 0x2000010c
        0x0000286e:    6800        .h      LDR      r0,[r0,#0]
        0x00002870:    f004fab4    ....    BL       __aeabi_uidiv ; 0x6ddc
        0x00002874:    4948        HI      LDR      r1,[pc,#288] ; [0x2998] = 0x2000010c
        0x00002876:    6008        .`      STR      r0,[r1,#0]
        0x00002878:    4846        FH      LDR      r0,[pc,#280] ; [0x2994] = 0x20000110
        0x0000287a:    6800        .h      LDR      r0,[r0,#0]
        0x0000287c:    2114        .!      MOVS     r1,#0x14
        0x0000287e:    4348        HC      MULS     r0,r1,r0
        0x00002880:    4945        EI      LDR      r1,[pc,#276] ; [0x2998] = 0x2000010c
        0x00002882:    6809        .h      LDR      r1,[r1,#0]
        0x00002884:    1840        @.      ADDS     r0,r0,r1
        0x00002886:    e772        r.      B        0x276e ; capSliderPostion + 74
    adcReadKeyContinue
        0x00002888:    2055        U       MOVS     r0,#0x55
        0x0000288a:    4944        DI      LDR      r1,[pc,#272] ; [0x299c] = 0x20000066
        0x0000288c:    7008        .p      STRB     r0,[r1,#0]
        0x0000288e:    4844        DH      LDR      r0,[pc,#272] ; [0x29a0] = 0x20000065
        0x00002890:    7800        .x      LDRB     r0,[r0,#0]
        0x00002892:    2855        U(      CMP      r0,#0x55
        0x00002894:    d004        ..      BEQ      0x28a0 ; adcReadKeyContinue + 24
        0x00002896:    2005        .       MOVS     r0,#5
        0x00002898:    43c0        .C      MVNS     r0,r0
        0x0000289a:    4942        BI      LDR      r1,[pc,#264] ; [0x29a4] = 0x20000118
        0x0000289c:    6008        .`      STR      r0,[r1,#0]
        0x0000289e:    e018        ..      B        0x28d2 ; adcReadKeyContinue + 74
        0x000028a0:    4840        @H      LDR      r0,[pc,#256] ; [0x29a4] = 0x20000118
        0x000028a2:    6800        .h      LDR      r0,[r0,#0]
        0x000028a4:    1c40        @.      ADDS     r0,r0,#1
        0x000028a6:    493f        ?I      LDR      r1,[pc,#252] ; [0x29a4] = 0x20000118
        0x000028a8:    6008        .`      STR      r0,[r1,#0]
        0x000028aa:    2801        .(      CMP      r0,#1
        0x000028ac:    da04        ..      BGE      0x28b8 ; adcReadKeyContinue + 48
        0x000028ae:    483e        >H      LDR      r0,[pc,#248] ; [0x29a8] = 0x20000138
        0x000028b0:    7800        .x      LDRB     r0,[r0,#0]
        0x000028b2:    493e        >I      LDR      r1,[pc,#248] ; [0x29ac] = 0x2000011c
        0x000028b4:    7008        .p      STRB     r0,[r1,#0]
        0x000028b6:    e00c        ..      B        0x28d2 ; adcReadKeyContinue + 74
        0x000028b8:    2000        .       MOVS     r0,#0
        0x000028ba:    493a        :I      LDR      r1,[pc,#232] ; [0x29a4] = 0x20000118
        0x000028bc:    6008        .`      STR      r0,[r1,#0]
        0x000028be:    483b        ;H      LDR      r0,[pc,#236] ; [0x29ac] = 0x2000011c
        0x000028c0:    7800        .x      LDRB     r0,[r0,#0]
        0x000028c2:    4939        9I      LDR      r1,[pc,#228] ; [0x29a8] = 0x20000138
        0x000028c4:    7809        .x      LDRB     r1,[r1,#0]
        0x000028c6:    4288        .B      CMP      r0,r1
        0x000028c8:    d103        ..      BNE      0x28d2 ; adcReadKeyContinue + 74
        0x000028ca:    4837        7H      LDR      r0,[pc,#220] ; [0x29a8] = 0x20000138
        0x000028cc:    7800        .x      LDRB     r0,[r0,#0]
        0x000028ce:    4933        3I      LDR      r1,[pc,#204] ; [0x299c] = 0x20000066
        0x000028d0:    7008        .p      STRB     r0,[r1,#0]
        0x000028d2:    4832        2H      LDR      r0,[pc,#200] ; [0x299c] = 0x20000066
        0x000028d4:    7800        .x      LDRB     r0,[r0,#0]
        0x000028d6:    4770        pG      BX       lr
    keyRst
        0x000028d8:    2055        U       MOVS     r0,#0x55
        0x000028da:    4933        3I      LDR      r1,[pc,#204] ; [0x29a8] = 0x20000138
        0x000028dc:    7008        .p      STRB     r0,[r1,#0]
        0x000028de:    4930        0I      LDR      r1,[pc,#192] ; [0x29a0] = 0x20000065
        0x000028e0:    7008        .p      STRB     r0,[r1,#0]
        0x000028e2:    4770        pG      BX       lr
    devTestDealAdcKey
        0x000028e4:    4770        pG      BX       lr
    devStandbyDealAdcKey
        0x000028e6:    b510        ..      PUSH     {r4,lr}
        0x000028e8:    482d        -H      LDR      r0,[pc,#180] ; [0x29a0] = 0x20000065
        0x000028ea:    7800        .x      LDRB     r0,[r0,#0]
        0x000028ec:    f7fffe02    ....    BL       delStandbytkey ; 0x24f4
        0x000028f0:    bd10        ..      POP      {r4,pc}
    uartdecode2
        0x000028f2:    b57f        ..      PUSH     {r0-r6,lr}
        0x000028f4:    4606        .F      MOV      r6,r0
        0x000028f6:    460d        .F      MOV      r5,r1
        0x000028f8:    4669        iF      MOV      r1,sp
        0x000028fa:    4630        0F      MOV      r0,r6
        0x000028fc:    f7fff924    ..$.    BL       itoa ; 0x1b48
        0x00002900:    4604        .F      MOV      r4,r0
        0x00002902:    e003        ..      B        0x290c ; uartdecode2 + 26
        0x00002904:    2020                MOVS     r0,#0x20
        0x00002906:    4669        iF      MOV      r1,sp
        0x00002908:    5508        .U      STRB     r0,[r1,r4]
        0x0000290a:    1c64        d.      ADDS     r4,r4,#1
        0x0000290c:    2c06        .,      CMP      r4,#6
        0x0000290e:    d3f9        ..      BCC      0x2904 ; uartdecode2 + 18
        0x00002910:    2200        ."      MOVS     r2,#0
        0x00002912:    4620         F      MOV      r0,r4
        0x00002914:    1c64        d.      ADDS     r4,r4,#1
        0x00002916:    4669        iF      MOV      r1,sp
        0x00002918:    540a        .T      STRB     r2,[r1,r0]
        0x0000291a:    4628        (F      MOV      r0,r5
        0x0000291c:    f7fff8c2    ....    BL       iputs ; 0x1aa4
        0x00002920:    4668        hF      MOV      r0,sp
        0x00002922:    f7fff8bf    ....    BL       iputs ; 0x1aa4
        0x00002926:    bd7f        ..      POP      {r0-r6,pc}
    touchClr
        0x00002928:    2064        d       MOVS     r0,#0x64
        0x0000292a:    4770        pG      BX       lr
    NFC_DECT
        0x0000292c:    4820         H      LDR      r0,[pc,#128] ; [0x29b0] = 0x2000013a
        0x0000292e:    7800        .x      LDRB     r0,[r0,#0]
        0x00002930:    2800        .(      CMP      r0,#0
        0x00002932:    d004        ..      BEQ      0x293e ; NFC_DECT + 18
        0x00002934:    2000        .       MOVS     r0,#0
        0x00002936:    491e        .I      LDR      r1,[pc,#120] ; [0x29b0] = 0x2000013a
        0x00002938:    7008        .p      STRB     r0,[r1,#0]
        0x0000293a:    2001        .       MOVS     r0,#1
        0x0000293c:    4770        pG      BX       lr
        0x0000293e:    2000        .       MOVS     r0,#0
        0x00002940:    e7fc        ..      B        0x293c ; NFC_DECT + 16
    touchKeyRemap
        0x00002942:    b510        ..      PUSH     {r4,lr}
        0x00002944:    2055        U       MOVS     r0,#0x55
        0x00002946:    4918        .I      LDR      r1,[pc,#96] ; [0x29a8] = 0x20000138
        0x00002948:    7008        .p      STRB     r0,[r1,#0]
        0x0000294a:    2000        .       MOVS     r0,#0
        0x0000294c:    4918        .I      LDR      r1,[pc,#96] ; [0x29b0] = 0x2000013a
        0x0000294e:    7008        .p      STRB     r0,[r1,#0]
        0x00002950:    2003        .       MOVS     r0,#3
        0x00002952:    f7fffe31    ..1.    BL       readCAP8298 ; 0x25b8
        0x00002956:    4917        .I      LDR      r1,[pc,#92] ; [0x29b4] = 0x20000139
        0x00002958:    7008        .p      STRB     r0,[r1,#0]
        0x0000295a:    2005        .       MOVS     r0,#5
        0x0000295c:    f7fffc53    ..S.    BL       sysDelayMs ; 0x2206
        0x00002960:    20c0        .       MOVS     r0,#0xc0
        0x00002962:    f7fffe29    ..).    BL       readCAP8298 ; 0x25b8
        0x00002966:    a114        ..      ADR      r1,{pc}+0x52 ; 0x29b8
        0x00002968:    4812        .H      LDR      r0,[pc,#72] ; [0x29b4] = 0x20000139
        0x0000296a:    7800        .x      LDRB     r0,[r0,#0]
        0x0000296c:    f7fffb28    ..(.    BL       uartdecode ; 0x1fc0
        0x00002970:    bd10        ..      POP      {r4,pc}
    $d
        0x00002972:    0000        ..      DCW    0
        0x00002974:    50000200    ...P    DCD    1342177792
        0x00002978:    2000098c    ...     DCD    536873356
        0x0000297c:    2000097c    |..     DCD    536873340
        0x00002980:    2000009a    ...     DCD    536871066
        0x00002984:    20000114    ...     DCD    536871188
        0x00002988:    20000130    0..     DCD    536871216
        0x0000298c:    20000115    ...     DCD    536871189
        0x00002990:    20000116    ...     DCD    536871190
        0x00002994:    20000110    ...     DCD    536871184
        0x00002998:    2000010c    ...     DCD    536871180
        0x0000299c:    20000066    f..     DCD    536871014
        0x000029a0:    20000065    e..     DCD    536871013
        0x000029a4:    20000118    ...     DCD    536871192
        0x000029a8:    20000138    8..     DCD    536871224
        0x000029ac:    2000011c    ...     DCD    536871196
        0x000029b0:    2000013a    :..     DCD    536871226
        0x000029b4:    20000139    9..     DCD    536871225
        0x000029b8:    79656b20     key    DCD    2036689696
        0x000029bc:    00000020     ...    DCD    32
    $t
    adcReadKey
        0x000029c0:    48f9        .H      LDR      r0,[pc,#996] ; [0x2da8] = 0x2000006e
        0x000029c2:    7800        .x      LDRB     r0,[r0,#0]
        0x000029c4:    2855        U(      CMP      r0,#0x55
        0x000029c6:    d106        ..      BNE      0x29d6 ; adcReadKey + 22
        0x000029c8:    49f8        .I      LDR      r1,[pc,#992] ; [0x2dac] = 0x20000065
        0x000029ca:    7008        .p      STRB     r0,[r1,#0]
        0x000029cc:    49f8        .I      LDR      r1,[pc,#992] ; [0x2db0] = 0x2000011e
        0x000029ce:    7008        .p      STRB     r0,[r1,#0]
        0x000029d0:    49f8        .I      LDR      r1,[pc,#992] ; [0x2db4] = 0x2000011d
        0x000029d2:    7008        .p      STRB     r0,[r1,#0]
        0x000029d4:    e02d        -.      B        0x2a32 ; adcReadKey + 114
        0x000029d6:    48f7        .H      LDR      r0,[pc,#988] ; [0x2db4] = 0x2000011d
        0x000029d8:    7800        .x      LDRB     r0,[r0,#0]
        0x000029da:    49f3        .I      LDR      r1,[pc,#972] ; [0x2da8] = 0x2000006e
        0x000029dc:    7809        .x      LDRB     r1,[r1,#0]
        0x000029de:    4288        .B      CMP      r0,r1
        0x000029e0:    d103        ..      BNE      0x29ea ; adcReadKey + 42
        0x000029e2:    2055        U       MOVS     r0,#0x55
        0x000029e4:    49f1        .I      LDR      r1,[pc,#964] ; [0x2dac] = 0x20000065
        0x000029e6:    7008        .p      STRB     r0,[r1,#0]
        0x000029e8:    e023        #.      B        0x2a32 ; adcReadKey + 114
        0x000029ea:    48f1        .H      LDR      r0,[pc,#964] ; [0x2db0] = 0x2000011e
        0x000029ec:    7800        .x      LDRB     r0,[r0,#0]
        0x000029ee:    2855        U(      CMP      r0,#0x55
        0x000029f0:    d109        ..      BNE      0x2a06 ; adcReadKey + 70
        0x000029f2:    48ed        .H      LDR      r0,[pc,#948] ; [0x2da8] = 0x2000006e
        0x000029f4:    7800        .x      LDRB     r0,[r0,#0]
        0x000029f6:    49ee        .I      LDR      r1,[pc,#952] ; [0x2db0] = 0x2000011e
        0x000029f8:    7008        .p      STRB     r0,[r1,#0]
        0x000029fa:    2055        U       MOVS     r0,#0x55
        0x000029fc:    49eb        .I      LDR      r1,[pc,#940] ; [0x2dac] = 0x20000065
        0x000029fe:    7008        .p      STRB     r0,[r1,#0]
        0x00002a00:    49ec        .I      LDR      r1,[pc,#944] ; [0x2db4] = 0x2000011d
        0x00002a02:    7008        .p      STRB     r0,[r1,#0]
        0x00002a04:    e015        ..      B        0x2a32 ; adcReadKey + 114
        0x00002a06:    48ea        .H      LDR      r0,[pc,#936] ; [0x2db0] = 0x2000011e
        0x00002a08:    7800        .x      LDRB     r0,[r0,#0]
        0x00002a0a:    49e7        .I      LDR      r1,[pc,#924] ; [0x2da8] = 0x2000006e
        0x00002a0c:    7809        .x      LDRB     r1,[r1,#0]
        0x00002a0e:    4288        .B      CMP      r0,r1
        0x00002a10:    d106        ..      BNE      0x2a20 ; adcReadKey + 96
        0x00002a12:    48e5        .H      LDR      r0,[pc,#916] ; [0x2da8] = 0x2000006e
        0x00002a14:    7800        .x      LDRB     r0,[r0,#0]
        0x00002a16:    49e5        .I      LDR      r1,[pc,#916] ; [0x2dac] = 0x20000065
        0x00002a18:    7008        .p      STRB     r0,[r1,#0]
        0x00002a1a:    49e6        .I      LDR      r1,[pc,#920] ; [0x2db4] = 0x2000011d
        0x00002a1c:    7008        .p      STRB     r0,[r1,#0]
        0x00002a1e:    e008        ..      B        0x2a32 ; adcReadKey + 114
        0x00002a20:    48e1        .H      LDR      r0,[pc,#900] ; [0x2da8] = 0x2000006e
        0x00002a22:    7800        .x      LDRB     r0,[r0,#0]
        0x00002a24:    49e2        .I      LDR      r1,[pc,#904] ; [0x2db0] = 0x2000011e
        0x00002a26:    7008        .p      STRB     r0,[r1,#0]
        0x00002a28:    2055        U       MOVS     r0,#0x55
        0x00002a2a:    49e0        .I      LDR      r1,[pc,#896] ; [0x2dac] = 0x20000065
        0x00002a2c:    7008        .p      STRB     r0,[r1,#0]
        0x00002a2e:    49e1        .I      LDR      r1,[pc,#900] ; [0x2db4] = 0x2000011d
        0x00002a30:    7008        .p      STRB     r0,[r1,#0]
        0x00002a32:    48de        .H      LDR      r0,[pc,#888] ; [0x2dac] = 0x20000065
        0x00002a34:    7800        .x      LDRB     r0,[r0,#0]
        0x00002a36:    4770        pG      BX       lr
    devStartDealAdcKey
        0x00002a38:    b510        ..      PUSH     {r4,lr}
        0x00002a3a:    48dc        .H      LDR      r0,[pc,#880] ; [0x2dac] = 0x20000065
        0x00002a3c:    7800        .x      LDRB     r0,[r0,#0]
        0x00002a3e:    f7fffd5d    ..].    BL       delStartkey ; 0x24fc
        0x00002a42:    bd10        ..      POP      {r4,pc}
    adcKeyHook
        0x00002a44:    4770        pG      BX       lr
    adckeyScan
        0x00002a46:    b510        ..      PUSH     {r4,lr}
        0x00002a48:    f7ffffba    ....    BL       adcReadKey ; 0x29c0
        0x00002a4c:    49d7        .I      LDR      r1,[pc,#860] ; [0x2dac] = 0x20000065
        0x00002a4e:    7008        .p      STRB     r0,[r1,#0]
        0x00002a50:    f7ffff1a    ....    BL       adcReadKeyContinue ; 0x2888
        0x00002a54:    49d8        .I      LDR      r1,[pc,#864] ; [0x2db8] = 0x20000066
        0x00002a56:    7008        .p      STRB     r0,[r1,#0]
        0x00002a58:    48d8        .H      LDR      r0,[pc,#864] ; [0x2dbc] = 0x20000565
        0x00002a5a:    7800        .x      LDRB     r0,[r0,#0]
        0x00002a5c:    2800        .(      CMP      r0,#0
        0x00002a5e:    d007        ..      BEQ      0x2a70 ; adckeyScan + 42
        0x00002a60:    2801        .(      CMP      r0,#1
        0x00002a62:    d002        ..      BEQ      0x2a6a ; adckeyScan + 36
        0x00002a64:    2802        .(      CMP      r0,#2
        0x00002a66:    d10f        ..      BNE      0x2a88 ; adckeyScan + 66
        0x00002a68:    e008        ..      B        0x2a7c ; adckeyScan + 54
        0x00002a6a:    f7ffffe5    ....    BL       devStartDealAdcKey ; 0x2a38
        0x00002a6e:    e00f        ..      B        0x2a90 ; adckeyScan + 74
        0x00002a70:    a0d3        ..      ADR      r0,{pc}+0x350 ; 0x2dc0
        0x00002a72:    f7fff817    ....    BL       iputs ; 0x1aa4
        0x00002a76:    f7ffff35    ..5.    BL       devTestDealAdcKey ; 0x28e4
        0x00002a7a:    e009        ..      B        0x2a90 ; adckeyScan + 74
        0x00002a7c:    a0d1        ..      ADR      r0,{pc}+0x348 ; 0x2dc4
        0x00002a7e:    f7fff811    ....    BL       iputs ; 0x1aa4
        0x00002a82:    f7ffff30    ..0.    BL       devStandbyDealAdcKey ; 0x28e6
        0x00002a86:    e003        ..      B        0x2a90 ; adckeyScan + 74
        0x00002a88:    a0cf        ..      ADR      r0,{pc}+0x340 ; 0x2dc8
        0x00002a8a:    f7fff80b    ....    BL       iputs ; 0x1aa4
        0x00002a8e:    bf00        ..      NOP      
        0x00002a90:    bf00        ..      NOP      
        0x00002a92:    4bce        .K      LDR      r3,[pc,#824] ; [0x2dcc] = 0x2a47
        0x00002a94:    2200        ."      MOVS     r2,#0
        0x00002a96:    211e        .!      MOVS     r1,#0x1e
        0x00002a98:    48cd        .H      LDR      r0,[pc,#820] ; [0x2dd0] = 0x20000067
        0x00002a9a:    7800        .x      LDRB     r0,[r0,#0]
        0x00002a9c:    f7fffcac    ....    BL       startATask ; 0x23f8
        0x00002aa0:    bd10        ..      POP      {r4,pc}
    adcKeyInit
        0x00002aa2:    b510        ..      PUSH     {r4,lr}
        0x00002aa4:    bf00        ..      NOP      
        0x00002aa6:    2005        .       MOVS     r0,#5
        0x00002aa8:    0700        ..      LSLS     r0,r0,#28
        0x00002aaa:    6bc0        .k      LDR      r0,[r0,#0x3c]
        0x00002aac:    2110        .!      MOVS     r1,#0x10
        0x00002aae:    4308        .C      ORRS     r0,r0,r1
        0x00002ab0:    2105        .!      MOVS     r1,#5
        0x00002ab2:    0709        ..      LSLS     r1,r1,#28
        0x00002ab4:    63c8        .c      STR      r0,[r1,#0x3c]
        0x00002ab6:    48c7        .H      LDR      r0,[pc,#796] ; [0x2dd4] = 0x50000040
        0x00002ab8:    6940        @i      LDR      r0,[r0,#0x14]
        0x00002aba:    2101        .!      MOVS     r1,#1
        0x00002abc:    0509        ..      LSLS     r1,r1,#20
        0x00002abe:    4308        .C      ORRS     r0,r0,r1
        0x00002ac0:    49c4        .I      LDR      r1,[pc,#784] ; [0x2dd4] = 0x50000040
        0x00002ac2:    6148        Ha      STR      r0,[r1,#0x14]
        0x00002ac4:    bf00        ..      NOP      
        0x00002ac6:    2004        .       MOVS     r0,#4
        0x00002ac8:    2100        .!      MOVS     r1,#0
        0x00002aca:    4ac3        .J      LDR      r2,[pc,#780] ; [0x2dd8] = 0x500040c0
        0x00002acc:    6812        .h      LDR      r2,[r2,#0]
        0x00002ace:    0044        D.      LSLS     r4,r0,#1
        0x00002ad0:    2303        .#      MOVS     r3,#3
        0x00002ad2:    40a3        .@      LSLS     r3,r3,r4
        0x00002ad4:    439a        .C      BICS     r2,r2,r3
        0x00002ad6:    0044        D.      LSLS     r4,r0,#1
        0x00002ad8:    460b        .F      MOV      r3,r1
        0x00002ada:    40a3        .@      LSLS     r3,r3,r4
        0x00002adc:    431a        .C      ORRS     r2,r2,r3
        0x00002ade:    4bbe        .K      LDR      r3,[pc,#760] ; [0x2dd8] = 0x500040c0
        0x00002ae0:    601a        .`      STR      r2,[r3,#0]
        0x00002ae2:    bf00        ..      NOP      
        0x00002ae4:    bf00        ..      NOP      
        0x00002ae6:    4619        .F      MOV      r1,r3
        0x00002ae8:    6849        Ih      LDR      r1,[r1,#4]
        0x00002aea:    4602        .F      MOV      r2,r0
        0x00002aec:    3210        .2      ADDS     r2,r2,#0x10
        0x00002aee:    2301        .#      MOVS     r3,#1
        0x00002af0:    4093        .@      LSLS     r3,r3,r2
        0x00002af2:    4319        .C      ORRS     r1,r1,r3
        0x00002af4:    4ab8        .J      LDR      r2,[pc,#736] ; [0x2dd8] = 0x500040c0
        0x00002af6:    6051        Q`      STR      r1,[r2,#4]
        0x00002af8:    bf00        ..      NOP      
        0x00002afa:    2008        .       MOVS     r0,#8
        0x00002afc:    49b7        .I      LDR      r1,[pc,#732] ; [0x2ddc] = 0x400e0000
        0x00002afe:    6a09        .j      LDR      r1,[r1,#0x20]
        0x00002b00:    220c        ."      MOVS     r2,#0xc
        0x00002b02:    4391        .C      BICS     r1,r1,r2
        0x00002b04:    4301        .C      ORRS     r1,r1,r0
        0x00002b06:    4ab5        .J      LDR      r2,[pc,#724] ; [0x2ddc] = 0x400e0000
        0x00002b08:    6211        .b      STR      r1,[r2,#0x20]
        0x00002b0a:    bf00        ..      NOP      
        0x00002b0c:    2010        .       MOVS     r0,#0x10
        0x00002b0e:    f000f9fd    ....    BL       ADC_CH_ENABLE ; 0x2f0c
        0x00002b12:    20ff        .       MOVS     r0,#0xff
        0x00002b14:    3081        .0      ADDS     r0,r0,#0x81
        0x00002b16:    f000f9f9    ....    BL       ADC_CH_ENABLE ; 0x2f0c
        0x00002b1a:    bf00        ..      NOP      
        0x00002b1c:    48af        .H      LDR      r0,[pc,#700] ; [0x2ddc] = 0x400e0000
        0x00002b1e:    6a00        .j      LDR      r0,[r0,#0x20]
        0x00002b20:    2101        .!      MOVS     r1,#1
        0x00002b22:    4308        .C      ORRS     r0,r0,r1
        0x00002b24:    49ad        .I      LDR      r1,[pc,#692] ; [0x2ddc] = 0x400e0000
        0x00002b26:    6208        .b      STR      r0,[r1,#0x20]
        0x00002b28:    bf00        ..      NOP      
        0x00002b2a:    bd10        ..      POP      {r4,pc}
    adckeyTaskInit
        0x00002b2c:    b510        ..      PUSH     {r4,lr}
        0x00002b2e:    f7ffffb8    ....    BL       adcKeyInit ; 0x2aa2
        0x00002b32:    2102        .!      MOVS     r1,#2
        0x00002b34:    201d        .       MOVS     r0,#0x1d
        0x00002b36:    f000f9aa    ....    BL       NVIC_SetPriority ; 0x2e8e
        0x00002b3a:    f7fdfbf8    ....    BL       DrvADC_EnableInt ; 0x32e
        0x00002b3e:    2000        .       MOVS     r0,#0
        0x00002b40:    49a7        .I      LDR      r1,[pc,#668] ; [0x2de0] = 0x20000084
        0x00002b42:    6008        .`      STR      r0,[r1,#0]
        0x00002b44:    f7fffc28    ..(.    BL       getATask ; 0x2398
        0x00002b48:    49a1        .I      LDR      r1,[pc,#644] ; [0x2dd0] = 0x20000067
        0x00002b4a:    7008        .p      STRB     r0,[r1,#0]
        0x00002b4c:    4b9f        .K      LDR      r3,[pc,#636] ; [0x2dcc] = 0x2a47
        0x00002b4e:    2200        ."      MOVS     r2,#0
        0x00002b50:    211e        .!      MOVS     r1,#0x1e
        0x00002b52:    489f        .H      LDR      r0,[pc,#636] ; [0x2dd0] = 0x20000067
        0x00002b54:    7800        .x      LDRB     r0,[r0,#0]
        0x00002b56:    f7fffc4f    ..O.    BL       startATask ; 0x23f8
        0x00002b5a:    bd10        ..      POP      {r4,pc}
    adcKeyRemap
        0x00002b5c:    b510        ..      PUSH     {r4,lr}
        0x00002b5e:    4604        .F      MOV      r4,r0
        0x00002b60:    48a0        .H      LDR      r0,[pc,#640] ; [0x2de4] = 0x20000068
        0x00002b62:    8800        ..      LDRH     r0,[r0,#0]
        0x00002b64:    4284        .B      CMP      r4,r0
        0x00002b66:    dd03        ..      BLE      0x2b70 ; adcKeyRemap + 20
        0x00002b68:    489e        .H      LDR      r0,[pc,#632] ; [0x2de4] = 0x20000068
        0x00002b6a:    8800        ..      LDRH     r0,[r0,#0]
        0x00002b6c:    1a20         .      SUBS     r0,r4,r0
        0x00002b6e:    e002        ..      B        0x2b76 ; adcKeyRemap + 26
        0x00002b70:    489c        .H      LDR      r0,[pc,#624] ; [0x2de4] = 0x20000068
        0x00002b72:    8800        ..      LDRH     r0,[r0,#0]
        0x00002b74:    1b00        ..      SUBS     r0,r0,r4
        0x00002b76:    2873        s(      CMP      r0,#0x73
        0x00002b78:    dd07        ..      BLE      0x2b8a ; adcKeyRemap + 46
        0x00002b7a:    2000        .       MOVS     r0,#0
        0x00002b7c:    499a        .I      LDR      r1,[pc,#616] ; [0x2de8] = 0x2000006a
        0x00002b7e:    8008        ..      STRH     r0,[r1,#0]
        0x00002b80:    499a        .I      LDR      r1,[pc,#616] ; [0x2dec] = 0x2000006c
        0x00002b82:    8008        ..      STRH     r0,[r1,#0]
        0x00002b84:    4897        .H      LDR      r0,[pc,#604] ; [0x2de4] = 0x20000068
        0x00002b86:    8004        ..      STRH     r4,[r0,#0]
        0x00002b88:    bd10        ..      POP      {r4,pc}
        0x00002b8a:    4898        .H      LDR      r0,[pc,#608] ; [0x2dec] = 0x2000006c
        0x00002b8c:    8800        ..      LDRH     r0,[r0,#0]
        0x00002b8e:    1900        ..      ADDS     r0,r0,r4
        0x00002b90:    4996        .I      LDR      r1,[pc,#600] ; [0x2dec] = 0x2000006c
        0x00002b92:    8008        ..      STRH     r0,[r1,#0]
        0x00002b94:    4893        .H      LDR      r0,[pc,#588] ; [0x2de4] = 0x20000068
        0x00002b96:    8004        ..      STRH     r4,[r0,#0]
        0x00002b98:    4893        .H      LDR      r0,[pc,#588] ; [0x2de8] = 0x2000006a
        0x00002b9a:    8800        ..      LDRH     r0,[r0,#0]
        0x00002b9c:    1c40        @.      ADDS     r0,r0,#1
        0x00002b9e:    b280        ..      UXTH     r0,r0
        0x00002ba0:    4991        .I      LDR      r1,[pc,#580] ; [0x2de8] = 0x2000006a
        0x00002ba2:    8008        ..      STRH     r0,[r1,#0]
        0x00002ba4:    2808        .(      CMP      r0,#8
        0x00002ba6:    d15a        Z.      BNE      0x2c5e ; adcKeyRemap + 258
        0x00002ba8:    2000        .       MOVS     r0,#0
        0x00002baa:    8008        ..      STRH     r0,[r1,#0]
        0x00002bac:    488f        .H      LDR      r0,[pc,#572] ; [0x2dec] = 0x2000006c
        0x00002bae:    8800        ..      LDRH     r0,[r0,#0]
        0x00002bb0:    10c0        ..      ASRS     r0,r0,#3
        0x00002bb2:    498e        .I      LDR      r1,[pc,#568] ; [0x2dec] = 0x2000006c
        0x00002bb4:    8008        ..      STRH     r0,[r1,#0]
        0x00002bb6:    4608        .F      MOV      r0,r1
        0x00002bb8:    8800        ..      LDRH     r0,[r0,#0]
        0x00002bba:    217d        }!      MOVS     r1,#0x7d
        0x00002bbc:    00c9        ..      LSLS     r1,r1,#3
        0x00002bbe:    4288        .B      CMP      r0,r1
        0x00002bc0:    dd03        ..      BLE      0x2bca ; adcKeyRemap + 110
        0x00002bc2:    2055        U       MOVS     r0,#0x55
        0x00002bc4:    4978        xI      LDR      r1,[pc,#480] ; [0x2da8] = 0x2000006e
        0x00002bc6:    7008        .p      STRB     r0,[r1,#0]
        0x00002bc8:    e028        (.      B        0x2c1c ; adcKeyRemap + 192
        0x00002bca:    4888        .H      LDR      r0,[pc,#544] ; [0x2dec] = 0x2000006c
        0x00002bcc:    8800        ..      LDRH     r0,[r0,#0]
        0x00002bce:    4988        .I      LDR      r1,[pc,#544] ; [0x2df0] = 0x352
        0x00002bd0:    4288        .B      CMP      r0,r1
        0x00002bd2:    dd03        ..      BLE      0x2bdc ; adcKeyRemap + 128
        0x00002bd4:    2055        U       MOVS     r0,#0x55
        0x00002bd6:    4974        tI      LDR      r1,[pc,#464] ; [0x2da8] = 0x2000006e
        0x00002bd8:    7008        .p      STRB     r0,[r1,#0]
        0x00002bda:    e01f        ..      B        0x2c1c ; adcKeyRemap + 192
        0x00002bdc:    4883        .H      LDR      r0,[pc,#524] ; [0x2dec] = 0x2000006c
        0x00002bde:    8800        ..      LDRH     r0,[r0,#0]
        0x00002be0:    4983        .I      LDR      r1,[pc,#524] ; [0x2df0] = 0x352
        0x00002be2:    3964        d9      SUBS     r1,r1,#0x64
        0x00002be4:    4288        .B      CMP      r0,r1
        0x00002be6:    dd03        ..      BLE      0x2bf0 ; adcKeyRemap + 148
        0x00002be8:    2059        Y       MOVS     r0,#0x59
        0x00002bea:    496f        oI      LDR      r1,[pc,#444] ; [0x2da8] = 0x2000006e
        0x00002bec:    7008        .p      STRB     r0,[r1,#0]
        0x00002bee:    e015        ..      B        0x2c1c ; adcKeyRemap + 192
        0x00002bf0:    487e        ~H      LDR      r0,[pc,#504] ; [0x2dec] = 0x2000006c
        0x00002bf2:    8800        ..      LDRH     r0,[r0,#0]
        0x00002bf4:    497e        ~I      LDR      r1,[pc,#504] ; [0x2df0] = 0x352
        0x00002bf6:    39c8        .9      SUBS     r1,r1,#0xc8
        0x00002bf8:    4288        .B      CMP      r0,r1
        0x00002bfa:    dd03        ..      BLE      0x2c04 ; adcKeyRemap + 168
        0x00002bfc:    2055        U       MOVS     r0,#0x55
        0x00002bfe:    496a        jI      LDR      r1,[pc,#424] ; [0x2da8] = 0x2000006e
        0x00002c00:    7008        .p      STRB     r0,[r1,#0]
        0x00002c02:    e00b        ..      B        0x2c1c ; adcKeyRemap + 192
        0x00002c04:    4879        yH      LDR      r0,[pc,#484] ; [0x2dec] = 0x2000006c
        0x00002c06:    8800        ..      LDRH     r0,[r0,#0]
        0x00002c08:    497a        zI      LDR      r1,[pc,#488] ; [0x2df4] = 0x226
        0x00002c0a:    4288        .B      CMP      r0,r1
        0x00002c0c:    dd03        ..      BLE      0x2c16 ; adcKeyRemap + 186
        0x00002c0e:    205a        Z       MOVS     r0,#0x5a
        0x00002c10:    4965        eI      LDR      r1,[pc,#404] ; [0x2da8] = 0x2000006e
        0x00002c12:    7008        .p      STRB     r0,[r1,#0]
        0x00002c14:    e002        ..      B        0x2c1c ; adcKeyRemap + 192
        0x00002c16:    2055        U       MOVS     r0,#0x55
        0x00002c18:    4963        cI      LDR      r1,[pc,#396] ; [0x2da8] = 0x2000006e
        0x00002c1a:    7008        .p      STRB     r0,[r1,#0]
        0x00002c1c:    4862        bH      LDR      r0,[pc,#392] ; [0x2da8] = 0x2000006e
        0x00002c1e:    7800        .x      LDRB     r0,[r0,#0]
        0x00002c20:    4975        uI      LDR      r1,[pc,#468] ; [0x2df8] = 0x2000006f
        0x00002c22:    7008        .p      STRB     r0,[r1,#0]
        0x00002c24:    4875        uH      LDR      r0,[pc,#468] ; [0x2dfc] = 0x500042a0
        0x00002c26:    f000f977    ..w.    BL       GPIO_GET_PIN ; 0x2f18
        0x00002c2a:    2800        .(      CMP      r0,#0
        0x00002c2c:    d102        ..      BNE      0x2c34 ; adcKeyRemap + 216
        0x00002c2e:    2058        X       MOVS     r0,#0x58
        0x00002c30:    495d        ]I      LDR      r1,[pc,#372] ; [0x2da8] = 0x2000006e
        0x00002c32:    7008        .p      STRB     r0,[r1,#0]
        0x00002c34:    4871        qH      LDR      r0,[pc,#452] ; [0x2dfc] = 0x500042a0
        0x00002c36:    1d00        ..      ADDS     r0,r0,#4
        0x00002c38:    f000f96e    ..n.    BL       GPIO_GET_PIN ; 0x2f18
        0x00002c3c:    2800        .(      CMP      r0,#0
        0x00002c3e:    d102        ..      BNE      0x2c46 ; adcKeyRemap + 234
        0x00002c40:    205d        ]       MOVS     r0,#0x5d
        0x00002c42:    4959        YI      LDR      r1,[pc,#356] ; [0x2da8] = 0x2000006e
        0x00002c44:    7008        .p      STRB     r0,[r1,#0]
        0x00002c46:    486d        mH      LDR      r0,[pc,#436] ; [0x2dfc] = 0x500042a0
        0x00002c48:    3008        .0      ADDS     r0,r0,#8
        0x00002c4a:    f000f965    ..e.    BL       GPIO_GET_PIN ; 0x2f18
        0x00002c4e:    2800        .(      CMP      r0,#0
        0x00002c50:    d102        ..      BNE      0x2c58 ; adcKeyRemap + 252
        0x00002c52:    205c        \       MOVS     r0,#0x5c
        0x00002c54:    4954        TI      LDR      r1,[pc,#336] ; [0x2da8] = 0x2000006e
        0x00002c56:    7008        .p      STRB     r0,[r1,#0]
        0x00002c58:    2000        .       MOVS     r0,#0
        0x00002c5a:    4964        dI      LDR      r1,[pc,#400] ; [0x2dec] = 0x2000006c
        0x00002c5c:    8008        ..      STRH     r0,[r1,#0]
        0x00002c5e:    bf00        ..      NOP      
        0x00002c60:    e792        ..      B        0x2b88 ; adcKeyRemap + 44
    readeeprom
        0x00002c62:    b51c        ..      PUSH     {r2-r4,lr}
        0x00002c64:    4604        .F      MOV      r4,r0
        0x00002c66:    4866        fH      LDR      r0,[pc,#408] ; [0x2e00] = 0x20000145
        0x00002c68:    2101        .!      MOVS     r1,#1
        0x00002c6a:    2302        .#      MOVS     r3,#2
        0x00002c6c:    460a        .F      MOV      r2,r1
        0x00002c6e:    9100        ..      STR      r1,[sp,#0]
        0x00002c70:    9001        ..      STR      r0,[sp,#4]
        0x00002c72:    21a0        .!      MOVS     r1,#0xa0
        0x00002c74:    4863        cH      LDR      r0,[pc,#396] ; [0x2e04] = 0x2000099c
        0x00002c76:    f000f97a    ..z.    BL       initI2cDataBlock ; 0x2f6e
        0x00002c7a:    4961        aI      LDR      r1,[pc,#388] ; [0x2e00] = 0x20000145
        0x00002c7c:    704c        Lp      STRB     r4,[r1,#1]
        0x00002c7e:    2000        .       MOVS     r0,#0
        0x00002c80:    7088        .p      STRB     r0,[r1,#2]
        0x00002c82:    20a2        .       MOVS     r0,#0xa2
        0x00002c84:    7008        .p      STRB     r0,[r1,#0]
        0x00002c86:    2100        .!      MOVS     r1,#0
        0x00002c88:    485e        ^H      LDR      r0,[pc,#376] ; [0x2e04] = 0x2000099c
        0x00002c8a:    f000fa37    ..7.    BL       addI2cChain ; 0x30fc
        0x00002c8e:    bf00        ..      NOP      
        0x00002c90:    485b        [H      LDR      r0,[pc,#364] ; [0x2e00] = 0x20000145
        0x00002c92:    7800        .x      LDRB     r0,[r0,#0]
        0x00002c94:    28a2        .(      CMP      r0,#0xa2
        0x00002c96:    d0fb        ..      BEQ      0x2c90 ; readeeprom + 46
        0x00002c98:    4859        YH      LDR      r0,[pc,#356] ; [0x2e00] = 0x20000145
        0x00002c9a:    7880        .x      LDRB     r0,[r0,#2]
        0x00002c9c:    bd1c        ..      POP      {r2-r4,pc}
    writeeeprom
        0x00002c9e:    b57c        |.      PUSH     {r2-r6,lr}
        0x00002ca0:    4604        .F      MOV      r4,r0
        0x00002ca2:    460d        .F      MOV      r5,r1
        0x00002ca4:    4856        VH      LDR      r0,[pc,#344] ; [0x2e00] = 0x20000145
        0x00002ca6:    2101        .!      MOVS     r1,#1
        0x00002ca8:    2302        .#      MOVS     r3,#2
        0x00002caa:    2200        ."      MOVS     r2,#0
        0x00002cac:    9100        ..      STR      r1,[sp,#0]
        0x00002cae:    9001        ..      STR      r0,[sp,#4]
        0x00002cb0:    21a0        .!      MOVS     r1,#0xa0
        0x00002cb2:    4854        TH      LDR      r0,[pc,#336] ; [0x2e04] = 0x2000099c
        0x00002cb4:    f000f95b    ..[.    BL       initI2cDataBlock ; 0x2f6e
        0x00002cb8:    4951        QI      LDR      r1,[pc,#324] ; [0x2e00] = 0x20000145
        0x00002cba:    704d        Mp      STRB     r5,[r1,#1]
        0x00002cbc:    708c        .p      STRB     r4,[r1,#2]
        0x00002cbe:    20a2        .       MOVS     r0,#0xa2
        0x00002cc0:    7008        .p      STRB     r0,[r1,#0]
        0x00002cc2:    2100        .!      MOVS     r1,#0
        0x00002cc4:    484f        OH      LDR      r0,[pc,#316] ; [0x2e04] = 0x2000099c
        0x00002cc6:    f000fa19    ....    BL       addI2cChain ; 0x30fc
        0x00002cca:    bf00        ..      NOP      
        0x00002ccc:    484c        LH      LDR      r0,[pc,#304] ; [0x2e00] = 0x20000145
        0x00002cce:    7800        .x      LDRB     r0,[r0,#0]
        0x00002cd0:    28a2        .(      CMP      r0,#0xa2
        0x00002cd2:    d0fb        ..      BEQ      0x2ccc ; writeeeprom + 46
        0x00002cd4:    484a        JH      LDR      r0,[pc,#296] ; [0x2e00] = 0x20000145
        0x00002cd6:    7800        .x      LDRB     r0,[r0,#0]
        0x00002cd8:    28a0        .(      CMP      r0,#0xa0
        0x00002cda:    d101        ..      BNE      0x2ce0 ; writeeeprom + 66
        0x00002cdc:    2001        .       MOVS     r0,#1
        0x00002cde:    bd7c        |.      POP      {r2-r6,pc}
        0x00002ce0:    2000        .       MOVS     r0,#0
        0x00002ce2:    e7fc        ..      B        0x2cde ; writeeeprom + 64
    Key_Scan
        0x00002ce4:    b510        ..      PUSH     {r4,lr}
        0x00002ce6:    4604        .F      MOV      r4,r0
        0x00002ce8:    4847        GH      LDR      r0,[pc,#284] ; [0x2e08] = 0x2000011f
        0x00002cea:    7800        .x      LDRB     r0,[r0,#0]
        0x00002cec:    2800        .(      CMP      r0,#0
        0x00002cee:    d012        ..      BEQ      0x2d16 ; Key_Scan + 50
        0x00002cf0:    4842        BH      LDR      r0,[pc,#264] ; [0x2dfc] = 0x500042a0
        0x00002cf2:    3020         0      ADDS     r0,r0,#0x20
        0x00002cf4:    f000f910    ....    BL       GPIO_GET_PIN ; 0x2f18
        0x00002cf8:    2800        .(      CMP      r0,#0
        0x00002cfa:    d10c        ..      BNE      0x2d16 ; Key_Scan + 50
        0x00002cfc:    4942        BI      LDR      r1,[pc,#264] ; [0x2e08] = 0x2000011f
        0x00002cfe:    7008        .p      STRB     r0,[r1,#0]
        0x00002d00:    200a        .       MOVS     r0,#0xa
        0x00002d02:    f7fffa80    ....    BL       sysDelayMs ; 0x2206
        0x00002d06:    483d        =H      LDR      r0,[pc,#244] ; [0x2dfc] = 0x500042a0
        0x00002d08:    3020         0      ADDS     r0,r0,#0x20
        0x00002d0a:    f000f905    ....    BL       GPIO_GET_PIN ; 0x2f18
        0x00002d0e:    2800        .(      CMP      r0,#0
        0x00002d10:    d109        ..      BNE      0x2d26 ; Key_Scan + 66
        0x00002d12:    2001        .       MOVS     r0,#1
        0x00002d14:    bd10        ..      POP      {r4,pc}
        0x00002d16:    4839        9H      LDR      r0,[pc,#228] ; [0x2dfc] = 0x500042a0
        0x00002d18:    3020         0      ADDS     r0,r0,#0x20
        0x00002d1a:    f000f8fd    ....    BL       GPIO_GET_PIN ; 0x2f18
        0x00002d1e:    2801        .(      CMP      r0,#1
        0x00002d20:    d101        ..      BNE      0x2d26 ; Key_Scan + 66
        0x00002d22:    4939        9I      LDR      r1,[pc,#228] ; [0x2e08] = 0x2000011f
        0x00002d24:    7008        .p      STRB     r0,[r1,#0]
        0x00002d26:    2000        .       MOVS     r0,#0
        0x00002d28:    e7f4        ..      B        0x2d14 ; Key_Scan + 48
    readbq
        0x00002d2a:    b51c        ..      PUSH     {r2-r4,lr}
        0x00002d2c:    4604        .F      MOV      r4,r0
        0x00002d2e:    4837        7H      LDR      r0,[pc,#220] ; [0x2e0c] = 0x20000148
        0x00002d30:    2101        .!      MOVS     r1,#1
        0x00002d32:    2302        .#      MOVS     r3,#2
        0x00002d34:    460a        .F      MOV      r2,r1
        0x00002d36:    9100        ..      STR      r1,[sp,#0]
        0x00002d38:    9001        ..      STR      r0,[sp,#4]
        0x00002d3a:    21d6        .!      MOVS     r1,#0xd6
        0x00002d3c:    4834        4H      LDR      r0,[pc,#208] ; [0x2e10] = 0x200009ac
        0x00002d3e:    f000f916    ....    BL       initI2cDataBlock ; 0x2f6e
        0x00002d42:    4932        2I      LDR      r1,[pc,#200] ; [0x2e0c] = 0x20000148
        0x00002d44:    704c        Lp      STRB     r4,[r1,#1]
        0x00002d46:    2000        .       MOVS     r0,#0
        0x00002d48:    7088        .p      STRB     r0,[r1,#2]
        0x00002d4a:    20a2        .       MOVS     r0,#0xa2
        0x00002d4c:    7008        .p      STRB     r0,[r1,#0]
        0x00002d4e:    2100        .!      MOVS     r1,#0
        0x00002d50:    482f        /H      LDR      r0,[pc,#188] ; [0x2e10] = 0x200009ac
        0x00002d52:    f000f9d3    ....    BL       addI2cChain ; 0x30fc
        0x00002d56:    bf00        ..      NOP      
        0x00002d58:    482c        ,H      LDR      r0,[pc,#176] ; [0x2e0c] = 0x20000148
        0x00002d5a:    7800        .x      LDRB     r0,[r0,#0]
        0x00002d5c:    28a2        .(      CMP      r0,#0xa2
        0x00002d5e:    d0fb        ..      BEQ      0x2d58 ; readbq + 46
        0x00002d60:    482a        *H      LDR      r0,[pc,#168] ; [0x2e0c] = 0x20000148
        0x00002d62:    7880        .x      LDRB     r0,[r0,#2]
        0x00002d64:    bd1c        ..      POP      {r2-r4,pc}
    writebq
        0x00002d66:    b57c        |.      PUSH     {r2-r6,lr}
        0x00002d68:    4604        .F      MOV      r4,r0
        0x00002d6a:    460d        .F      MOV      r5,r1
        0x00002d6c:    4827        'H      LDR      r0,[pc,#156] ; [0x2e0c] = 0x20000148
        0x00002d6e:    2101        .!      MOVS     r1,#1
        0x00002d70:    2302        .#      MOVS     r3,#2
        0x00002d72:    2200        ."      MOVS     r2,#0
        0x00002d74:    9100        ..      STR      r1,[sp,#0]
        0x00002d76:    9001        ..      STR      r0,[sp,#4]
        0x00002d78:    21d6        .!      MOVS     r1,#0xd6
        0x00002d7a:    4825        %H      LDR      r0,[pc,#148] ; [0x2e10] = 0x200009ac
        0x00002d7c:    f000f8f7    ....    BL       initI2cDataBlock ; 0x2f6e
        0x00002d80:    4922        "I      LDR      r1,[pc,#136] ; [0x2e0c] = 0x20000148
        0x00002d82:    704d        Mp      STRB     r5,[r1,#1]
        0x00002d84:    708c        .p      STRB     r4,[r1,#2]
        0x00002d86:    20a2        .       MOVS     r0,#0xa2
        0x00002d88:    7008        .p      STRB     r0,[r1,#0]
        0x00002d8a:    2100        .!      MOVS     r1,#0
        0x00002d8c:    4820         H      LDR      r0,[pc,#128] ; [0x2e10] = 0x200009ac
        0x00002d8e:    f000f9b5    ....    BL       addI2cChain ; 0x30fc
        0x00002d92:    bf00        ..      NOP      
        0x00002d94:    481d        .H      LDR      r0,[pc,#116] ; [0x2e0c] = 0x20000148
        0x00002d96:    7800        .x      LDRB     r0,[r0,#0]
        0x00002d98:    28a2        .(      CMP      r0,#0xa2
        0x00002d9a:    d0fb        ..      BEQ      0x2d94 ; writebq + 46
        0x00002d9c:    481b        .H      LDR      r0,[pc,#108] ; [0x2e0c] = 0x20000148
        0x00002d9e:    7800        .x      LDRB     r0,[r0,#0]
        0x00002da0:    28a0        .(      CMP      r0,#0xa0
        0x00002da2:    d137        7.      BNE      0x2e14 ; writebq + 174
        0x00002da4:    2001        .       MOVS     r0,#1
        0x00002da6:    bd7c        |.      POP      {r2-r6,pc}
    $d
        0x00002da8:    2000006e    n..     DCD    536871022
        0x00002dac:    20000065    e..     DCD    536871013
        0x00002db0:    2000011e    ...     DCD    536871198
        0x00002db4:    2000011d    ...     DCD    536871197
        0x00002db8:    20000066    f..     DCD    536871014
        0x00002dbc:    20000565    e..     DCD    536872293
        0x00002dc0:    00007374    ts..    DCD    29556
        0x00002dc4:    00007373    ss..    DCD    29555
        0x00002dc8:    00006673    sf..    DCD    26227
        0x00002dcc:    00002a47    G*..    DCD    10823
        0x00002dd0:    20000067    g..     DCD    536871015
        0x00002dd4:    50000040    @..P    DCD    1342177344
        0x00002dd8:    500040c0    .@.P    DCD    1342193856
        0x00002ddc:    400e0000    ...@    DCD    1074659328
        0x00002de0:    20000084    ...     DCD    536871044
        0x00002de4:    20000068    h..     DCD    536871016
        0x00002de8:    2000006a    j..     DCD    536871018
        0x00002dec:    2000006c    l..     DCD    536871020
        0x00002df0:    00000352    R...    DCD    850
        0x00002df4:    00000226    &...    DCD    550
        0x00002df8:    2000006f    o..     DCD    536871023
        0x00002dfc:    500042a0    .B.P    DCD    1342194336
        0x00002e00:    20000145    E..     DCD    536871237
        0x00002e04:    2000099c    ...     DCD    536873372
        0x00002e08:    2000011f    ...     DCD    536871199
        0x00002e0c:    20000148    H..     DCD    536871240
        0x00002e10:    200009ac    ...     DCD    536873388
    $t
        0x00002e14:    2000        .       MOVS     r0,#0
        0x00002e16:    bd7c        |.      POP      {r2-r6,pc}
    ADC_IRQHandler
        0x00002e18:    b510        ..      PUSH     {r4,lr}
        0x00002e1a:    2400        .$      MOVS     r4,#0
        0x00002e1c:    2001        .       MOVS     r0,#1
        0x00002e1e:    4940        @I      LDR      r1,[pc,#256] ; [0x2f20] = 0x400e0000
        0x00002e20:    6308        .c      STR      r0,[r1,#0x30]
        0x00002e22:    bf00        ..      NOP      
        0x00002e24:    2007        .       MOVS     r0,#7
        0x00002e26:    f000f869    ..i.    BL       ADC_GET_RSLT ; 0x2efc
        0x00002e2a:    493e        >I      LDR      r1,[pc,#248] ; [0x2f24] = 0x20000124
        0x00002e2c:    6809        .h      LDR      r1,[r1,#0]
        0x00002e2e:    1840        @.      ADDS     r0,r0,r1
        0x00002e30:    493c        <I      LDR      r1,[pc,#240] ; [0x2f24] = 0x20000124
        0x00002e32:    6008        .`      STR      r0,[r1,#0]
        0x00002e34:    2004        .       MOVS     r0,#4
        0x00002e36:    f000f861    ..a.    BL       ADC_GET_RSLT ; 0x2efc
        0x00002e3a:    493b        ;I      LDR      r1,[pc,#236] ; [0x2f28] = 0x20000128
        0x00002e3c:    6809        .h      LDR      r1,[r1,#0]
        0x00002e3e:    1840        @.      ADDS     r0,r0,r1
        0x00002e40:    4939        9I      LDR      r1,[pc,#228] ; [0x2f28] = 0x20000128
        0x00002e42:    6008        .`      STR      r0,[r1,#0]
        0x00002e44:    4839        9H      LDR      r0,[pc,#228] ; [0x2f2c] = 0x20000120
        0x00002e46:    6801        .h      LDR      r1,[r0,#0]
        0x00002e48:    6800        .h      LDR      r0,[r0,#0]
        0x00002e4a:    1c40        @.      ADDS     r0,r0,#1
        0x00002e4c:    4a37        7J      LDR      r2,[pc,#220] ; [0x2f2c] = 0x20000120
        0x00002e4e:    6010        .`      STR      r0,[r2,#0]
        0x00002e50:    2001        .       MOVS     r0,#1
        0x00002e52:    0280        ..      LSLS     r0,r0,#10
        0x00002e54:    4281        .B      CMP      r1,r0
        0x00002e56:    d316        ..      BCC      0x2e86 ; ADC_IRQHandler + 110
        0x00002e58:    2000        .       MOVS     r0,#0
        0x00002e5a:    4611        .F      MOV      r1,r2
        0x00002e5c:    6008        .`      STR      r0,[r1,#0]
        0x00002e5e:    4831        1H      LDR      r0,[pc,#196] ; [0x2f24] = 0x20000124
        0x00002e60:    6800        .h      LDR      r0,[r0,#0]
        0x00002e62:    0a80        ..      LSRS     r0,r0,#10
        0x00002e64:    492f        /I      LDR      r1,[pc,#188] ; [0x2f24] = 0x20000124
        0x00002e66:    6008        .`      STR      r0,[r1,#0]
        0x00002e68:    482f        /H      LDR      r0,[pc,#188] ; [0x2f28] = 0x20000128
        0x00002e6a:    6800        .h      LDR      r0,[r0,#0]
        0x00002e6c:    0a80        ..      LSRS     r0,r0,#10
        0x00002e6e:    492e        .I      LDR      r1,[pc,#184] ; [0x2f28] = 0x20000128
        0x00002e70:    6008        .`      STR      r0,[r1,#0]
        0x00002e72:    6809        .h      LDR      r1,[r1,#0]
        0x00002e74:    4a2e        .J      LDR      r2,[pc,#184] ; [0x2f30] = 0x4e2
        0x00002e76:    4351        QC      MULS     r1,r2,r1
        0x00002e78:    4608        .F      MOV      r0,r1
        0x00002e7a:    492a        *I      LDR      r1,[pc,#168] ; [0x2f24] = 0x20000124
        0x00002e7c:    6809        .h      LDR      r1,[r1,#0]
        0x00002e7e:    f003ffad    ....    BL       __aeabi_uidiv ; 0x6ddc
        0x00002e82:    492c        ,I      LDR      r1,[pc,#176] ; [0x2f34] = 0x2000012c
        0x00002e84:    6008        .`      STR      r0,[r1,#0]
        0x00002e86:    4620         F      MOV      r0,r4
        0x00002e88:    f7fffe68    ..h.    BL       adcKeyRemap ; 0x2b5c
        0x00002e8c:    bd10        ..      POP      {r4,pc}
    NVIC_SetPriority
        0x00002e8e:    b510        ..      PUSH     {r4,lr}
        0x00002e90:    2800        .(      CMP      r0,#0
        0x00002e92:    da19        ..      BGE      0x2ec8 ; NVIC_SetPriority + 58
        0x00002e94:    4a28        (J      LDR      r2,[pc,#160] ; [0x2f38] = 0xe000ed1c
        0x00002e96:    0703        ..      LSLS     r3,r0,#28
        0x00002e98:    0f1b        ..      LSRS     r3,r3,#28
        0x00002e9a:    3b08        .;      SUBS     r3,r3,#8
        0x00002e9c:    089b        ..      LSRS     r3,r3,#2
        0x00002e9e:    009b        ..      LSLS     r3,r3,#2
        0x00002ea0:    58d2        .X      LDR      r2,[r2,r3]
        0x00002ea2:    0783        ..      LSLS     r3,r0,#30
        0x00002ea4:    0edc        ..      LSRS     r4,r3,#27
        0x00002ea6:    23ff        .#      MOVS     r3,#0xff
        0x00002ea8:    40a3        .@      LSLS     r3,r3,r4
        0x00002eaa:    439a        .C      BICS     r2,r2,r3
        0x00002eac:    078b        ..      LSLS     r3,r1,#30
        0x00002eae:    0e1b        ..      LSRS     r3,r3,#24
        0x00002eb0:    0784        ..      LSLS     r4,r0,#30
        0x00002eb2:    0ee4        ..      LSRS     r4,r4,#27
        0x00002eb4:    40a3        .@      LSLS     r3,r3,r4
        0x00002eb6:    431a        .C      ORRS     r2,r2,r3
        0x00002eb8:    4b1f        .K      LDR      r3,[pc,#124] ; [0x2f38] = 0xe000ed1c
        0x00002eba:    0704        ..      LSLS     r4,r0,#28
        0x00002ebc:    0f24        $.      LSRS     r4,r4,#28
        0x00002ebe:    3c08        .<      SUBS     r4,r4,#8
        0x00002ec0:    08a4        ..      LSRS     r4,r4,#2
        0x00002ec2:    00a4        ..      LSLS     r4,r4,#2
        0x00002ec4:    511a        .Q      STR      r2,[r3,r4]
        0x00002ec6:    e018        ..      B        0x2efa ; NVIC_SetPriority + 108
        0x00002ec8:    4a1c        .J      LDR      r2,[pc,#112] ; [0x2f3c] = 0xe000e100
        0x00002eca:    2303        .#      MOVS     r3,#3
        0x00002ecc:    021b        ..      LSLS     r3,r3,#8
        0x00002ece:    18d2        ..      ADDS     r2,r2,r3
        0x00002ed0:    0883        ..      LSRS     r3,r0,#2
        0x00002ed2:    009b        ..      LSLS     r3,r3,#2
        0x00002ed4:    58d2        .X      LDR      r2,[r2,r3]
        0x00002ed6:    0783        ..      LSLS     r3,r0,#30
        0x00002ed8:    0edc        ..      LSRS     r4,r3,#27
        0x00002eda:    23ff        .#      MOVS     r3,#0xff
        0x00002edc:    40a3        .@      LSLS     r3,r3,r4
        0x00002ede:    439a        .C      BICS     r2,r2,r3
        0x00002ee0:    078b        ..      LSLS     r3,r1,#30
        0x00002ee2:    0e1b        ..      LSRS     r3,r3,#24
        0x00002ee4:    0784        ..      LSLS     r4,r0,#30
        0x00002ee6:    0ee4        ..      LSRS     r4,r4,#27
        0x00002ee8:    40a3        .@      LSLS     r3,r3,r4
        0x00002eea:    431a        .C      ORRS     r2,r2,r3
        0x00002eec:    4b13        .K      LDR      r3,[pc,#76] ; [0x2f3c] = 0xe000e100
        0x00002eee:    2403        .$      MOVS     r4,#3
        0x00002ef0:    0224        $.      LSLS     r4,r4,#8
        0x00002ef2:    191b        ..      ADDS     r3,r3,r4
        0x00002ef4:    0884        ..      LSRS     r4,r0,#2
        0x00002ef6:    00a4        ..      LSLS     r4,r4,#2
        0x00002ef8:    511a        .Q      STR      r2,[r3,r4]
        0x00002efa:    bd10        ..      POP      {r4,pc}
    ADC_GET_RSLT
        0x00002efc:    4601        .F      MOV      r1,r0
        0x00002efe:    0088        ..      LSLS     r0,r1,#2
        0x00002f00:    4a07        .J      LDR      r2,[pc,#28] ; [0x2f20] = 0x400e0000
        0x00002f02:    1880        ..      ADDS     r0,r0,r2
        0x00002f04:    6800        .h      LDR      r0,[r0,#0]
        0x00002f06:    0580        ..      LSLS     r0,r0,#22
        0x00002f08:    0d80        ..      LSRS     r0,r0,#22
        0x00002f0a:    4770        pG      BX       lr
    ADC_CH_ENABLE
        0x00002f0c:    4904        .I      LDR      r1,[pc,#16] ; [0x2f20] = 0x400e0000
        0x00002f0e:    6a49        Ij      LDR      r1,[r1,#0x24]
        0x00002f10:    4301        .C      ORRS     r1,r1,r0
        0x00002f12:    4a03        .J      LDR      r2,[pc,#12] ; [0x2f20] = 0x400e0000
        0x00002f14:    6251        Qb      STR      r1,[r2,#0x24]
        0x00002f16:    4770        pG      BX       lr
    GPIO_GET_PIN
        0x00002f18:    4601        .F      MOV      r1,r0
        0x00002f1a:    6808        .h      LDR      r0,[r1,#0]
        0x00002f1c:    4770        pG      BX       lr
    $d
        0x00002f1e:    0000        ..      DCW    0
        0x00002f20:    400e0000    ...@    DCD    1074659328
        0x00002f24:    20000124    $..     DCD    536871204
        0x00002f28:    20000128    (..     DCD    536871208
        0x00002f2c:    20000120     ..     DCD    536871200
        0x00002f30:    000004e2    ....    DCD    1250
        0x00002f34:    2000012c    ,..     DCD    536871212
        0x00002f38:    e000ed1c    ....    DCD    3758157084
        0x00002f3c:    e000e100    ....    DCD    3758153984
    $t
    .text
    GPIO_SET_MODE
        0x00002f40:    b530        0.      PUSH     {r4,r5,lr}
        0x00002f42:    6803        .h      LDR      r3,[r0,#0]
        0x00002f44:    004d        M.      LSLS     r5,r1,#1
        0x00002f46:    2403        .$      MOVS     r4,#3
        0x00002f48:    40ac        .@      LSLS     r4,r4,r5
        0x00002f4a:    43a3        .C      BICS     r3,r3,r4
        0x00002f4c:    004d        M.      LSLS     r5,r1,#1
        0x00002f4e:    4614        .F      MOV      r4,r2
        0x00002f50:    40ac        .@      LSLS     r4,r4,r5
        0x00002f52:    4323        #C      ORRS     r3,r3,r4
        0x00002f54:    6003        .`      STR      r3,[r0,#0]
        0x00002f56:    bd30        0.      POP      {r4,r5,pc}
    resumeI2c
        0x00002f58:    20a0        .       MOVS     r0,#0xa0
        0x00002f5a:    49fe        .I      LDR      r1,[pc,#1016] ; [0x3354] = 0x20000152
        0x00002f5c:    7008        .p      STRB     r0,[r1,#0]
        0x00002f5e:    2000        .       MOVS     r0,#0
        0x00002f60:    49fd        .I      LDR      r1,[pc,#1012] ; [0x3358] = 0x20000154
        0x00002f62:    6008        .`      STR      r0,[r1,#0]
        0x00002f64:    49fd        .I      LDR      r1,[pc,#1012] ; [0x335c] = 0x20000158
        0x00002f66:    6008        .`      STR      r0,[r1,#0]
        0x00002f68:    49fd        .I      LDR      r1,[pc,#1012] ; [0x3360] = 0x2000015c
        0x00002f6a:    6008        .`      STR      r0,[r1,#0]
        0x00002f6c:    4770        pG      BX       lr
    initI2cDataBlock
        0x00002f6e:    b570        p.      PUSH     {r4-r6,lr}
        0x00002f70:    9d05        ..      LDR      r5,[sp,#0x14]
        0x00002f72:    9c04        ..      LDR      r4,[sp,#0x10]
        0x00002f74:    7001        .p      STRB     r1,[r0,#0]
        0x00002f76:    7042        Bp      STRB     r2,[r0,#1]
        0x00002f78:    7083        .p      STRB     r3,[r0,#2]
        0x00002f7a:    70c4        .p      STRB     r4,[r0,#3]
        0x00002f7c:    7104        .q      STRB     r4,[r0,#4]
        0x00002f7e:    6085        .`      STR      r5,[r0,#8]
        0x00002f80:    2600        .&      MOVS     r6,#0
        0x00002f82:    60c6        .`      STR      r6,[r0,#0xc]
        0x00002f84:    bd70        p.      POP      {r4-r6,pc}
    readI2cChain
        0x00002f86:    48f4        .H      LDR      r0,[pc,#976] ; [0x3358] = 0x20000154
        0x00002f88:    6800        .h      LDR      r0,[r0,#0]
        0x00002f8a:    2800        .(      CMP      r0,#0
        0x00002f8c:    d104        ..      BNE      0x2f98 ; readI2cChain + 18
        0x00002f8e:    49f4        .I      LDR      r1,[pc,#976] ; [0x3360] = 0x2000015c
        0x00002f90:    6008        .`      STR      r0,[r1,#0]
        0x00002f92:    49f2        .I      LDR      r1,[pc,#968] ; [0x335c] = 0x20000158
        0x00002f94:    6008        .`      STR      r0,[r1,#0]
        0x00002f96:    4770        pG      BX       lr
        0x00002f98:    48ef        .H      LDR      r0,[pc,#956] ; [0x3358] = 0x20000154
        0x00002f9a:    6800        .h      LDR      r0,[r0,#0]
        0x00002f9c:    49f0        .I      LDR      r1,[pc,#960] ; [0x3360] = 0x2000015c
        0x00002f9e:    6008        .`      STR      r0,[r1,#0]
        0x00002fa0:    48ed        .H      LDR      r0,[pc,#948] ; [0x3358] = 0x20000154
        0x00002fa2:    6800        .h      LDR      r0,[r0,#0]
        0x00002fa4:    68c0        .h      LDR      r0,[r0,#0xc]
        0x00002fa6:    49ec        .I      LDR      r1,[pc,#944] ; [0x3358] = 0x20000154
        0x00002fa8:    6008        .`      STR      r0,[r1,#0]
        0x00002faa:    4608        .F      MOV      r0,r1
        0x00002fac:    6800        .h      LDR      r0,[r0,#0]
        0x00002fae:    2800        .(      CMP      r0,#0
        0x00002fb0:    d102        ..      BNE      0x2fb8 ; readI2cChain + 50
        0x00002fb2:    6008        .`      STR      r0,[r1,#0]
        0x00002fb4:    49e9        .I      LDR      r1,[pc,#932] ; [0x335c] = 0x20000158
        0x00002fb6:    6008        .`      STR      r0,[r1,#0]
        0x00002fb8:    bf00        ..      NOP      
        0x00002fba:    e7ec        ..      B        0x2f96 ; readI2cChain + 16
    i2cSpirit
        0x00002fbc:    b510        ..      PUSH     {r4,lr}
        0x00002fbe:    48e5        .H      LDR      r0,[pc,#916] ; [0x3354] = 0x20000152
        0x00002fc0:    7800        .x      LDRB     r0,[r0,#0]
        0x00002fc2:    28a0        .(      CMP      r0,#0xa0
        0x00002fc4:    d006        ..      BEQ      0x2fd4 ; i2cSpirit + 24
        0x00002fc6:    28a1        .(      CMP      r0,#0xa1
        0x00002fc8:    d047        G.      BEQ      0x305a ; i2cSpirit + 158
        0x00002fca:    28a2        .(      CMP      r0,#0xa2
        0x00002fcc:    d07e        ~.      BEQ      0x30cc ; i2cSpirit + 272
        0x00002fce:    28a3        .(      CMP      r0,#0xa3
        0x00002fd0:    d17d        }.      BNE      0x30ce ; i2cSpirit + 274
        0x00002fd2:    e012        ..      B        0x2ffa ; i2cSpirit + 62
        0x00002fd4:    f7ffffd7    ....    BL       readI2cChain ; 0x2f86
        0x00002fd8:    48e1        .H      LDR      r0,[pc,#900] ; [0x3360] = 0x2000015c
        0x00002fda:    6800        .h      LDR      r0,[r0,#0]
        0x00002fdc:    2800        .(      CMP      r0,#0
        0x00002fde:    d00b        ..      BEQ      0x2ff8 ; i2cSpirit + 60
        0x00002fe0:    20a2        .       MOVS     r0,#0xa2
        0x00002fe2:    49dc        .I      LDR      r1,[pc,#880] ; [0x3354] = 0x20000152
        0x00002fe4:    7008        .p      STRB     r0,[r1,#0]
        0x00002fe6:    48df        .H      LDR      r0,[pc,#892] ; [0x3364] = 0x40020000
        0x00002fe8:    f000fc1a    ....    BL       I2C_START ; 0x3820
        0x00002fec:    48dd        .H      LDR      r0,[pc,#884] ; [0x3364] = 0x40020000
        0x00002fee:    f000fc3b    ..;.    BL       I2C_ENABLE_TOC ; 0x3868
        0x00002ff2:    2000        .       MOVS     r0,#0
        0x00002ff4:    49dc        .I      LDR      r1,[pc,#880] ; [0x3368] = 0x20000160
        0x00002ff6:    6008        .`      STR      r0,[r1,#0]
        0x00002ff8:    e07a        z.      B        0x30f0 ; i2cSpirit + 308
        0x00002ffa:    48db        .H      LDR      r0,[pc,#876] ; [0x3368] = 0x20000160
        0x00002ffc:    6800        .h      LDR      r0,[r0,#0]
        0x00002ffe:    1c40        @.      ADDS     r0,r0,#1
        0x00003000:    49d9        .I      LDR      r1,[pc,#868] ; [0x3368] = 0x20000160
        0x00003002:    6008        .`      STR      r0,[r1,#0]
        0x00003004:    2801        .(      CMP      r0,#1
        0x00003006:    d917        ..      BLS      0x3038 ; i2cSpirit + 124
        0x00003008:    48d5        .H      LDR      r0,[pc,#852] ; [0x3360] = 0x2000015c
        0x0000300a:    6800        .h      LDR      r0,[r0,#0]
        0x0000300c:    2800        .(      CMP      r0,#0
        0x0000300e:    d004        ..      BEQ      0x301a ; i2cSpirit + 94
        0x00003010:    20a3        .       MOVS     r0,#0xa3
        0x00003012:    49d3        .I      LDR      r1,[pc,#844] ; [0x3360] = 0x2000015c
        0x00003014:    6809        .h      LDR      r1,[r1,#0]
        0x00003016:    6889        .h      LDR      r1,[r1,#8]
        0x00003018:    7008        .p      STRB     r0,[r1,#0]
        0x0000301a:    f7ffffb4    ....    BL       readI2cChain ; 0x2f86
        0x0000301e:    20a0        .       MOVS     r0,#0xa0
        0x00003020:    49cc        .I      LDR      r1,[pc,#816] ; [0x3354] = 0x20000152
        0x00003022:    7008        .p      STRB     r0,[r1,#0]
        0x00003024:    48ce        .H      LDR      r0,[pc,#824] ; [0x3360] = 0x2000015c
        0x00003026:    6800        .h      LDR      r0,[r0,#0]
        0x00003028:    2800        .(      CMP      r0,#0
        0x0000302a:    d015        ..      BEQ      0x3058 ; i2cSpirit + 156
        0x0000302c:    20a2        .       MOVS     r0,#0xa2
        0x0000302e:    7008        .p      STRB     r0,[r1,#0]
        0x00003030:    48cc        .H      LDR      r0,[pc,#816] ; [0x3364] = 0x40020000
        0x00003032:    f000fbf5    ....    BL       I2C_START ; 0x3820
        0x00003036:    e00f        ..      B        0x3058 ; i2cSpirit + 156
        0x00003038:    48c9        .H      LDR      r0,[pc,#804] ; [0x3360] = 0x2000015c
        0x0000303a:    6800        .h      LDR      r0,[r0,#0]
        0x0000303c:    2800        .(      CMP      r0,#0
        0x0000303e:    d00b        ..      BEQ      0x3058 ; i2cSpirit + 156
        0x00003040:    48c7        .H      LDR      r0,[pc,#796] ; [0x3360] = 0x2000015c
        0x00003042:    6800        .h      LDR      r0,[r0,#0]
        0x00003044:    7900        .y      LDRB     r0,[r0,#4]
        0x00003046:    49c6        .I      LDR      r1,[pc,#792] ; [0x3360] = 0x2000015c
        0x00003048:    6809        .h      LDR      r1,[r1,#0]
        0x0000304a:    70c8        .p      STRB     r0,[r1,#3]
        0x0000304c:    20a2        .       MOVS     r0,#0xa2
        0x0000304e:    49c1        .I      LDR      r1,[pc,#772] ; [0x3354] = 0x20000152
        0x00003050:    7008        .p      STRB     r0,[r1,#0]
        0x00003052:    48c4        .H      LDR      r0,[pc,#784] ; [0x3364] = 0x40020000
        0x00003054:    f000fbe4    ....    BL       I2C_START ; 0x3820
        0x00003058:    e04a        J.      B        0x30f0 ; i2cSpirit + 308
        0x0000305a:    48c2        .H      LDR      r0,[pc,#776] ; [0x3364] = 0x40020000
        0x0000305c:    f000fbec    ....    BL       I2C_DISABLE_I2C ; 0x3838
        0x00003060:    20ff        .       MOVS     r0,#0xff
        0x00003062:    3001        .0      ADDS     r0,#1
        0x00003064:    49c1        .I      LDR      r1,[pc,#772] ; [0x336c] = 0x50000200
        0x00003066:    6889        .h      LDR      r1,[r1,#8]
        0x00003068:    4381        .C      BICS     r1,r1,r0
        0x0000306a:    4ac0        .J      LDR      r2,[pc,#768] ; [0x336c] = 0x50000200
        0x0000306c:    6091        .`      STR      r1,[r2,#8]
        0x0000306e:    bf00        ..      NOP      
        0x00003070:    bf00        ..      NOP      
        0x00003072:    2105        .!      MOVS     r1,#5
        0x00003074:    0709        ..      LSLS     r1,r1,#28
        0x00003076:    68c9        .h      LDR      r1,[r1,#0xc]
        0x00003078:    4301        .C      ORRS     r1,r1,r0
        0x0000307a:    2205        ."      MOVS     r2,#5
        0x0000307c:    0712        ..      LSLS     r2,r2,#28
        0x0000307e:    60d1        .`      STR      r1,[r2,#0xc]
        0x00003080:    4611        .F      MOV      r1,r2
        0x00003082:    68c9        .h      LDR      r1,[r1,#0xc]
        0x00003084:    4381        .C      BICS     r1,r1,r0
        0x00003086:    60d1        .`      STR      r1,[r2,#0xc]
        0x00003088:    bf00        ..      NOP      
        0x0000308a:    bf00        ..      NOP      
        0x0000308c:    49b7        .I      LDR      r1,[pc,#732] ; [0x336c] = 0x50000200
        0x0000308e:    6889        .h      LDR      r1,[r1,#8]
        0x00003090:    4301        .C      ORRS     r1,r1,r0
        0x00003092:    4ab6        .J      LDR      r2,[pc,#728] ; [0x336c] = 0x50000200
        0x00003094:    6091        .`      STR      r1,[r2,#8]
        0x00003096:    bf00        ..      NOP      
        0x00003098:    48b5        .H      LDR      r0,[pc,#724] ; [0x3370] = 0xc350
        0x0000309a:    49b2        .I      LDR      r1,[pc,#712] ; [0x3364] = 0x40020000
        0x0000309c:    6909        .i      LDR      r1,[r1,#0x10]
        0x0000309e:    4301        .C      ORRS     r1,r1,r0
        0x000030a0:    4ab0        .J      LDR      r2,[pc,#704] ; [0x3364] = 0x40020000
        0x000030a2:    6111        .a      STR      r1,[r2,#0x10]
        0x000030a4:    bf00        ..      NOP      
        0x000030a6:    bf00        ..      NOP      
        0x000030a8:    4610        .F      MOV      r0,r2
        0x000030aa:    6800        .h      LDR      r0,[r0,#0]
        0x000030ac:    2140        @!      MOVS     r1,#0x40
        0x000030ae:    4308        .C      ORRS     r0,r0,r1
        0x000030b0:    4611        .F      MOV      r1,r2
        0x000030b2:    6008        .`      STR      r0,[r1,#0]
        0x000030b4:    bf00        ..      NOP      
        0x000030b6:    bf00        ..      NOP      
        0x000030b8:    4608        .F      MOV      r0,r1
        0x000030ba:    6800        .h      LDR      r0,[r0,#0]
        0x000030bc:    2180        .!      MOVS     r1,#0x80
        0x000030be:    4308        .C      ORRS     r0,r0,r1
        0x000030c0:    4611        .F      MOV      r1,r2
        0x000030c2:    6008        .`      STR      r0,[r1,#0]
        0x000030c4:    bf00        ..      NOP      
        0x000030c6:    20a3        .       MOVS     r0,#0xa3
        0x000030c8:    49a2        .I      LDR      r1,[pc,#648] ; [0x3354] = 0x20000152
        0x000030ca:    e001        ..      B        0x30d0 ; i2cSpirit + 276
        0x000030cc:    e002        ..      B        0x30d4 ; i2cSpirit + 280
        0x000030ce:    e00e        ..      B        0x30ee ; i2cSpirit + 306
        0x000030d0:    7008        .p      STRB     r0,[r1,#0]
        0x000030d2:    e00d        ..      B        0x30f0 ; i2cSpirit + 308
        0x000030d4:    48a7        .H      LDR      r0,[pc,#668] ; [0x3374] = 0x20000164
        0x000030d6:    6800        .h      LDR      r0,[r0,#0]
        0x000030d8:    1c40        @.      ADDS     r0,r0,#1
        0x000030da:    49a6        .I      LDR      r1,[pc,#664] ; [0x3374] = 0x20000164
        0x000030dc:    6008        .`      STR      r0,[r1,#0]
        0x000030de:    2814        .(      CMP      r0,#0x14
        0x000030e0:    d903        ..      BLS      0x30ea ; i2cSpirit + 302
        0x000030e2:    20a1        .       MOVS     r0,#0xa1
        0x000030e4:    499b        .I      LDR      r1,[pc,#620] ; [0x3354] = 0x20000152
        0x000030e6:    7008        .p      STRB     r0,[r1,#0]
        0x000030e8:    e000        ..      B        0x30ec ; i2cSpirit + 304
        0x000030ea:    bd10        ..      POP      {r4,pc}
        0x000030ec:    e000        ..      B        0x30f0 ; i2cSpirit + 308
        0x000030ee:    bf00        ..      NOP      
        0x000030f0:    bf00        ..      NOP      
        0x000030f2:    2000        .       MOVS     r0,#0
        0x000030f4:    499f        .I      LDR      r1,[pc,#636] ; [0x3374] = 0x20000164
        0x000030f6:    6008        .`      STR      r0,[r1,#0]
        0x000030f8:    bf00        ..      NOP      
        0x000030fa:    e7f6        ..      B        0x30ea ; i2cSpirit + 302
    addI2cChain
        0x000030fc:    b570        p.      PUSH     {r4-r6,lr}
        0x000030fe:    4604        .F      MOV      r4,r0
        0x00003100:    460d        .F      MOV      r5,r1
        0x00003102:    4897        .H      LDR      r0,[pc,#604] ; [0x3360] = 0x2000015c
        0x00003104:    6800        .h      LDR      r0,[r0,#0]
        0x00003106:    4284        .B      CMP      r4,r0
        0x00003108:    d107        ..      BNE      0x311a ; addI2cChain + 30
        0x0000310a:    4895        .H      LDR      r0,[pc,#596] ; [0x3360] = 0x2000015c
        0x0000310c:    6800        .h      LDR      r0,[r0,#0]
        0x0000310e:    6880        .h      LDR      r0,[r0,#8]
        0x00003110:    7800        .x      LDRB     r0,[r0,#0]
        0x00003112:    28a0        .(      CMP      r0,#0xa0
        0x00003114:    d001        ..      BEQ      0x311a ; addI2cChain + 30
        0x00003116:    2000        .       MOVS     r0,#0
        0x00003118:    bd70        p.      POP      {r4-r6,pc}
        0x0000311a:    7920         y      LDRB     r0,[r4,#4]
        0x0000311c:    70e0        .p      STRB     r0,[r4,#3]
        0x0000311e:    488f        .H      LDR      r0,[pc,#572] ; [0x335c] = 0x20000158
        0x00003120:    6800        .h      LDR      r0,[r0,#0]
        0x00003122:    2800        .(      CMP      r0,#0
        0x00003124:    d020         .      BEQ      0x3168 ; addI2cChain + 108
        0x00003126:    2d00        .-      CMP      r5,#0
        0x00003128:    d00d        ..      BEQ      0x3146 ; addI2cChain + 74
        0x0000312a:    488b        .H      LDR      r0,[pc,#556] ; [0x3358] = 0x20000154
        0x0000312c:    6800        .h      LDR      r0,[r0,#0]
        0x0000312e:    4284        .B      CMP      r4,r0
        0x00003130:    d101        ..      BNE      0x3136 ; addI2cChain + 58
        0x00003132:    2000        .       MOVS     r0,#0
        0x00003134:    e7f0        ..      B        0x3118 ; addI2cChain + 28
        0x00003136:    4888        .H      LDR      r0,[pc,#544] ; [0x3358] = 0x20000154
        0x00003138:    6800        .h      LDR      r0,[r0,#0]
        0x0000313a:    60e0        .`      STR      r0,[r4,#0xc]
        0x0000313c:    4886        .H      LDR      r0,[pc,#536] ; [0x3358] = 0x20000154
        0x0000313e:    6004        .`      STR      r4,[r0,#0]
        0x00003140:    f7ffff3c    ..<.    BL       i2cSpirit ; 0x2fbc
        0x00003144:    e017        ..      B        0x3176 ; addI2cChain + 122
        0x00003146:    4885        .H      LDR      r0,[pc,#532] ; [0x335c] = 0x20000158
        0x00003148:    6800        .h      LDR      r0,[r0,#0]
        0x0000314a:    4284        .B      CMP      r4,r0
        0x0000314c:    d104        ..      BNE      0x3158 ; addI2cChain + 92
        0x0000314e:    4882        .H      LDR      r0,[pc,#520] ; [0x3358] = 0x20000154
        0x00003150:    6800        .h      LDR      r0,[r0,#0]
        0x00003152:    2800        .(      CMP      r0,#0
        0x00003154:    d100        ..      BNE      0x3158 ; addI2cChain + 92
        0x00003156:    e008        ..      B        0x316a ; addI2cChain + 110
        0x00003158:    4880        .H      LDR      r0,[pc,#512] ; [0x335c] = 0x20000158
        0x0000315a:    6800        .h      LDR      r0,[r0,#0]
        0x0000315c:    60c4        .`      STR      r4,[r0,#0xc]
        0x0000315e:    487f        .H      LDR      r0,[pc,#508] ; [0x335c] = 0x20000158
        0x00003160:    6004        .`      STR      r4,[r0,#0]
        0x00003162:    2000        .       MOVS     r0,#0
        0x00003164:    60e0        .`      STR      r0,[r4,#0xc]
        0x00003166:    e006        ..      B        0x3176 ; addI2cChain + 122
        0x00003168:    bf00        ..      NOP      
        0x0000316a:    487b        {H      LDR      r0,[pc,#492] ; [0x3358] = 0x20000154
        0x0000316c:    6004        .`      STR      r4,[r0,#0]
        0x0000316e:    487b        {H      LDR      r0,[pc,#492] ; [0x335c] = 0x20000158
        0x00003170:    6004        .`      STR      r4,[r0,#0]
        0x00003172:    2000        .       MOVS     r0,#0
        0x00003174:    60e0        .`      STR      r0,[r4,#0xc]
        0x00003176:    2001        .       MOVS     r0,#1
        0x00003178:    e7ce        ..      B        0x3118 ; addI2cChain + 28
    I2C0_IRQHandler
        0x0000317a:    b510        ..      PUSH     {r4,lr}
        0x0000317c:    bf00        ..      NOP      
        0x0000317e:    4879        yH      LDR      r0,[pc,#484] ; [0x3364] = 0x40020000
        0x00003180:    6940        @i      LDR      r0,[r0,#0x14]
        0x00003182:    07c0        ..      LSLS     r0,r0,#31
        0x00003184:    0fc0        ..      LSRS     r0,r0,#31
        0x00003186:    2800        .(      CMP      r0,#0
        0x00003188:    d011        ..      BEQ      0x31ae ; I2C0_IRQHandler + 52
        0x0000318a:    4876        vH      LDR      r0,[pc,#472] ; [0x3364] = 0x40020000
        0x0000318c:    f000fb71    ..q.    BL       I2C_DISABLE_TOC ; 0x3872
        0x00003190:    bf00        ..      NOP      
        0x00003192:    4874        tH      LDR      r0,[pc,#464] ; [0x3364] = 0x40020000
        0x00003194:    6940        @i      LDR      r0,[r0,#0x14]
        0x00003196:    2101        .!      MOVS     r1,#1
        0x00003198:    4308        .C      ORRS     r0,r0,r1
        0x0000319a:    4972        rI      LDR      r1,[pc,#456] ; [0x3364] = 0x40020000
        0x0000319c:    6148        Ha      STR      r0,[r1,#0x14]
        0x0000319e:    bf00        ..      NOP      
        0x000031a0:    4608        .F      MOV      r0,r1
        0x000031a2:    f000fb44    ..D.    BL       I2C_STOP ; 0x382e
        0x000031a6:    20a3        .       MOVS     r0,#0xa3
        0x000031a8:    496a        jI      LDR      r1,[pc,#424] ; [0x3354] = 0x20000152
        0x000031aa:    7008        .p      STRB     r0,[r1,#0]
        0x000031ac:    bd10        ..      POP      {r4,pc}
        0x000031ae:    bf00        ..      NOP      
        0x000031b0:    486c        lH      LDR      r0,[pc,#432] ; [0x3364] = 0x40020000
        0x000031b2:    68c4        .h      LDR      r4,[r0,#0xc]
        0x000031b4:    bf00        ..      NOP      
        0x000031b6:    486a        jH      LDR      r0,[pc,#424] ; [0x3360] = 0x2000015c
        0x000031b8:    6800        .h      LDR      r0,[r0,#0]
        0x000031ba:    7800        .x      LDRB     r0,[r0,#0]
        0x000031bc:    07c0        ..      LSLS     r0,r0,#31
        0x000031be:    0fc0        ..      LSRS     r0,r0,#31
        0x000031c0:    d000        ..      BEQ      0x31c4 ; I2C0_IRQHandler + 74
        0x000031c2:    e07a        z.      B        0x32ba ; I2C0_IRQHandler + 320
        0x000031c4:    2c08        .,      CMP      r4,#8
        0x000031c6:    d006        ..      BEQ      0x31d6 ; I2C0_IRQHandler + 92
        0x000031c8:    2c18        .,      CMP      r4,#0x18
        0x000031ca:    d00e        ..      BEQ      0x31ea ; I2C0_IRQHandler + 112
        0x000031cc:    2c28        (,      CMP      r4,#0x28
        0x000031ce:    d021        !.      BEQ      0x3214 ; I2C0_IRQHandler + 154
        0x000031d0:    2c38        8,      CMP      r4,#0x38
        0x000031d2:    d168        h.      BNE      0x32a6 ; I2C0_IRQHandler + 300
        0x000031d4:    e05d        ].      B        0x3292 ; I2C0_IRQHandler + 280
        0x000031d6:    4862        bH      LDR      r0,[pc,#392] ; [0x3360] = 0x2000015c
        0x000031d8:    6800        .h      LDR      r0,[r0,#0]
        0x000031da:    7801        .x      LDRB     r1,[r0,#0]
        0x000031dc:    4861        aH      LDR      r0,[pc,#388] ; [0x3364] = 0x40020000
        0x000031de:    f000fb41    ..A.    BL       I2C_SET_DATA ; 0x3864
        0x000031e2:    4860        `H      LDR      r0,[pc,#384] ; [0x3364] = 0x40020000
        0x000031e4:    f000fb2d    ..-.    BL       I2C_CLEAR_SI ; 0x3842
        0x000031e8:    e7e0        ..      B        0x31ac ; I2C0_IRQHandler + 50
        0x000031ea:    485d        ]H      LDR      r0,[pc,#372] ; [0x3360] = 0x2000015c
        0x000031ec:    6800        .h      LDR      r0,[r0,#0]
        0x000031ee:    78c2        .x      LDRB     r2,[r0,#3]
        0x000031f0:    485b        [H      LDR      r0,[pc,#364] ; [0x3360] = 0x2000015c
        0x000031f2:    6800        .h      LDR      r0,[r0,#0]
        0x000031f4:    78c0        .x      LDRB     r0,[r0,#3]
        0x000031f6:    1c40        @.      ADDS     r0,r0,#1
        0x000031f8:    4b59        YK      LDR      r3,[pc,#356] ; [0x3360] = 0x2000015c
        0x000031fa:    681b        .h      LDR      r3,[r3,#0]
        0x000031fc:    70d8        .p      STRB     r0,[r3,#3]
        0x000031fe:    4858        XH      LDR      r0,[pc,#352] ; [0x3360] = 0x2000015c
        0x00003200:    6800        .h      LDR      r0,[r0,#0]
        0x00003202:    6880        .h      LDR      r0,[r0,#8]
        0x00003204:    5c81        .\      LDRB     r1,[r0,r2]
        0x00003206:    4857        WH      LDR      r0,[pc,#348] ; [0x3364] = 0x40020000
        0x00003208:    f000fb2c    ..,.    BL       I2C_SET_DATA ; 0x3864
        0x0000320c:    4855        UH      LDR      r0,[pc,#340] ; [0x3364] = 0x40020000
        0x0000320e:    f000fb18    ....    BL       I2C_CLEAR_SI ; 0x3842
        0x00003212:    e7cb        ..      B        0x31ac ; I2C0_IRQHandler + 50
        0x00003214:    4852        RH      LDR      r0,[pc,#328] ; [0x3360] = 0x2000015c
        0x00003216:    6800        .h      LDR      r0,[r0,#0]
        0x00003218:    7840        @x      LDRB     r0,[r0,#1]
        0x0000321a:    2801        .(      CMP      r0,#1
        0x0000321c:    d10b        ..      BNE      0x3236 ; I2C0_IRQHandler + 188
        0x0000321e:    4850        PH      LDR      r0,[pc,#320] ; [0x3360] = 0x2000015c
        0x00003220:    6800        .h      LDR      r0,[r0,#0]
        0x00003222:    7800        .x      LDRB     r0,[r0,#0]
        0x00003224:    2101        .!      MOVS     r1,#1
        0x00003226:    4308        .C      ORRS     r0,r0,r1
        0x00003228:    494d        MI      LDR      r1,[pc,#308] ; [0x3360] = 0x2000015c
        0x0000322a:    6809        .h      LDR      r1,[r1,#0]
        0x0000322c:    7008        .p      STRB     r0,[r1,#0]
        0x0000322e:    484d        MH      LDR      r0,[pc,#308] ; [0x3364] = 0x40020000
        0x00003230:    f000faf6    ....    BL       I2C_START ; 0x3820
        0x00003234:    e7ba        ..      B        0x31ac ; I2C0_IRQHandler + 50
        0x00003236:    484a        JH      LDR      r0,[pc,#296] ; [0x3360] = 0x2000015c
        0x00003238:    6800        .h      LDR      r0,[r0,#0]
        0x0000323a:    7880        .x      LDRB     r0,[r0,#2]
        0x0000323c:    4948        HI      LDR      r1,[pc,#288] ; [0x3360] = 0x2000015c
        0x0000323e:    6809        .h      LDR      r1,[r1,#0]
        0x00003240:    78c9        .x      LDRB     r1,[r1,#3]
        0x00003242:    4288        .B      CMP      r0,r1
        0x00003244:    da10        ..      BGE      0x3268 ; I2C0_IRQHandler + 238
        0x00003246:    4847        GH      LDR      r0,[pc,#284] ; [0x3364] = 0x40020000
        0x00003248:    f000faf1    ....    BL       I2C_STOP ; 0x382e
        0x0000324c:    4845        EH      LDR      r0,[pc,#276] ; [0x3364] = 0x40020000
        0x0000324e:    f000fb10    ....    BL       I2C_DISABLE_TOC ; 0x3872
        0x00003252:    20a0        .       MOVS     r0,#0xa0
        0x00003254:    493f        ?I      LDR      r1,[pc,#252] ; [0x3354] = 0x20000152
        0x00003256:    7008        .p      STRB     r0,[r1,#0]
        0x00003258:    4941        AI      LDR      r1,[pc,#260] ; [0x3360] = 0x2000015c
        0x0000325a:    6809        .h      LDR      r1,[r1,#0]
        0x0000325c:    6889        .h      LDR      r1,[r1,#8]
        0x0000325e:    7008        .p      STRB     r0,[r1,#0]
        0x00003260:    2000        .       MOVS     r0,#0
        0x00003262:    493f        ?I      LDR      r1,[pc,#252] ; [0x3360] = 0x2000015c
        0x00003264:    6008        .`      STR      r0,[r1,#0]
        0x00003266:    e7a1        ..      B        0x31ac ; I2C0_IRQHandler + 50
        0x00003268:    483d        =H      LDR      r0,[pc,#244] ; [0x3360] = 0x2000015c
        0x0000326a:    6800        .h      LDR      r0,[r0,#0]
        0x0000326c:    78c2        .x      LDRB     r2,[r0,#3]
        0x0000326e:    483c        <H      LDR      r0,[pc,#240] ; [0x3360] = 0x2000015c
        0x00003270:    6800        .h      LDR      r0,[r0,#0]
        0x00003272:    78c0        .x      LDRB     r0,[r0,#3]
        0x00003274:    1c40        @.      ADDS     r0,r0,#1
        0x00003276:    4b3a        :K      LDR      r3,[pc,#232] ; [0x3360] = 0x2000015c
        0x00003278:    681b        .h      LDR      r3,[r3,#0]
        0x0000327a:    70d8        .p      STRB     r0,[r3,#3]
        0x0000327c:    4838        8H      LDR      r0,[pc,#224] ; [0x3360] = 0x2000015c
        0x0000327e:    6800        .h      LDR      r0,[r0,#0]
        0x00003280:    6880        .h      LDR      r0,[r0,#8]
        0x00003282:    5c81        .\      LDRB     r1,[r0,r2]
        0x00003284:    4837        7H      LDR      r0,[pc,#220] ; [0x3364] = 0x40020000
        0x00003286:    f000faed    ....    BL       I2C_SET_DATA ; 0x3864
        0x0000328a:    4836        6H      LDR      r0,[pc,#216] ; [0x3364] = 0x40020000
        0x0000328c:    f000fad9    ....    BL       I2C_CLEAR_SI ; 0x3842
        0x00003290:    e78c        ..      B        0x31ac ; I2C0_IRQHandler + 50
        0x00003292:    4834        4H      LDR      r0,[pc,#208] ; [0x3364] = 0x40020000
        0x00003294:    f000facb    ....    BL       I2C_STOP ; 0x382e
        0x00003298:    4832        2H      LDR      r0,[pc,#200] ; [0x3364] = 0x40020000
        0x0000329a:    f000faea    ....    BL       I2C_DISABLE_TOC ; 0x3872
        0x0000329e:    20a1        .       MOVS     r0,#0xa1
        0x000032a0:    492c        ,I      LDR      r1,[pc,#176] ; [0x3354] = 0x20000152
        0x000032a2:    7008        .p      STRB     r0,[r1,#0]
        0x000032a4:    e782        ..      B        0x31ac ; I2C0_IRQHandler + 50
        0x000032a6:    482f        /H      LDR      r0,[pc,#188] ; [0x3364] = 0x40020000
        0x000032a8:    f000fac1    ....    BL       I2C_STOP ; 0x382e
        0x000032ac:    482d        -H      LDR      r0,[pc,#180] ; [0x3364] = 0x40020000
        0x000032ae:    f000fae0    ....    BL       I2C_DISABLE_TOC ; 0x3872
        0x000032b2:    20a3        .       MOVS     r0,#0xa3
        0x000032b4:    4927        'I      LDR      r1,[pc,#156] ; [0x3354] = 0x20000152
        0x000032b6:    7008        .p      STRB     r0,[r1,#0]
        0x000032b8:    e778        x.      B        0x31ac ; I2C0_IRQHandler + 50
        0x000032ba:    2c48        H,      CMP      r4,#0x48
        0x000032bc:    d01a        ..      BEQ      0x32f4 ; I2C0_IRQHandler + 378
        0x000032be:    dc06        ..      BGT      0x32ce ; I2C0_IRQHandler + 340
        0x000032c0:    2c08        .,      CMP      r4,#8
        0x000032c2:    d00a        ..      BEQ      0x32da ; I2C0_IRQHandler + 352
        0x000032c4:    2c10        .,      CMP      r4,#0x10
        0x000032c6:    d007        ..      BEQ      0x32d8 ; I2C0_IRQHandler + 350
        0x000032c8:    2c40        @,      CMP      r4,#0x40
        0x000032ca:    d16f        o.      BNE      0x33ac ; I2C0_IRQHandler + 562
        0x000032cc:    e019        ..      B        0x3302 ; I2C0_IRQHandler + 392
        0x000032ce:    2c50        P,      CMP      r4,#0x50
        0x000032d0:    d06e        n.      BEQ      0x33b0 ; I2C0_IRQHandler + 566
        0x000032d2:    2c58        X,      CMP      r4,#0x58
        0x000032d4:    d1f9        ..      BNE      0x32ca ; I2C0_IRQHandler + 336
        0x000032d6:    e027        '.      B        0x3328 ; I2C0_IRQHandler + 430
        0x000032d8:    bf00        ..      NOP      
        0x000032da:    4821        !H      LDR      r0,[pc,#132] ; [0x3360] = 0x2000015c
        0x000032dc:    6800        .h      LDR      r0,[r0,#0]
        0x000032de:    7800        .x      LDRB     r0,[r0,#0]
        0x000032e0:    2201        ."      MOVS     r2,#1
        0x000032e2:    4310        .C      ORRS     r0,r0,r2
        0x000032e4:    4601        .F      MOV      r1,r0
        0x000032e6:    481f        .H      LDR      r0,[pc,#124] ; [0x3364] = 0x40020000
        0x000032e8:    f000fabc    ....    BL       I2C_SET_DATA ; 0x3864
        0x000032ec:    481d        .H      LDR      r0,[pc,#116] ; [0x3364] = 0x40020000
        0x000032ee:    f000faa8    ....    BL       I2C_CLEAR_SI ; 0x3842
        0x000032f2:    e75b        [.      B        0x31ac ; I2C0_IRQHandler + 50
        0x000032f4:    481b        .H      LDR      r0,[pc,#108] ; [0x3364] = 0x40020000
        0x000032f6:    f000fa9a    ....    BL       I2C_STOP ; 0x382e
        0x000032fa:    20a3        .       MOVS     r0,#0xa3
        0x000032fc:    4915        .I      LDR      r1,[pc,#84] ; [0x3354] = 0x20000152
        0x000032fe:    7008        .p      STRB     r0,[r1,#0]
        0x00003300:    e754        T.      B        0x31ac ; I2C0_IRQHandler + 50
        0x00003302:    4817        .H      LDR      r0,[pc,#92] ; [0x3360] = 0x2000015c
        0x00003304:    6800        .h      LDR      r0,[r0,#0]
        0x00003306:    7880        .x      LDRB     r0,[r0,#2]
        0x00003308:    4915        .I      LDR      r1,[pc,#84] ; [0x3360] = 0x2000015c
        0x0000330a:    6809        .h      LDR      r1,[r1,#0]
        0x0000330c:    78c9        .x      LDRB     r1,[r1,#3]
        0x0000330e:    4288        .B      CMP      r0,r1
        0x00003310:    dd03        ..      BLE      0x331a ; I2C0_IRQHandler + 416
        0x00003312:    4814        .H      LDR      r0,[pc,#80] ; [0x3364] = 0x40020000
        0x00003314:    f000fa9c    ....    BL       I2C_SET_AA ; 0x3850
        0x00003318:    e002        ..      B        0x3320 ; I2C0_IRQHandler + 422
        0x0000331a:    4812        .H      LDR      r0,[pc,#72] ; [0x3364] = 0x40020000
        0x0000331c:    f000fa9d    ....    BL       I2C_CLEAR_AA ; 0x385a
        0x00003320:    4810        .H      LDR      r0,[pc,#64] ; [0x3364] = 0x40020000
        0x00003322:    f000fa8e    ....    BL       I2C_CLEAR_SI ; 0x3842
        0x00003326:    e741        A.      B        0x31ac ; I2C0_IRQHandler + 50
        0x00003328:    bf00        ..      NOP      
        0x0000332a:    480e        .H      LDR      r0,[pc,#56] ; [0x3364] = 0x40020000
        0x0000332c:    6880        .h      LDR      r0,[r0,#8]
        0x0000332e:    b2c1        ..      UXTB     r1,r0
        0x00003330:    480b        .H      LDR      r0,[pc,#44] ; [0x3360] = 0x2000015c
        0x00003332:    6800        .h      LDR      r0,[r0,#0]
        0x00003334:    78c2        .x      LDRB     r2,[r0,#3]
        0x00003336:    480a        .H      LDR      r0,[pc,#40] ; [0x3360] = 0x2000015c
        0x00003338:    6800        .h      LDR      r0,[r0,#0]
        0x0000333a:    78c0        .x      LDRB     r0,[r0,#3]
        0x0000333c:    1c40        @.      ADDS     r0,r0,#1
        0x0000333e:    4b08        .K      LDR      r3,[pc,#32] ; [0x3360] = 0x2000015c
        0x00003340:    681b        .h      LDR      r3,[r3,#0]
        0x00003342:    70d8        .p      STRB     r0,[r3,#3]
        0x00003344:    4806        .H      LDR      r0,[pc,#24] ; [0x3360] = 0x2000015c
        0x00003346:    6800        .h      LDR      r0,[r0,#0]
        0x00003348:    6880        .h      LDR      r0,[r0,#8]
        0x0000334a:    5481        .T      STRB     r1,[r0,r2]
        0x0000334c:    4805        .H      LDR      r0,[pc,#20] ; [0x3364] = 0x40020000
        0x0000334e:    f000fa6e    ..n.    BL       I2C_STOP ; 0x382e
        0x00003352:    e011        ..      B        0x3378 ; I2C0_IRQHandler + 510
    $d
        0x00003354:    20000152    R..     DCD    536871250
        0x00003358:    20000154    T..     DCD    536871252
        0x0000335c:    20000158    X..     DCD    536871256
        0x00003360:    2000015c    \..     DCD    536871260
        0x00003364:    40020000    ...@    DCD    1073872896
        0x00003368:    20000160    `..     DCD    536871264
        0x0000336c:    50000200    ...P    DCD    1342177792
        0x00003370:    0000c350    P...    DCD    50000
        0x00003374:    20000164    d..     DCD    536871268
    $t
        0x00003378:    48fb        .H      LDR      r0,[pc,#1004] ; [0x3768] = 0x2000015c
        0x0000337a:    6800        .h      LDR      r0,[r0,#0]
        0x0000337c:    7880        .x      LDRB     r0,[r0,#2]
        0x0000337e:    49fa        .I      LDR      r1,[pc,#1000] ; [0x3768] = 0x2000015c
        0x00003380:    6809        .h      LDR      r1,[r1,#0]
        0x00003382:    78c9        .x      LDRB     r1,[r1,#3]
        0x00003384:    4288        .B      CMP      r0,r1
        0x00003386:    da0a        ..      BGE      0x339e ; I2C0_IRQHandler + 548
        0x00003388:    20a0        .       MOVS     r0,#0xa0
        0x0000338a:    49f8        .I      LDR      r1,[pc,#992] ; [0x376c] = 0x20000152
        0x0000338c:    7008        .p      STRB     r0,[r1,#0]
        0x0000338e:    49f6        .I      LDR      r1,[pc,#984] ; [0x3768] = 0x2000015c
        0x00003390:    6809        .h      LDR      r1,[r1,#0]
        0x00003392:    6889        .h      LDR      r1,[r1,#8]
        0x00003394:    7008        .p      STRB     r0,[r1,#0]
        0x00003396:    2000        .       MOVS     r0,#0
        0x00003398:    49f3        .I      LDR      r1,[pc,#972] ; [0x3768] = 0x2000015c
        0x0000339a:    6008        .`      STR      r0,[r1,#0]
        0x0000339c:    e005        ..      B        0x33aa ; I2C0_IRQHandler + 560
        0x0000339e:    20a3        .       MOVS     r0,#0xa3
        0x000033a0:    49f2        .I      LDR      r1,[pc,#968] ; [0x376c] = 0x20000152
        0x000033a2:    7008        .p      STRB     r0,[r1,#0]
        0x000033a4:    2000        .       MOVS     r0,#0
        0x000033a6:    49f0        .I      LDR      r1,[pc,#960] ; [0x3768] = 0x2000015c
        0x000033a8:    6008        .`      STR      r0,[r1,#0]
        0x000033aa:    e6ff        ..      B        0x31ac ; I2C0_IRQHandler + 50
        0x000033ac:    e025        %.      B        0x33fa ; I2C0_IRQHandler + 640
        0x000033ae:    e7ff        ..      B        0x33b0 ; I2C0_IRQHandler + 566
        0x000033b0:    bf00        ..      NOP      
        0x000033b2:    48ef        .H      LDR      r0,[pc,#956] ; [0x3770] = 0x40020000
        0x000033b4:    6880        .h      LDR      r0,[r0,#8]
        0x000033b6:    b2c1        ..      UXTB     r1,r0
        0x000033b8:    48eb        .H      LDR      r0,[pc,#940] ; [0x3768] = 0x2000015c
        0x000033ba:    6800        .h      LDR      r0,[r0,#0]
        0x000033bc:    78c2        .x      LDRB     r2,[r0,#3]
        0x000033be:    48ea        .H      LDR      r0,[pc,#936] ; [0x3768] = 0x2000015c
        0x000033c0:    6800        .h      LDR      r0,[r0,#0]
        0x000033c2:    78c0        .x      LDRB     r0,[r0,#3]
        0x000033c4:    1c40        @.      ADDS     r0,r0,#1
        0x000033c6:    4be8        .K      LDR      r3,[pc,#928] ; [0x3768] = 0x2000015c
        0x000033c8:    681b        .h      LDR      r3,[r3,#0]
        0x000033ca:    70d8        .p      STRB     r0,[r3,#3]
        0x000033cc:    48e6        .H      LDR      r0,[pc,#920] ; [0x3768] = 0x2000015c
        0x000033ce:    6800        .h      LDR      r0,[r0,#0]
        0x000033d0:    6880        .h      LDR      r0,[r0,#8]
        0x000033d2:    5481        .T      STRB     r1,[r0,r2]
        0x000033d4:    48e4        .H      LDR      r0,[pc,#912] ; [0x3768] = 0x2000015c
        0x000033d6:    6800        .h      LDR      r0,[r0,#0]
        0x000033d8:    7880        .x      LDRB     r0,[r0,#2]
        0x000033da:    49e3        .I      LDR      r1,[pc,#908] ; [0x3768] = 0x2000015c
        0x000033dc:    6809        .h      LDR      r1,[r1,#0]
        0x000033de:    78c9        .x      LDRB     r1,[r1,#3]
        0x000033e0:    4288        .B      CMP      r0,r1
        0x000033e2:    dd03        ..      BLE      0x33ec ; I2C0_IRQHandler + 626
        0x000033e4:    48e2        .H      LDR      r0,[pc,#904] ; [0x3770] = 0x40020000
        0x000033e6:    f000fa33    ..3.    BL       I2C_SET_AA ; 0x3850
        0x000033ea:    e002        ..      B        0x33f2 ; I2C0_IRQHandler + 632
        0x000033ec:    48e0        .H      LDR      r0,[pc,#896] ; [0x3770] = 0x40020000
        0x000033ee:    f000fa34    ..4.    BL       I2C_CLEAR_AA ; 0x385a
        0x000033f2:    48df        .H      LDR      r0,[pc,#892] ; [0x3770] = 0x40020000
        0x000033f4:    f000fa25    ..%.    BL       I2C_CLEAR_SI ; 0x3842
        0x000033f8:    e6d8        ..      B        0x31ac ; I2C0_IRQHandler + 50
        0x000033fa:    48dd        .H      LDR      r0,[pc,#884] ; [0x3770] = 0x40020000
        0x000033fc:    f000fa17    ....    BL       I2C_STOP ; 0x382e
        0x00003400:    20a3        .       MOVS     r0,#0xa3
        0x00003402:    49da        .I      LDR      r1,[pc,#872] ; [0x376c] = 0x20000152
        0x00003404:    7008        .p      STRB     r0,[r1,#0]
        0x00003406:    bf00        ..      NOP      
        0x00003408:    e6d0        ..      B        0x31ac ; I2C0_IRQHandler + 50
    i2cSysInit
        0x0000340a:    b510        ..      PUSH     {r4,lr}
        0x0000340c:    2202        ."      MOVS     r2,#2
        0x0000340e:    2103        .!      MOVS     r1,#3
        0x00003410:    48d8        .H      LDR      r0,[pc,#864] ; [0x3774] = 0x50004140
        0x00003412:    f7fffd95    ....    BL       GPIO_SET_MODE ; 0x2f40
        0x00003416:    2202        ."      MOVS     r2,#2
        0x00003418:    4611        .F      MOV      r1,r2
        0x0000341a:    48d6        .H      LDR      r0,[pc,#856] ; [0x3774] = 0x50004140
        0x0000341c:    f7fffd90    ....    BL       GPIO_SET_MODE ; 0x2f40
        0x00003420:    bf00        ..      NOP      
        0x00003422:    48d5        .H      LDR      r0,[pc,#852] ; [0x3778] = 0x50000040
        0x00003424:    6840        @h      LDR      r0,[r0,#4]
        0x00003426:    210c        .!      MOVS     r1,#0xc
        0x00003428:    4308        .C      ORRS     r0,r0,r1
        0x0000342a:    49d3        .I      LDR      r1,[pc,#844] ; [0x3778] = 0x50000040
        0x0000342c:    6048        H`      STR      r0,[r1,#4]
        0x0000342e:    4608        .F      MOV      r0,r1
        0x00003430:    6940        @i      LDR      r0,[r0,#0x14]
        0x00003432:    210f        .!      MOVS     r1,#0xf
        0x00003434:    0609        ..      LSLS     r1,r1,#24
        0x00003436:    4388        .C      BICS     r0,r0,r1
        0x00003438:    2105        .!      MOVS     r1,#5
        0x0000343a:    0649        I.      LSLS     r1,r1,#25
        0x0000343c:    1840        @.      ADDS     r0,r0,r1
        0x0000343e:    49ce        .I      LDR      r1,[pc,#824] ; [0x3778] = 0x50000040
        0x00003440:    6148        Ha      STR      r0,[r1,#0x14]
        0x00003442:    bf00        ..      NOP      
        0x00003444:    2102        .!      MOVS     r1,#2
        0x00003446:    2012        .       MOVS     r0,#0x12
        0x00003448:    f000f9ad    ....    BL       NVIC_SetPriority ; 0x37a6
        0x0000344c:    2201        ."      MOVS     r2,#1
        0x0000344e:    49cb        .I      LDR      r1,[pc,#812] ; [0x377c] = 0xc350
        0x00003450:    48c7        .H      LDR      r0,[pc,#796] ; [0x3770] = 0x40020000
        0x00003452:    f7fdf893    ....    BL       DrvI2C_Init ; 0x57c
        0x00003456:    bf00        ..      NOP      
        0x00003458:    48c5        .H      LDR      r0,[pc,#788] ; [0x3770] = 0x40020000
        0x0000345a:    6940        @i      LDR      r0,[r0,#0x14]
        0x0000345c:    2102        .!      MOVS     r1,#2
        0x0000345e:    4308        .C      ORRS     r0,r0,r1
        0x00003460:    49c3        .I      LDR      r1,[pc,#780] ; [0x3770] = 0x40020000
        0x00003462:    6148        Ha      STR      r0,[r1,#0x14]
        0x00003464:    bf00        ..      NOP      
        0x00003466:    4608        .F      MOV      r0,r1
        0x00003468:    f000f9fe    ....    BL       I2C_ENABLE_TOC ; 0x3868
        0x0000346c:    bd10        ..      POP      {r4,pc}
    delayus
        0x0000346e:    b510        ..      PUSH     {r4,lr}
        0x00003470:    4604        .F      MOV      r4,r0
        0x00003472:    4620         F      MOV      r0,r4
        0x00003474:    f7fefeb5    ....    BL       sysDelayUs ; 0x21e2
        0x00003478:    bd10        ..      POP      {r4,pc}
    i2cAck
        0x0000347a:    b508        ..      PUSH     {r3,lr}
        0x0000347c:    48c0        .H      LDR      r0,[pc,#768] ; [0x3780] = 0x5000434c
        0x0000347e:    f000f9cc    ....    BL       GPIO_CLR_PIN ; 0x381a
        0x00003482:    2006        .       MOVS     r0,#6
        0x00003484:    f7fffff3    ....    BL       delayus ; 0x346e
        0x00003488:    48bd        .H      LDR      r0,[pc,#756] ; [0x3780] = 0x5000434c
        0x0000348a:    1f00        ..      SUBS     r0,r0,#4
        0x0000348c:    f000f9c2    ....    BL       GPIO_SET_PIN ; 0x3814
        0x00003490:    2006        .       MOVS     r0,#6
        0x00003492:    f7ffffec    ....    BL       delayus ; 0x346e
        0x00003496:    48ba        .H      LDR      r0,[pc,#744] ; [0x3780] = 0x5000434c
        0x00003498:    f000f9bc    ....    BL       GPIO_SET_PIN ; 0x3814
        0x0000349c:    2003        .       MOVS     r0,#3
        0x0000349e:    f7ffffe6    ....    BL       delayus ; 0x346e
        0x000034a2:    bf00        ..      NOP      
        0x000034a4:    48b6        .H      LDR      r0,[pc,#728] ; [0x3780] = 0x5000434c
        0x000034a6:    1f00        ..      SUBS     r0,r0,#4
        0x000034a8:    6800        .h      LDR      r0,[r0,#0]
        0x000034aa:    9000        ..      STR      r0,[sp,#0]
        0x000034ac:    2003        .       MOVS     r0,#3
        0x000034ae:    f7ffffde    ....    BL       delayus ; 0x346e
        0x000034b2:    48b3        .H      LDR      r0,[pc,#716] ; [0x3780] = 0x5000434c
        0x000034b4:    f000f9b1    ....    BL       GPIO_CLR_PIN ; 0x381a
        0x000034b8:    2006        .       MOVS     r0,#6
        0x000034ba:    f7ffffd8    ....    BL       delayus ; 0x346e
        0x000034be:    9800        ..      LDR      r0,[sp,#0]
        0x000034c0:    bd08        ..      POP      {r3,pc}
    ack
        0x000034c2:    b510        ..      PUSH     {r4,lr}
        0x000034c4:    48ae        .H      LDR      r0,[pc,#696] ; [0x3780] = 0x5000434c
        0x000034c6:    f000f9a8    ....    BL       GPIO_CLR_PIN ; 0x381a
        0x000034ca:    2003        .       MOVS     r0,#3
        0x000034cc:    f7ffffcf    ....    BL       delayus ; 0x346e
        0x000034d0:    48ab        .H      LDR      r0,[pc,#684] ; [0x3780] = 0x5000434c
        0x000034d2:    1f00        ..      SUBS     r0,r0,#4
        0x000034d4:    f000f9a1    ....    BL       GPIO_CLR_PIN ; 0x381a
        0x000034d8:    2003        .       MOVS     r0,#3
        0x000034da:    f7ffffc8    ....    BL       delayus ; 0x346e
        0x000034de:    48a8        .H      LDR      r0,[pc,#672] ; [0x3780] = 0x5000434c
        0x000034e0:    f000f998    ....    BL       GPIO_SET_PIN ; 0x3814
        0x000034e4:    2006        .       MOVS     r0,#6
        0x000034e6:    f7ffffc2    ....    BL       delayus ; 0x346e
        0x000034ea:    48a5        .H      LDR      r0,[pc,#660] ; [0x3780] = 0x5000434c
        0x000034ec:    f000f995    ....    BL       GPIO_CLR_PIN ; 0x381a
        0x000034f0:    2006        .       MOVS     r0,#6
        0x000034f2:    f7ffffbc    ....    BL       delayus ; 0x346e
        0x000034f6:    48a2        .H      LDR      r0,[pc,#648] ; [0x3780] = 0x5000434c
        0x000034f8:    1f00        ..      SUBS     r0,r0,#4
        0x000034fa:    f000f98b    ....    BL       GPIO_SET_PIN ; 0x3814
        0x000034fe:    2003        .       MOVS     r0,#3
        0x00003500:    f7ffffb5    ....    BL       delayus ; 0x346e
        0x00003504:    bd10        ..      POP      {r4,pc}
    nack
        0x00003506:    b510        ..      PUSH     {r4,lr}
        0x00003508:    489d        .H      LDR      r0,[pc,#628] ; [0x3780] = 0x5000434c
        0x0000350a:    f000f986    ....    BL       GPIO_CLR_PIN ; 0x381a
        0x0000350e:    2003        .       MOVS     r0,#3
        0x00003510:    f7ffffad    ....    BL       delayus ; 0x346e
        0x00003514:    489a        .H      LDR      r0,[pc,#616] ; [0x3780] = 0x5000434c
        0x00003516:    1f00        ..      SUBS     r0,r0,#4
        0x00003518:    f000f97c    ..|.    BL       GPIO_SET_PIN ; 0x3814
        0x0000351c:    2003        .       MOVS     r0,#3
        0x0000351e:    f7ffffa6    ....    BL       delayus ; 0x346e
        0x00003522:    4897        .H      LDR      r0,[pc,#604] ; [0x3780] = 0x5000434c
        0x00003524:    f000f976    ..v.    BL       GPIO_SET_PIN ; 0x3814
        0x00003528:    2006        .       MOVS     r0,#6
        0x0000352a:    f7ffffa0    ....    BL       delayus ; 0x346e
        0x0000352e:    4894        .H      LDR      r0,[pc,#592] ; [0x3780] = 0x5000434c
        0x00003530:    f000f973    ..s.    BL       GPIO_CLR_PIN ; 0x381a
        0x00003534:    2006        .       MOVS     r0,#6
        0x00003536:    f7ffff9a    ....    BL       delayus ; 0x346e
        0x0000353a:    4891        .H      LDR      r0,[pc,#580] ; [0x3780] = 0x5000434c
        0x0000353c:    1f00        ..      SUBS     r0,r0,#4
        0x0000353e:    f000f969    ..i.    BL       GPIO_SET_PIN ; 0x3814
        0x00003542:    2003        .       MOVS     r0,#3
        0x00003544:    f7ffff93    ....    BL       delayus ; 0x346e
        0x00003548:    bd10        ..      POP      {r4,pc}
    i2cRestart
        0x0000354a:    b510        ..      PUSH     {r4,lr}
        0x0000354c:    488c        .H      LDR      r0,[pc,#560] ; [0x3780] = 0x5000434c
        0x0000354e:    f000f964    ..d.    BL       GPIO_CLR_PIN ; 0x381a
        0x00003552:    2006        .       MOVS     r0,#6
        0x00003554:    f7ffff8b    ....    BL       delayus ; 0x346e
        0x00003558:    4889        .H      LDR      r0,[pc,#548] ; [0x3780] = 0x5000434c
        0x0000355a:    1f00        ..      SUBS     r0,r0,#4
        0x0000355c:    f000f95a    ..Z.    BL       GPIO_SET_PIN ; 0x3814
        0x00003560:    203c        <       MOVS     r0,#0x3c
        0x00003562:    f7ffff84    ....    BL       delayus ; 0x346e
        0x00003566:    4886        .H      LDR      r0,[pc,#536] ; [0x3780] = 0x5000434c
        0x00003568:    f000f954    ..T.    BL       GPIO_SET_PIN ; 0x3814
        0x0000356c:    2006        .       MOVS     r0,#6
        0x0000356e:    f7ffff7e    ..~.    BL       delayus ; 0x346e
        0x00003572:    4883        .H      LDR      r0,[pc,#524] ; [0x3780] = 0x5000434c
        0x00003574:    1f00        ..      SUBS     r0,r0,#4
        0x00003576:    f000f950    ..P.    BL       GPIO_CLR_PIN ; 0x381a
        0x0000357a:    2006        .       MOVS     r0,#6
        0x0000357c:    f7ffff77    ..w.    BL       delayus ; 0x346e
        0x00003580:    487f        .H      LDR      r0,[pc,#508] ; [0x3780] = 0x5000434c
        0x00003582:    f000f94a    ..J.    BL       GPIO_CLR_PIN ; 0x381a
        0x00003586:    2006        .       MOVS     r0,#6
        0x00003588:    f7ffff71    ..q.    BL       delayus ; 0x346e
        0x0000358c:    bd10        ..      POP      {r4,pc}
    i2cStop
        0x0000358e:    b510        ..      PUSH     {r4,lr}
        0x00003590:    487b        {H      LDR      r0,[pc,#492] ; [0x3780] = 0x5000434c
        0x00003592:    1f00        ..      SUBS     r0,r0,#4
        0x00003594:    f000f941    ..A.    BL       GPIO_CLR_PIN ; 0x381a
        0x00003598:    2006        .       MOVS     r0,#6
        0x0000359a:    f7ffff68    ..h.    BL       delayus ; 0x346e
        0x0000359e:    4878        xH      LDR      r0,[pc,#480] ; [0x3780] = 0x5000434c
        0x000035a0:    f000f938    ..8.    BL       GPIO_SET_PIN ; 0x3814
        0x000035a4:    2006        .       MOVS     r0,#6
        0x000035a6:    f7ffff62    ..b.    BL       delayus ; 0x346e
        0x000035aa:    4875        uH      LDR      r0,[pc,#468] ; [0x3780] = 0x5000434c
        0x000035ac:    1f00        ..      SUBS     r0,r0,#4
        0x000035ae:    f000f931    ..1.    BL       GPIO_SET_PIN ; 0x3814
        0x000035b2:    2006        .       MOVS     r0,#6
        0x000035b4:    f7ffff5b    ..[.    BL       delayus ; 0x346e
        0x000035b8:    bd10        ..      POP      {r4,pc}
    i2cWriteByte
        0x000035ba:    b570        p.      PUSH     {r4-r6,lr}
        0x000035bc:    4606        .F      MOV      r6,r0
        0x000035be:    2480        .$      MOVS     r4,#0x80
        0x000035c0:    2500        .%      MOVS     r5,#0
        0x000035c2:    e01c        ..      B        0x35fe ; i2cWriteByte + 68
        0x000035c4:    486e        nH      LDR      r0,[pc,#440] ; [0x3780] = 0x5000434c
        0x000035c6:    f000f928    ..(.    BL       GPIO_CLR_PIN ; 0x381a
        0x000035ca:    2003        .       MOVS     r0,#3
        0x000035cc:    f7ffff4f    ..O.    BL       delayus ; 0x346e
        0x000035d0:    4630        0F      MOV      r0,r6
        0x000035d2:    4220         B      TST      r0,r4
        0x000035d4:    d004        ..      BEQ      0x35e0 ; i2cWriteByte + 38
        0x000035d6:    486a        jH      LDR      r0,[pc,#424] ; [0x3780] = 0x5000434c
        0x000035d8:    1f00        ..      SUBS     r0,r0,#4
        0x000035da:    f000f91b    ....    BL       GPIO_SET_PIN ; 0x3814
        0x000035de:    e003        ..      B        0x35e8 ; i2cWriteByte + 46
        0x000035e0:    4867        gH      LDR      r0,[pc,#412] ; [0x3780] = 0x5000434c
        0x000035e2:    1f00        ..      SUBS     r0,r0,#4
        0x000035e4:    f000f919    ....    BL       GPIO_CLR_PIN ; 0x381a
        0x000035e8:    2003        .       MOVS     r0,#3
        0x000035ea:    f7ffff40    ..@.    BL       delayus ; 0x346e
        0x000035ee:    4864        dH      LDR      r0,[pc,#400] ; [0x3780] = 0x5000434c
        0x000035f0:    f000f910    ....    BL       GPIO_SET_PIN ; 0x3814
        0x000035f4:    2006        .       MOVS     r0,#6
        0x000035f6:    f7ffff3a    ..:.    BL       delayus ; 0x346e
        0x000035fa:    1064        d.      ASRS     r4,r4,#1
        0x000035fc:    1c6d        m.      ADDS     r5,r5,#1
        0x000035fe:    2d08        .-      CMP      r5,#8
        0x00003600:    d3e0        ..      BCC      0x35c4 ; i2cWriteByte + 10
        0x00003602:    bd70        p.      POP      {r4-r6,pc}
    i2cReadByte
        0x00003604:    b570        p.      PUSH     {r4-r6,lr}
        0x00003606:    2600        .&      MOVS     r6,#0
        0x00003608:    2480        .$      MOVS     r4,#0x80
        0x0000360a:    2500        .%      MOVS     r5,#0
        0x0000360c:    e016        ..      B        0x363c ; i2cReadByte + 56
        0x0000360e:    485c        \H      LDR      r0,[pc,#368] ; [0x3780] = 0x5000434c
        0x00003610:    f000f903    ....    BL       GPIO_CLR_PIN ; 0x381a
        0x00003614:    2006        .       MOVS     r0,#6
        0x00003616:    f7ffff2a    ..*.    BL       delayus ; 0x346e
        0x0000361a:    4859        YH      LDR      r0,[pc,#356] ; [0x3780] = 0x5000434c
        0x0000361c:    f000f8fa    ....    BL       GPIO_SET_PIN ; 0x3814
        0x00003620:    2006        .       MOVS     r0,#6
        0x00003622:    f7ffff24    ..$.    BL       delayus ; 0x346e
        0x00003626:    bf00        ..      NOP      
        0x00003628:    4855        UH      LDR      r0,[pc,#340] ; [0x3780] = 0x5000434c
        0x0000362a:    1f00        ..      SUBS     r0,r0,#4
        0x0000362c:    6800        .h      LDR      r0,[r0,#0]
        0x0000362e:    2800        .(      CMP      r0,#0
        0x00003630:    d002        ..      BEQ      0x3638 ; i2cReadByte + 52
        0x00003632:    4630        0F      MOV      r0,r6
        0x00003634:    4320         C      ORRS     r0,r0,r4
        0x00003636:    4606        .F      MOV      r6,r0
        0x00003638:    1064        d.      ASRS     r4,r4,#1
        0x0000363a:    1c6d        m.      ADDS     r5,r5,#1
        0x0000363c:    2d08        .-      CMP      r5,#8
        0x0000363e:    d3e6        ..      BCC      0x360e ; i2cReadByte + 10
        0x00003640:    4630        0F      MOV      r0,r6
        0x00003642:    bd70        p.      POP      {r4-r6,pc}
    i2cStart
        0x00003644:    b510        ..      PUSH     {r4,lr}
        0x00003646:    4604        .F      MOV      r4,r0
        0x00003648:    4849        IH      LDR      r0,[pc,#292] ; [0x3770] = 0x40020000
        0x0000364a:    f000f8f5    ....    BL       I2C_DISABLE_I2C ; 0x3838
        0x0000364e:    4848        HH      LDR      r0,[pc,#288] ; [0x3770] = 0x40020000
        0x00003650:    f000f90f    ....    BL       I2C_DISABLE_TOC ; 0x3872
        0x00003654:    4848        HH      LDR      r0,[pc,#288] ; [0x3778] = 0x50000040
        0x00003656:    6840        @h      LDR      r0,[r0,#4]
        0x00003658:    210c        .!      MOVS     r1,#0xc
        0x0000365a:    4388        .C      BICS     r0,r0,r1
        0x0000365c:    4946        FI      LDR      r1,[pc,#280] ; [0x3778] = 0x50000040
        0x0000365e:    6048        H`      STR      r0,[r1,#4]
        0x00003660:    4608        .F      MOV      r0,r1
        0x00003662:    6940        @i      LDR      r0,[r0,#0x14]
        0x00003664:    210f        .!      MOVS     r1,#0xf
        0x00003666:    0609        ..      LSLS     r1,r1,#24
        0x00003668:    4388        .C      BICS     r0,r0,r1
        0x0000366a:    4943        CI      LDR      r1,[pc,#268] ; [0x3778] = 0x50000040
        0x0000366c:    6148        Ha      STR      r0,[r1,#0x14]
        0x0000366e:    4844        DH      LDR      r0,[pc,#272] ; [0x3780] = 0x5000434c
        0x00003670:    1f00        ..      SUBS     r0,r0,#4
        0x00003672:    f000f8cf    ....    BL       GPIO_SET_PIN ; 0x3814
        0x00003676:    4842        BH      LDR      r0,[pc,#264] ; [0x3780] = 0x5000434c
        0x00003678:    f000f8cc    ....    BL       GPIO_SET_PIN ; 0x3814
        0x0000367c:    2202        ."      MOVS     r2,#2
        0x0000367e:    4611        .F      MOV      r1,r2
        0x00003680:    483c        <H      LDR      r0,[pc,#240] ; [0x3774] = 0x50004140
        0x00003682:    f7fffc5d    ..].    BL       GPIO_SET_MODE ; 0x2f40
        0x00003686:    2202        ."      MOVS     r2,#2
        0x00003688:    2103        .!      MOVS     r1,#3
        0x0000368a:    483a        :H      LDR      r0,[pc,#232] ; [0x3774] = 0x50004140
        0x0000368c:    f7fffc58    ..X.    BL       GPIO_SET_MODE ; 0x2f40
        0x00003690:    200a        .       MOVS     r0,#0xa
        0x00003692:    f7fffeec    ....    BL       delayus ; 0x346e
        0x00003696:    483a        :H      LDR      r0,[pc,#232] ; [0x3780] = 0x5000434c
        0x00003698:    1f00        ..      SUBS     r0,r0,#4
        0x0000369a:    f000f8be    ....    BL       GPIO_CLR_PIN ; 0x381a
        0x0000369e:    2014        .       MOVS     r0,#0x14
        0x000036a0:    f7fffee5    ....    BL       delayus ; 0x346e
        0x000036a4:    4620         F      MOV      r0,r4
        0x000036a6:    f7ffff88    ....    BL       i2cWriteByte ; 0x35ba
        0x000036aa:    f7fffee6    ....    BL       i2cAck ; 0x347a
        0x000036ae:    2800        .(      CMP      r0,#0
        0x000036b0:    d001        ..      BEQ      0x36b6 ; i2cStart + 114
        0x000036b2:    2001        .       MOVS     r0,#1
        0x000036b4:    bd10        ..      POP      {r4,pc}
        0x000036b6:    2000        .       MOVS     r0,#0
        0x000036b8:    e7fc        ..      B        0x36b4 ; i2cStart + 112
    readBuf
        0x000036ba:    b5f8        ..      PUSH     {r3-r7,lr}
        0x000036bc:    4605        .F      MOV      r5,r0
        0x000036be:    460e        .F      MOV      r6,r1
        0x000036c0:    4617        .F      MOV      r7,r2
        0x000036c2:    2000        .       MOVS     r0,#0
        0x000036c4:    492f        /I      LDR      r1,[pc,#188] ; [0x3784] = 0x2000014c
        0x000036c6:    6008        .`      STR      r0,[r1,#0]
        0x000036c8:    482f        /H      LDR      r0,[pc,#188] ; [0x3788] = 0x20000150
        0x000036ca:    7800        .x      LDRB     r0,[r0,#0]
        0x000036cc:    f7ffffba    ....    BL       i2cStart ; 0x3644
        0x000036d0:    2800        .(      CMP      r0,#0
        0x000036d2:    d161        a.      BNE      0x3798 ; readBuf + 222
        0x000036d4:    200a        .       MOVS     r0,#0xa
        0x000036d6:    f7fffeca    ....    BL       delayus ; 0x346e
        0x000036da:    21ff        .!      MOVS     r1,#0xff
        0x000036dc:    0209        ..      LSLS     r1,r1,#8
        0x000036de:    4031        1@      ANDS     r1,r1,r6
        0x000036e0:    0a08        ..      LSRS     r0,r1,#8
        0x000036e2:    f7ffff6a    ..j.    BL       i2cWriteByte ; 0x35ba
        0x000036e6:    f7fffec8    ....    BL       i2cAck ; 0x347a
        0x000036ea:    2801        .(      CMP      r0,#1
        0x000036ec:    d104        ..      BNE      0x36f8 ; readBuf + 62
        0x000036ee:    4925        %I      LDR      r1,[pc,#148] ; [0x3784] = 0x2000014c
        0x000036f0:    6008        .`      STR      r0,[r1,#0]
        0x000036f2:    f7ffff4c    ..L.    BL       i2cStop ; 0x358e
        0x000036f6:    bdf8        ..      POP      {r3-r7,pc}
        0x000036f8:    200a        .       MOVS     r0,#0xa
        0x000036fa:    f7fffeb8    ....    BL       delayus ; 0x346e
        0x000036fe:    b2f0        ..      UXTB     r0,r6
        0x00003700:    f7ffff5b    ..[.    BL       i2cWriteByte ; 0x35ba
        0x00003704:    f7fffeb9    ....    BL       i2cAck ; 0x347a
        0x00003708:    2801        .(      CMP      r0,#1
        0x0000370a:    d104        ..      BNE      0x3716 ; readBuf + 92
        0x0000370c:    491d        .I      LDR      r1,[pc,#116] ; [0x3784] = 0x2000014c
        0x0000370e:    6008        .`      STR      r0,[r1,#0]
        0x00003710:    f7ffff3d    ..=.    BL       i2cStop ; 0x358e
        0x00003714:    e7ef        ..      B        0x36f6 ; readBuf + 60
        0x00003716:    200a        .       MOVS     r0,#0xa
        0x00003718:    f7fffea9    ....    BL       delayus ; 0x346e
        0x0000371c:    f7ffff15    ....    BL       i2cRestart ; 0x354a
        0x00003720:    4919        .I      LDR      r1,[pc,#100] ; [0x3788] = 0x20000150
        0x00003722:    7809        .x      LDRB     r1,[r1,#0]
        0x00003724:    2201        ."      MOVS     r2,#1
        0x00003726:    4311        .C      ORRS     r1,r1,r2
        0x00003728:    4608        .F      MOV      r0,r1
        0x0000372a:    f7ffff46    ..F.    BL       i2cWriteByte ; 0x35ba
        0x0000372e:    f7fffea4    ....    BL       i2cAck ; 0x347a
        0x00003732:    2800        .(      CMP      r0,#0
        0x00003734:    d12a        *.      BNE      0x378c ; readBuf + 210
        0x00003736:    2400        .$      MOVS     r4,#0
        0x00003738:    e008        ..      B        0x374c ; readBuf + 146
        0x0000373a:    20fa        .       MOVS     r0,#0xfa
        0x0000373c:    f7fffe97    ....    BL       delayus ; 0x346e
        0x00003740:    f7ffff60    ..`.    BL       i2cReadByte ; 0x3604
        0x00003744:    5528        (U      STRB     r0,[r5,r4]
        0x00003746:    f7fffebc    ....    BL       ack ; 0x34c2
        0x0000374a:    1c64        d.      ADDS     r4,r4,#1
        0x0000374c:    1e78        x.      SUBS     r0,r7,#1
        0x0000374e:    42a0        .B      CMP      r0,r4
        0x00003750:    d8f3        ..      BHI      0x373a ; readBuf + 128
        0x00003752:    20fa        .       MOVS     r0,#0xfa
        0x00003754:    f7fffe8b    ....    BL       delayus ; 0x346e
        0x00003758:    f7ffff54    ..T.    BL       i2cReadByte ; 0x3604
        0x0000375c:    5528        (U      STRB     r0,[r5,r4]
        0x0000375e:    f7fffed2    ....    BL       nack ; 0x3506
        0x00003762:    f7ffff14    ....    BL       i2cStop ; 0x358e
        0x00003766:    e7c6        ..      B        0x36f6 ; readBuf + 60
    $d
        0x00003768:    2000015c    \..     DCD    536871260
        0x0000376c:    20000152    R..     DCD    536871250
        0x00003770:    40020000    ...@    DCD    1073872896
        0x00003774:    50004140    @A.P    DCD    1342193984
        0x00003778:    50000040    @..P    DCD    1342177344
        0x0000377c:    0000c350    P...    DCD    50000
        0x00003780:    5000434c    LC.P    DCD    1342194508
        0x00003784:    2000014c    L..     DCD    536871244
        0x00003788:    20000150    P..     DCD    536871248
    $t
        0x0000378c:    2001        .       MOVS     r0,#1
        0x0000378e:    493b        ;I      LDR      r1,[pc,#236] ; [0x387c] = 0x2000014c
        0x00003790:    6008        .`      STR      r0,[r1,#0]
        0x00003792:    f7fffefc    ....    BL       i2cStop ; 0x358e
        0x00003796:    e004        ..      B        0x37a2 ; readBuf + 232
        0x00003798:    2001        .       MOVS     r0,#1
        0x0000379a:    4938        8I      LDR      r1,[pc,#224] ; [0x387c] = 0x2000014c
        0x0000379c:    6008        .`      STR      r0,[r1,#0]
        0x0000379e:    f7fffef6    ....    BL       i2cStop ; 0x358e
        0x000037a2:    bf00        ..      NOP      
        0x000037a4:    e7a7        ..      B        0x36f6 ; readBuf + 60
    NVIC_SetPriority
        0x000037a6:    b510        ..      PUSH     {r4,lr}
        0x000037a8:    2800        .(      CMP      r0,#0
        0x000037aa:    da19        ..      BGE      0x37e0 ; NVIC_SetPriority + 58
        0x000037ac:    4a34        4J      LDR      r2,[pc,#208] ; [0x3880] = 0xe000ed1c
        0x000037ae:    0703        ..      LSLS     r3,r0,#28
        0x000037b0:    0f1b        ..      LSRS     r3,r3,#28
        0x000037b2:    3b08        .;      SUBS     r3,r3,#8
        0x000037b4:    089b        ..      LSRS     r3,r3,#2
        0x000037b6:    009b        ..      LSLS     r3,r3,#2
        0x000037b8:    58d2        .X      LDR      r2,[r2,r3]
        0x000037ba:    0783        ..      LSLS     r3,r0,#30
        0x000037bc:    0edc        ..      LSRS     r4,r3,#27
        0x000037be:    23ff        .#      MOVS     r3,#0xff
        0x000037c0:    40a3        .@      LSLS     r3,r3,r4
        0x000037c2:    439a        .C      BICS     r2,r2,r3
        0x000037c4:    078b        ..      LSLS     r3,r1,#30
        0x000037c6:    0e1b        ..      LSRS     r3,r3,#24
        0x000037c8:    0784        ..      LSLS     r4,r0,#30
        0x000037ca:    0ee4        ..      LSRS     r4,r4,#27
        0x000037cc:    40a3        .@      LSLS     r3,r3,r4
        0x000037ce:    431a        .C      ORRS     r2,r2,r3
        0x000037d0:    4b2b        +K      LDR      r3,[pc,#172] ; [0x3880] = 0xe000ed1c
        0x000037d2:    0704        ..      LSLS     r4,r0,#28
        0x000037d4:    0f24        $.      LSRS     r4,r4,#28
        0x000037d6:    3c08        .<      SUBS     r4,r4,#8
        0x000037d8:    08a4        ..      LSRS     r4,r4,#2
        0x000037da:    00a4        ..      LSLS     r4,r4,#2
        0x000037dc:    511a        .Q      STR      r2,[r3,r4]
        0x000037de:    e018        ..      B        0x3812 ; NVIC_SetPriority + 108
        0x000037e0:    4a28        (J      LDR      r2,[pc,#160] ; [0x3884] = 0xe000e100
        0x000037e2:    2303        .#      MOVS     r3,#3
        0x000037e4:    021b        ..      LSLS     r3,r3,#8
        0x000037e6:    18d2        ..      ADDS     r2,r2,r3
        0x000037e8:    0883        ..      LSRS     r3,r0,#2
        0x000037ea:    009b        ..      LSLS     r3,r3,#2
        0x000037ec:    58d2        .X      LDR      r2,[r2,r3]
        0x000037ee:    0783        ..      LSLS     r3,r0,#30
        0x000037f0:    0edc        ..      LSRS     r4,r3,#27
        0x000037f2:    23ff        .#      MOVS     r3,#0xff
        0x000037f4:    40a3        .@      LSLS     r3,r3,r4
        0x000037f6:    439a        .C      BICS     r2,r2,r3
        0x000037f8:    078b        ..      LSLS     r3,r1,#30
        0x000037fa:    0e1b        ..      LSRS     r3,r3,#24
        0x000037fc:    0784        ..      LSLS     r4,r0,#30
        0x000037fe:    0ee4        ..      LSRS     r4,r4,#27
        0x00003800:    40a3        .@      LSLS     r3,r3,r4
        0x00003802:    431a        .C      ORRS     r2,r2,r3
        0x00003804:    4b1f        .K      LDR      r3,[pc,#124] ; [0x3884] = 0xe000e100
        0x00003806:    2403        .$      MOVS     r4,#3
        0x00003808:    0224        $.      LSLS     r4,r4,#8
        0x0000380a:    191b        ..      ADDS     r3,r3,r4
        0x0000380c:    0884        ..      LSRS     r4,r0,#2
        0x0000380e:    00a4        ..      LSLS     r4,r4,#2
        0x00003810:    511a        .Q      STR      r2,[r3,r4]
        0x00003812:    bd10        ..      POP      {r4,pc}
    GPIO_SET_PIN
        0x00003814:    2101        .!      MOVS     r1,#1
        0x00003816:    6001        .`      STR      r1,[r0,#0]
        0x00003818:    4770        pG      BX       lr
    GPIO_CLR_PIN
        0x0000381a:    2100        .!      MOVS     r1,#0
        0x0000381c:    6001        .`      STR      r1,[r0,#0]
        0x0000381e:    4770        pG      BX       lr
    I2C_START
        0x00003820:    6801        .h      LDR      r1,[r0,#0]
        0x00003822:    2210        ."      MOVS     r2,#0x10
        0x00003824:    4391        .C      BICS     r1,r1,r2
        0x00003826:    2228        ("      MOVS     r2,#0x28
        0x00003828:    4311        .C      ORRS     r1,r1,r2
        0x0000382a:    6001        .`      STR      r1,[r0,#0]
        0x0000382c:    4770        pG      BX       lr
    I2C_STOP
        0x0000382e:    6801        .h      LDR      r1,[r0,#0]
        0x00003830:    2218        ."      MOVS     r2,#0x18
        0x00003832:    4311        .C      ORRS     r1,r1,r2
        0x00003834:    6001        .`      STR      r1,[r0,#0]
        0x00003836:    4770        pG      BX       lr
    I2C_DISABLE_I2C
        0x00003838:    6801        .h      LDR      r1,[r0,#0]
        0x0000383a:    2240        @"      MOVS     r2,#0x40
        0x0000383c:    4391        .C      BICS     r1,r1,r2
        0x0000383e:    6001        .`      STR      r1,[r0,#0]
        0x00003840:    4770        pG      BX       lr
    I2C_CLEAR_SI
        0x00003842:    6801        .h      LDR      r1,[r0,#0]
        0x00003844:    2230        0"      MOVS     r2,#0x30
        0x00003846:    4391        .C      BICS     r1,r1,r2
        0x00003848:    2208        ."      MOVS     r2,#8
        0x0000384a:    4311        .C      ORRS     r1,r1,r2
        0x0000384c:    6001        .`      STR      r1,[r0,#0]
        0x0000384e:    4770        pG      BX       lr
    I2C_SET_AA
        0x00003850:    6801        .h      LDR      r1,[r0,#0]
        0x00003852:    2204        ."      MOVS     r2,#4
        0x00003854:    4311        .C      ORRS     r1,r1,r2
        0x00003856:    6001        .`      STR      r1,[r0,#0]
        0x00003858:    4770        pG      BX       lr
    I2C_CLEAR_AA
        0x0000385a:    6801        .h      LDR      r1,[r0,#0]
        0x0000385c:    2204        ."      MOVS     r2,#4
        0x0000385e:    4391        .C      BICS     r1,r1,r2
        0x00003860:    6001        .`      STR      r1,[r0,#0]
        0x00003862:    4770        pG      BX       lr
    I2C_SET_DATA
        0x00003864:    6081        .`      STR      r1,[r0,#8]
        0x00003866:    4770        pG      BX       lr
    I2C_ENABLE_TOC
        0x00003868:    6941        Ai      LDR      r1,[r0,#0x14]
        0x0000386a:    2204        ."      MOVS     r2,#4
        0x0000386c:    4311        .C      ORRS     r1,r1,r2
        0x0000386e:    6141        Aa      STR      r1,[r0,#0x14]
        0x00003870:    4770        pG      BX       lr
    I2C_DISABLE_TOC
        0x00003872:    6941        Ai      LDR      r1,[r0,#0x14]
        0x00003874:    2204        ."      MOVS     r2,#4
        0x00003876:    4391        .C      BICS     r1,r1,r2
        0x00003878:    6141        Aa      STR      r1,[r0,#0x14]
        0x0000387a:    4770        pG      BX       lr
    $d
        0x0000387c:    2000014c    L..     DCD    536871244
        0x00003880:    e000ed1c    ....    DCD    3758157084
        0x00003884:    e000e100    ....    DCD    3758153984
    $t
    .text
    GPIO_DisableInt
        0x00003888:    6982        .i      LDR      r2,[r0,#0x18]
        0x0000388a:    2301        .#      MOVS     r3,#1
        0x0000388c:    408b        .@      LSLS     r3,r3,r1
        0x0000388e:    439a        .C      BICS     r2,r2,r3
        0x00003890:    6182        .a      STR      r2,[r0,#0x18]
        0x00003892:    69c3        .i      LDR      r3,[r0,#0x1c]
        0x00003894:    4ac5        .J      LDR      r2,[pc,#788] ; [0x3bac] = 0x10001
        0x00003896:    408a        .@      LSLS     r2,r2,r1
        0x00003898:    4393        .C      BICS     r3,r3,r2
        0x0000389a:    61c3        .a      STR      r3,[r0,#0x1c]
        0x0000389c:    4770        pG      BX       lr
    sysResume
        0x0000389e:    4770        pG      BX       lr
    sysStore
        0x000038a0:    4770        pG      BX       lr
    resetHook
        0x000038a2:    4770        pG      BX       lr
    dealPowerKey
        0x000038a4:    4770        pG      BX       lr
    doPowerOff
        0x000038a6:    4770        pG      BX       lr
    powerOff
        0x000038a8:    4770        pG      BX       lr
    timerInit
        0x000038aa:    b510        ..      PUSH     {r4,lr}
        0x000038ac:    2000        .       MOVS     r0,#0
        0x000038ae:    49c0        .I      LDR      r1,[pc,#768] ; [0x3bb0] = 0x50000200
        0x000038b0:    6949        Ii      LDR      r1,[r1,#0x14]
        0x000038b2:    2207        ."      MOVS     r2,#7
        0x000038b4:    0212        ..      LSLS     r2,r2,#8
        0x000038b6:    4391        .C      BICS     r1,r1,r2
        0x000038b8:    4301        .C      ORRS     r1,r1,r0
        0x000038ba:    4abd        .J      LDR      r2,[pc,#756] ; [0x3bb0] = 0x50000200
        0x000038bc:    6151        Qa      STR      r1,[r2,#0x14]
        0x000038be:    bf00        ..      NOP      
        0x000038c0:    04d3        ..      LSLS     r3,r2,#19
        0x000038c2:    220a        ."      MOVS     r2,#0xa
        0x000038c4:    2115        .!      MOVS     r1,#0x15
        0x000038c6:    48bb        .H      LDR      r0,[pc,#748] ; [0x3bb4] = 0x40010000
        0x000038c8:    f7fdfc04    ....    BL       DrvTIMER_Init ; 0x10d4
        0x000038cc:    2101        .!      MOVS     r1,#1
        0x000038ce:    0749        I.      LSLS     r1,r1,#29
        0x000038d0:    48b8        .H      LDR      r0,[pc,#736] ; [0x3bb4] = 0x40010000
        0x000038d2:    f7fdfc57    ..W.    BL       DrvTIMER_EnableInt ; 0x1184
        0x000038d6:    bf00        ..      NOP      
        0x000038d8:    48b6        .H      LDR      r0,[pc,#728] ; [0x3bb4] = 0x40010000
        0x000038da:    6800        .h      LDR      r0,[r0,#0]
        0x000038dc:    2101        .!      MOVS     r1,#1
        0x000038de:    0789        ..      LSLS     r1,r1,#30
        0x000038e0:    4308        .C      ORRS     r0,r0,r1
        0x000038e2:    49b4        .I      LDR      r1,[pc,#720] ; [0x3bb4] = 0x40010000
        0x000038e4:    6008        .`      STR      r0,[r1,#0]
        0x000038e6:    bf00        ..      NOP      
        0x000038e8:    bd10        ..      POP      {r4,pc}
    set_p
        0x000038ea:    2055        U       MOVS     r0,#0x55
        0x000038ec:    49b2        .I      LDR      r1,[pc,#712] ; [0x3bb8] = 0x200001b4
        0x000038ee:    6008        .`      STR      r0,[r1,#0]
        0x000038f0:    4770        pG      BX       lr
    ampInit1
        0x000038f2:    4770        pG      BX       lr
    powerOn
        0x000038f4:    4770        pG      BX       lr
    outStandby
        0x000038f6:    48b1        .H      LDR      r0,[pc,#708] ; [0x3bbc] = 0x20000565
        0x000038f8:    7800        .x      LDRB     r0,[r0,#0]
        0x000038fa:    2800        .(      CMP      r0,#0
        0x000038fc:    d002        ..      BEQ      0x3904 ; outStandby + 14
        0x000038fe:    2001        .       MOVS     r0,#1
        0x00003900:    49ae        .I      LDR      r1,[pc,#696] ; [0x3bbc] = 0x20000565
        0x00003902:    7008        .p      STRB     r0,[r1,#0]
        0x00003904:    4770        pG      BX       lr
    enterStandby
        0x00003906:    4770        pG      BX       lr
    WDT_IRQHandler
        0x00003908:    b510        ..      PUSH     {r4,lr}
        0x0000390a:    a0ad        ..      ADR      r0,{pc}+0x2b6 ; 0x3bc0
        0x0000390c:    f7fef8ca    ....    BL       iputs ; 0x1aa4
        0x00003910:    48ae        .H      LDR      r0,[pc,#696] ; [0x3bcc] = 0x40004000
        0x00003912:    6800        .h      LDR      r0,[r0,#0]
        0x00003914:    2108        .!      MOVS     r1,#8
        0x00003916:    4208        .B      TST      r0,r1
        0x00003918:    d009        ..      BEQ      0x392e ; WDT_IRQHandler + 38
        0x0000391a:    f000f925    ..%.    BL       SYS_UnlockReg ; 0x3b68
        0x0000391e:    48ab        .H      LDR      r0,[pc,#684] ; [0x3bcc] = 0x40004000
        0x00003920:    6800        .h      LDR      r0,[r0,#0]
        0x00003922:    2108        .!      MOVS     r1,#8
        0x00003924:    4308        .C      ORRS     r0,r0,r1
        0x00003926:    49a9        .I      LDR      r1,[pc,#676] ; [0x3bcc] = 0x40004000
        0x00003928:    6008        .`      STR      r0,[r1,#0]
        0x0000392a:    f000f925    ..%.    BL       SYS_LockReg ; 0x3b78
        0x0000392e:    bd10        ..      POP      {r4,pc}
    WDTInit
        0x00003930:    b510        ..      PUSH     {r4,lr}
        0x00003932:    2201        ."      MOVS     r2,#1
        0x00003934:    2103        .!      MOVS     r1,#3
        0x00003936:    2005        .       MOVS     r0,#5
        0x00003938:    f7fdfc82    ....    BL       DrvWDT_Init ; 0x1240
        0x0000393c:    f000f914    ....    BL       SYS_UnlockReg ; 0x3b68
        0x00003940:    f000f92c    ..,.    BL       WDT_TIMER_RESET ; 0x3b9c
        0x00003944:    f000f91c    ....    BL       WDT_ENABLE_COUNTING ; 0x3b80
        0x00003948:    f000f921    ..!.    BL       WDT_CLEAR_RESET_FLAG ; 0x3b8e
        0x0000394c:    bf00        ..      NOP      
        0x0000394e:    489f        .H      LDR      r0,[pc,#636] ; [0x3bcc] = 0x40004000
        0x00003950:    6800        .h      LDR      r0,[r0,#0]
        0x00003952:    2110        .!      MOVS     r1,#0x10
        0x00003954:    4388        .C      BICS     r0,r0,r1
        0x00003956:    499d        .I      LDR      r1,[pc,#628] ; [0x3bcc] = 0x40004000
        0x00003958:    6008        .`      STR      r0,[r1,#0]
        0x0000395a:    bf00        ..      NOP      
        0x0000395c:    bf00        ..      NOP      
        0x0000395e:    4608        .F      MOV      r0,r1
        0x00003960:    6800        .h      LDR      r0,[r0,#0]
        0x00003962:    2102        .!      MOVS     r1,#2
        0x00003964:    4308        .C      ORRS     r0,r0,r1
        0x00003966:    4999        .I      LDR      r1,[pc,#612] ; [0x3bcc] = 0x40004000
        0x00003968:    6008        .`      STR      r0,[r1,#0]
        0x0000396a:    bf00        ..      NOP      
        0x0000396c:    f000f904    ....    BL       SYS_LockReg ; 0x3b78
        0x00003970:    f7fdfca0    ....    BL       DrvWDT_EnableInt ; 0x12b4
        0x00003974:    bd10        ..      POP      {r4,pc}
    WDTwake
        0x00003976:    b510        ..      PUSH     {r4,lr}
        0x00003978:    2200        ."      MOVS     r2,#0
        0x0000397a:    2103        .!      MOVS     r1,#3
        0x0000397c:    2006        .       MOVS     r0,#6
        0x0000397e:    f7fdfc5f    .._.    BL       DrvWDT_Init ; 0x1240
        0x00003982:    f7fdfc97    ....    BL       DrvWDT_EnableInt ; 0x12b4
        0x00003986:    f000f8ef    ....    BL       SYS_UnlockReg ; 0x3b68
        0x0000398a:    f000f907    ....    BL       WDT_TIMER_RESET ; 0x3b9c
        0x0000398e:    f000f8f7    ....    BL       WDT_ENABLE_COUNTING ; 0x3b80
        0x00003992:    f000f8fc    ....    BL       WDT_CLEAR_RESET_FLAG ; 0x3b8e
        0x00003996:    bf00        ..      NOP      
        0x00003998:    488c        .H      LDR      r0,[pc,#560] ; [0x3bcc] = 0x40004000
        0x0000399a:    6800        .h      LDR      r0,[r0,#0]
        0x0000399c:    2110        .!      MOVS     r1,#0x10
        0x0000399e:    4308        .C      ORRS     r0,r0,r1
        0x000039a0:    498a        .I      LDR      r1,[pc,#552] ; [0x3bcc] = 0x40004000
        0x000039a2:    6008        .`      STR      r0,[r1,#0]
        0x000039a4:    bf00        ..      NOP      
        0x000039a6:    bf00        ..      NOP      
        0x000039a8:    4608        .F      MOV      r0,r1
        0x000039aa:    6800        .h      LDR      r0,[r0,#0]
        0x000039ac:    2102        .!      MOVS     r1,#2
        0x000039ae:    4388        .C      BICS     r0,r0,r1
        0x000039b0:    4986        .I      LDR      r1,[pc,#536] ; [0x3bcc] = 0x40004000
        0x000039b2:    6008        .`      STR      r0,[r1,#0]
        0x000039b4:    bf00        ..      NOP      
        0x000039b6:    f000f8df    ....    BL       SYS_LockReg ; 0x3b78
        0x000039ba:    bd10        ..      POP      {r4,pc}
    PWRWU_IRQHandler
        0x000039bc:    b510        ..      PUSH     {r4,lr}
        0x000039be:    f000f8d3    ....    BL       SYS_UnlockReg ; 0x3b68
        0x000039c2:    2002        .       MOVS     r0,#2
        0x000039c4:    f000faa6    ....    BL       ledColorSet ; 0x3f14
        0x000039c8:    207d        }       MOVS     r0,#0x7d
        0x000039ca:    0100        ..      LSLS     r0,r0,#4
        0x000039cc:    f7fefc1b    ....    BL       sysDelayMs ; 0x2206
        0x000039d0:    f000f8d2    ....    BL       SYS_LockReg ; 0x3b78
        0x000039d4:    bd10        ..      POP      {r4,pc}
    GPAB_IRQHandler
        0x000039d6:    b510        ..      PUSH     {r4,lr}
        0x000039d8:    210a        .!      MOVS     r1,#0xa
        0x000039da:    487d        }H      LDR      r0,[pc,#500] ; [0x3bd0] = 0x50004040
        0x000039dc:    f000f8ba    ....    BL       GPIO_GET_PIN_IF ; 0x3b54
        0x000039e0:    2800        .(      CMP      r0,#0
        0x000039e2:    d00a        ..      BEQ      0x39fa ; GPAB_IRQHandler + 36
        0x000039e4:    2001        .       MOVS     r0,#1
        0x000039e6:    497b        {I      LDR      r1,[pc,#492] ; [0x3bd4] = 0x20000178
        0x000039e8:    7008        .p      STRB     r0,[r1,#0]
        0x000039ea:    210a        .!      MOVS     r1,#0xa
        0x000039ec:    4878        xH      LDR      r0,[pc,#480] ; [0x3bd0] = 0x50004040
        0x000039ee:    f000f8b7    ....    BL       GPIO_CLR_PIN_IF ; 0x3b60
        0x000039f2:    210a        .!      MOVS     r1,#0xa
        0x000039f4:    4876        vH      LDR      r0,[pc,#472] ; [0x3bd0] = 0x50004040
        0x000039f6:    f7ffff47    ..G.    BL       GPIO_DisableInt ; 0x3888
        0x000039fa:    210f        .!      MOVS     r1,#0xf
        0x000039fc:    4874        tH      LDR      r0,[pc,#464] ; [0x3bd0] = 0x50004040
        0x000039fe:    3840        @8      SUBS     r0,r0,#0x40
        0x00003a00:    f000f8a8    ....    BL       GPIO_GET_PIN_IF ; 0x3b54
        0x00003a04:    2800        .(      CMP      r0,#0
        0x00003a06:    d00c        ..      BEQ      0x3a22 ; GPAB_IRQHandler + 76
        0x00003a08:    2001        .       MOVS     r0,#1
        0x00003a0a:    4972        rI      LDR      r1,[pc,#456] ; [0x3bd4] = 0x20000178
        0x00003a0c:    7008        .p      STRB     r0,[r1,#0]
        0x00003a0e:    210f        .!      MOVS     r1,#0xf
        0x00003a10:    486f        oH      LDR      r0,[pc,#444] ; [0x3bd0] = 0x50004040
        0x00003a12:    3840        @8      SUBS     r0,r0,#0x40
        0x00003a14:    f000f8a4    ....    BL       GPIO_CLR_PIN_IF ; 0x3b60
        0x00003a18:    210f        .!      MOVS     r1,#0xf
        0x00003a1a:    486d        mH      LDR      r0,[pc,#436] ; [0x3bd0] = 0x50004040
        0x00003a1c:    3840        @8      SUBS     r0,r0,#0x40
        0x00003a1e:    f7ffff33    ..3.    BL       GPIO_DisableInt ; 0x3888
        0x00003a22:    210b        .!      MOVS     r1,#0xb
        0x00003a24:    486a        jH      LDR      r0,[pc,#424] ; [0x3bd0] = 0x50004040
        0x00003a26:    3840        @8      SUBS     r0,r0,#0x40
        0x00003a28:    f000f894    ....    BL       GPIO_GET_PIN_IF ; 0x3b54
        0x00003a2c:    2800        .(      CMP      r0,#0
        0x00003a2e:    d016        ..      BEQ      0x3a5e ; GPAB_IRQHandler + 136
        0x00003a30:    2001        .       MOVS     r0,#1
        0x00003a32:    4968        hI      LDR      r1,[pc,#416] ; [0x3bd4] = 0x20000178
        0x00003a34:    7008        .p      STRB     r0,[r1,#0]
        0x00003a36:    4868        hH      LDR      r0,[pc,#416] ; [0x3bd8] = 0xe000e100
        0x00003a38:    6800        .h      LDR      r0,[r0,#0]
        0x00003a3a:    2110        .!      MOVS     r1,#0x10
        0x00003a3c:    4388        .C      BICS     r0,r0,r1
        0x00003a3e:    4966        fI      LDR      r1,[pc,#408] ; [0x3bd8] = 0xe000e100
        0x00003a40:    6008        .`      STR      r0,[r1,#0]
        0x00003a42:    2001        .       MOVS     r0,#1
        0x00003a44:    4965        eI      LDR      r1,[pc,#404] ; [0x3bdc] = 0x20000054
        0x00003a46:    7008        .p      STRB     r0,[r1,#0]
        0x00003a48:    210b        .!      MOVS     r1,#0xb
        0x00003a4a:    4861        aH      LDR      r0,[pc,#388] ; [0x3bd0] = 0x50004040
        0x00003a4c:    3840        @8      SUBS     r0,r0,#0x40
        0x00003a4e:    f000f887    ....    BL       GPIO_CLR_PIN_IF ; 0x3b60
        0x00003a52:    4861        aH      LDR      r0,[pc,#388] ; [0x3bd8] = 0xe000e100
        0x00003a54:    6800        .h      LDR      r0,[r0,#0]
        0x00003a56:    2110        .!      MOVS     r1,#0x10
        0x00003a58:    4308        .C      ORRS     r0,r0,r1
        0x00003a5a:    495f        _I      LDR      r1,[pc,#380] ; [0x3bd8] = 0xe000e100
        0x00003a5c:    6008        .`      STR      r0,[r1,#0]
        0x00003a5e:    bd10        ..      POP      {r4,pc}
    TMR0_IRQHandler
        0x00003a60:    bf00        ..      NOP      
        0x00003a62:    4854        TH      LDR      r0,[pc,#336] ; [0x3bb4] = 0x40010000
        0x00003a64:    6880        .h      LDR      r0,[r0,#8]
        0x00003a66:    2101        .!      MOVS     r1,#1
        0x00003a68:    4308        .C      ORRS     r0,r0,r1
        0x00003a6a:    4952        RI      LDR      r1,[pc,#328] ; [0x3bb4] = 0x40010000
        0x00003a6c:    6088        .`      STR      r0,[r1,#8]
        0x00003a6e:    bf00        ..      NOP      
        0x00003a70:    485b        [H      LDR      r0,[pc,#364] ; [0x3be0] = 0x20000224
        0x00003a72:    6800        .h      LDR      r0,[r0,#0]
        0x00003a74:    1c40        @.      ADDS     r0,r0,#1
        0x00003a76:    495a        ZI      LDR      r1,[pc,#360] ; [0x3be0] = 0x20000224
        0x00003a78:    6008        .`      STR      r0,[r1,#0]
        0x00003a7a:    28c8        .(      CMP      r0,#0xc8
        0x00003a7c:    d901        ..      BLS      0x3a82 ; TMR0_IRQHandler + 34
        0x00003a7e:    2000        .       MOVS     r0,#0
        0x00003a80:    6008        .`      STR      r0,[r1,#0]
        0x00003a82:    4858        XH      LDR      r0,[pc,#352] ; [0x3be4] = 0x20000242
        0x00003a84:    7800        .x      LDRB     r0,[r0,#0]
        0x00003a86:    2801        .(      CMP      r0,#1
        0x00003a88:    d11f        ..      BNE      0x3aca ; TMR0_IRQHandler + 106
        0x00003a8a:    2000        .       MOVS     r0,#0
        0x00003a8c:    4955        UI      LDR      r1,[pc,#340] ; [0x3be4] = 0x20000242
        0x00003a8e:    7008        .p      STRB     r0,[r1,#0]
        0x00003a90:    4855        UH      LDR      r0,[pc,#340] ; [0x3be8] = 0x200001c4
        0x00003a92:    6800        .h      LDR      r0,[r0,#0]
        0x00003a94:    0080        ..      LSLS     r0,r0,#2
        0x00003a96:    4955        UI      LDR      r1,[pc,#340] ; [0x3bec] = 0x200001d0
        0x00003a98:    5808        .X      LDR      r0,[r1,r0]
        0x00003a9a:    4951        QI      LDR      r1,[pc,#324] ; [0x3be0] = 0x20000224
        0x00003a9c:    6809        .h      LDR      r1,[r1,#0]
        0x00003a9e:    4288        .B      CMP      r0,r1
        0x00003aa0:    d909        ..      BLS      0x3ab6 ; TMR0_IRQHandler + 86
        0x00003aa2:    484b        KH      LDR      r0,[pc,#300] ; [0x3bd0] = 0x50004040
        0x00003aa4:    3840        @8      SUBS     r0,r0,#0x40
        0x00003aa6:    6880        .h      LDR      r0,[r0,#8]
        0x00003aa8:    2107        .!      MOVS     r1,#7
        0x00003aaa:    0309        ..      LSLS     r1,r1,#12
        0x00003aac:    4388        .C      BICS     r0,r0,r1
        0x00003aae:    4948        HI      LDR      r1,[pc,#288] ; [0x3bd0] = 0x50004040
        0x00003ab0:    3940        @9      SUBS     r1,r1,#0x40
        0x00003ab2:    6088        .`      STR      r0,[r1,#8]
        0x00003ab4:    e04c        L.      B        0x3b50 ; TMR0_IRQHandler + 240
        0x00003ab6:    4846        FH      LDR      r0,[pc,#280] ; [0x3bd0] = 0x50004040
        0x00003ab8:    3840        @8      SUBS     r0,r0,#0x40
        0x00003aba:    6880        .h      LDR      r0,[r0,#8]
        0x00003abc:    2107        .!      MOVS     r1,#7
        0x00003abe:    0309        ..      LSLS     r1,r1,#12
        0x00003ac0:    4308        .C      ORRS     r0,r0,r1
        0x00003ac2:    4943        CI      LDR      r1,[pc,#268] ; [0x3bd0] = 0x50004040
        0x00003ac4:    3940        @9      SUBS     r1,r1,#0x40
        0x00003ac6:    6088        .`      STR      r0,[r1,#8]
        0x00003ac8:    e042        B.      B        0x3b50 ; TMR0_IRQHandler + 240
        0x00003aca:    4847        GH      LDR      r0,[pc,#284] ; [0x3be8] = 0x200001c4
        0x00003acc:    6800        .h      LDR      r0,[r0,#0]
        0x00003ace:    0080        ..      LSLS     r0,r0,#2
        0x00003ad0:    4946        FI      LDR      r1,[pc,#280] ; [0x3bec] = 0x200001d0
        0x00003ad2:    5808        .X      LDR      r0,[r1,r0]
        0x00003ad4:    4942        BI      LDR      r1,[pc,#264] ; [0x3be0] = 0x20000224
        0x00003ad6:    6809        .h      LDR      r1,[r1,#0]
        0x00003ad8:    4288        .B      CMP      r0,r1
        0x00003ada:    d905        ..      BLS      0x3ae8 ; TMR0_IRQHandler + 136
        0x00003adc:    bf00        ..      NOP      
        0x00003ade:    2000        .       MOVS     r0,#0
        0x00003ae0:    4943        CI      LDR      r1,[pc,#268] ; [0x3bf0] = 0x50004230
        0x00003ae2:    6008        .`      STR      r0,[r1,#0]
        0x00003ae4:    bf00        ..      NOP      
        0x00003ae6:    e005        ..      B        0x3af4 ; TMR0_IRQHandler + 148
        0x00003ae8:    bf00        ..      NOP      
        0x00003aea:    2001        .       MOVS     r0,#1
        0x00003aec:    4940        @I      LDR      r1,[pc,#256] ; [0x3bf0] = 0x50004230
        0x00003aee:    6008        .`      STR      r0,[r1,#0]
        0x00003af0:    bf00        ..      NOP      
        0x00003af2:    bf00        ..      NOP      
        0x00003af4:    483f        ?H      LDR      r0,[pc,#252] ; [0x3bf4] = 0x200001c8
        0x00003af6:    6800        .h      LDR      r0,[r0,#0]
        0x00003af8:    0080        ..      LSLS     r0,r0,#2
        0x00003afa:    493c        <I      LDR      r1,[pc,#240] ; [0x3bec] = 0x200001d0
        0x00003afc:    5808        .X      LDR      r0,[r1,r0]
        0x00003afe:    4938        8I      LDR      r1,[pc,#224] ; [0x3be0] = 0x20000224
        0x00003b00:    6809        .h      LDR      r1,[r1,#0]
        0x00003b02:    4288        .B      CMP      r0,r1
        0x00003b04:    d906        ..      BLS      0x3b14 ; TMR0_IRQHandler + 180
        0x00003b06:    bf00        ..      NOP      
        0x00003b08:    2000        .       MOVS     r0,#0
        0x00003b0a:    4939        9I      LDR      r1,[pc,#228] ; [0x3bf0] = 0x50004230
        0x00003b0c:    3108        .1      ADDS     r1,r1,#8
        0x00003b0e:    6008        .`      STR      r0,[r1,#0]
        0x00003b10:    bf00        ..      NOP      
        0x00003b12:    e006        ..      B        0x3b22 ; TMR0_IRQHandler + 194
        0x00003b14:    bf00        ..      NOP      
        0x00003b16:    2001        .       MOVS     r0,#1
        0x00003b18:    4935        5I      LDR      r1,[pc,#212] ; [0x3bf0] = 0x50004230
        0x00003b1a:    3108        .1      ADDS     r1,r1,#8
        0x00003b1c:    6008        .`      STR      r0,[r1,#0]
        0x00003b1e:    bf00        ..      NOP      
        0x00003b20:    bf00        ..      NOP      
        0x00003b22:    4835        5H      LDR      r0,[pc,#212] ; [0x3bf8] = 0x200001cc
        0x00003b24:    6800        .h      LDR      r0,[r0,#0]
        0x00003b26:    0080        ..      LSLS     r0,r0,#2
        0x00003b28:    4930        0I      LDR      r1,[pc,#192] ; [0x3bec] = 0x200001d0
        0x00003b2a:    5808        .X      LDR      r0,[r1,r0]
        0x00003b2c:    492c        ,I      LDR      r1,[pc,#176] ; [0x3be0] = 0x20000224
        0x00003b2e:    6809        .h      LDR      r1,[r1,#0]
        0x00003b30:    4288        .B      CMP      r0,r1
        0x00003b32:    d906        ..      BLS      0x3b42 ; TMR0_IRQHandler + 226
        0x00003b34:    bf00        ..      NOP      
        0x00003b36:    2000        .       MOVS     r0,#0
        0x00003b38:    492d        -I      LDR      r1,[pc,#180] ; [0x3bf0] = 0x50004230
        0x00003b3a:    1d09        ..      ADDS     r1,r1,#4
        0x00003b3c:    6008        .`      STR      r0,[r1,#0]
        0x00003b3e:    bf00        ..      NOP      
        0x00003b40:    e006        ..      B        0x3b50 ; TMR0_IRQHandler + 240
        0x00003b42:    bf00        ..      NOP      
        0x00003b44:    2001        .       MOVS     r0,#1
        0x00003b46:    492a        *I      LDR      r1,[pc,#168] ; [0x3bf0] = 0x50004230
        0x00003b48:    1d09        ..      ADDS     r1,r1,#4
        0x00003b4a:    6008        .`      STR      r0,[r1,#0]
        0x00003b4c:    bf00        ..      NOP      
        0x00003b4e:    bf00        ..      NOP      
        0x00003b50:    4770        pG      BX       lr
    openMcuCtrlPin
        0x00003b52:    4770        pG      BX       lr
    GPIO_GET_PIN_IF
        0x00003b54:    4602        .F      MOV      r2,r0
        0x00003b56:    6a10        .j      LDR      r0,[r2,#0x20]
        0x00003b58:    2301        .#      MOVS     r3,#1
        0x00003b5a:    408b        .@      LSLS     r3,r3,r1
        0x00003b5c:    4018        .@      ANDS     r0,r0,r3
        0x00003b5e:    4770        pG      BX       lr
    GPIO_CLR_PIN_IF
        0x00003b60:    2201        ."      MOVS     r2,#1
        0x00003b62:    408a        .@      LSLS     r2,r2,r1
        0x00003b64:    6202        .b      STR      r2,[r0,#0x20]
        0x00003b66:    4770        pG      BX       lr
    SYS_UnlockReg
        0x00003b68:    2059        Y       MOVS     r0,#0x59
        0x00003b6a:    4924        $I      LDR      r1,[pc,#144] ; [0x3bfc] = 0x50000100
        0x00003b6c:    6008        .`      STR      r0,[r1,#0]
        0x00003b6e:    2016        .       MOVS     r0,#0x16
        0x00003b70:    6008        .`      STR      r0,[r1,#0]
        0x00003b72:    2088        .       MOVS     r0,#0x88
        0x00003b74:    6008        .`      STR      r0,[r1,#0]
        0x00003b76:    4770        pG      BX       lr
    SYS_LockReg
        0x00003b78:    2000        .       MOVS     r0,#0
        0x00003b7a:    4920         I      LDR      r1,[pc,#128] ; [0x3bfc] = 0x50000100
        0x00003b7c:    6008        .`      STR      r0,[r1,#0]
        0x00003b7e:    4770        pG      BX       lr
    WDT_ENABLE_COUNTING
        0x00003b80:    4812        .H      LDR      r0,[pc,#72] ; [0x3bcc] = 0x40004000
        0x00003b82:    6800        .h      LDR      r0,[r0,#0]
        0x00003b84:    2180        .!      MOVS     r1,#0x80
        0x00003b86:    4308        .C      ORRS     r0,r0,r1
        0x00003b88:    4910        .I      LDR      r1,[pc,#64] ; [0x3bcc] = 0x40004000
        0x00003b8a:    6008        .`      STR      r0,[r1,#0]
        0x00003b8c:    4770        pG      BX       lr
    WDT_CLEAR_RESET_FLAG
        0x00003b8e:    480f        .H      LDR      r0,[pc,#60] ; [0x3bcc] = 0x40004000
        0x00003b90:    6800        .h      LDR      r0,[r0,#0]
        0x00003b92:    2104        .!      MOVS     r1,#4
        0x00003b94:    4308        .C      ORRS     r0,r0,r1
        0x00003b96:    490d        .I      LDR      r1,[pc,#52] ; [0x3bcc] = 0x40004000
        0x00003b98:    6008        .`      STR      r0,[r1,#0]
        0x00003b9a:    4770        pG      BX       lr
    WDT_TIMER_RESET
        0x00003b9c:    480b        .H      LDR      r0,[pc,#44] ; [0x3bcc] = 0x40004000
        0x00003b9e:    6800        .h      LDR      r0,[r0,#0]
        0x00003ba0:    2101        .!      MOVS     r1,#1
        0x00003ba2:    4308        .C      ORRS     r0,r0,r1
        0x00003ba4:    4909        .I      LDR      r1,[pc,#36] ; [0x3bcc] = 0x40004000
        0x00003ba6:    6008        .`      STR      r0,[r1,#0]
        0x00003ba8:    4770        pG      BX       lr
    $d
        0x00003baa:    0000        ..      DCW    0
        0x00003bac:    00010001    ....    DCD    65537
        0x00003bb0:    50000200    ...P    DCD    1342177792
        0x00003bb4:    40010000    ...@    DCD    1073807360
        0x00003bb8:    200001b4    ...     DCD    536871348
        0x00003bbc:    20000565    e..     DCD    536872293
        0x00003bc0:    2d544457    WDT-    DCD    760497239
        0x00003bc4:    2e31302d    -01.    DCD    774975533
        0x00003bc8:    00000a0d    ....    DCD    2573
        0x00003bcc:    40004000    .@.@    DCD    1073758208
        0x00003bd0:    50004040    @@.P    DCD    1342193728
        0x00003bd4:    20000178    x..     DCD    536871288
        0x00003bd8:    e000e100    ....    DCD    3758153984
        0x00003bdc:    20000054    T..     DCD    536870996
        0x00003be0:    20000224    $..     DCD    536871460
        0x00003be4:    20000242    B..     DCD    536871490
        0x00003be8:    200001c4    ...     DCD    536871364
        0x00003bec:    200001d0    ...     DCD    536871376
        0x00003bf0:    50004230    0B.P    DCD    1342194224
        0x00003bf4:    200001c8    ...     DCD    536871368
        0x00003bf8:    200001cc    ...     DCD    536871372
        0x00003bfc:    50000100    ...P    DCD    1342177536
    $t
    .text
    GPIO_SET_MODE
        0x00003c00:    b530        0.      PUSH     {r4,r5,lr}
        0x00003c02:    6803        .h      LDR      r3,[r0,#0]
        0x00003c04:    004d        M.      LSLS     r5,r1,#1
        0x00003c06:    2403        .$      MOVS     r4,#3
        0x00003c08:    40ac        .@      LSLS     r4,r4,r5
        0x00003c0a:    43a3        .C      BICS     r3,r3,r4
        0x00003c0c:    004d        M.      LSLS     r5,r1,#1
        0x00003c0e:    4614        .F      MOV      r4,r2
        0x00003c10:    40ac        .@      LSLS     r4,r4,r5
        0x00003c12:    4323        #C      ORRS     r3,r3,r4
        0x00003c14:    6003        .`      STR      r3,[r0,#0]
        0x00003c16:    bd30        0.      POP      {r4,r5,pc}
    leddisable
        0x00003c18:    bf00        ..      NOP      
        0x00003c1a:    48fe        .H      LDR      r0,[pc,#1016] ; [0x4014] = 0x40010000
        0x00003c1c:    6800        .h      LDR      r0,[r0,#0]
        0x00003c1e:    2101        .!      MOVS     r1,#1
        0x00003c20:    0789        ..      LSLS     r1,r1,#30
        0x00003c22:    4388        .C      BICS     r0,r0,r1
        0x00003c24:    49fb        .I      LDR      r1,[pc,#1004] ; [0x4014] = 0x40010000
        0x00003c26:    6008        .`      STR      r0,[r1,#0]
        0x00003c28:    bf00        ..      NOP      
        0x00003c2a:    4770        pG      BX       lr
    ledInit
        0x00003c2c:    b510        ..      PUSH     {r4,lr}
        0x00003c2e:    bf00        ..      NOP      
        0x00003c30:    2001        .       MOVS     r0,#1
        0x00003c32:    49f9        .I      LDR      r1,[pc,#996] ; [0x4018] = 0x50004230
        0x00003c34:    6008        .`      STR      r0,[r1,#0]
        0x00003c36:    bf00        ..      NOP      
        0x00003c38:    bf00        ..      NOP      
        0x00003c3a:    1d09        ..      ADDS     r1,r1,#4
        0x00003c3c:    6008        .`      STR      r0,[r1,#0]
        0x00003c3e:    bf00        ..      NOP      
        0x00003c40:    bf00        ..      NOP      
        0x00003c42:    1d09        ..      ADDS     r1,r1,#4
        0x00003c44:    6008        .`      STR      r0,[r1,#0]
        0x00003c46:    bf00        ..      NOP      
        0x00003c48:    2201        ."      MOVS     r2,#1
        0x00003c4a:    210c        .!      MOVS     r1,#0xc
        0x00003c4c:    48f3        .H      LDR      r0,[pc,#972] ; [0x401c] = 0x50004000
        0x00003c4e:    f7ffffd7    ....    BL       GPIO_SET_MODE ; 0x3c00
        0x00003c52:    2201        ."      MOVS     r2,#1
        0x00003c54:    210d        .!      MOVS     r1,#0xd
        0x00003c56:    48f1        .H      LDR      r0,[pc,#964] ; [0x401c] = 0x50004000
        0x00003c58:    f7ffffd2    ....    BL       GPIO_SET_MODE ; 0x3c00
        0x00003c5c:    2201        ."      MOVS     r2,#1
        0x00003c5e:    210e        .!      MOVS     r1,#0xe
        0x00003c60:    48ee        .H      LDR      r0,[pc,#952] ; [0x401c] = 0x50004000
        0x00003c62:    f7ffffcd    ....    BL       GPIO_SET_MODE ; 0x3c00
        0x00003c66:    2000        .       MOVS     r0,#0
        0x00003c68:    49ed        .I      LDR      r1,[pc,#948] ; [0x4020] = 0x50000200
        0x00003c6a:    6949        Ii      LDR      r1,[r1,#0x14]
        0x00003c6c:    2207        ."      MOVS     r2,#7
        0x00003c6e:    0212        ..      LSLS     r2,r2,#8
        0x00003c70:    4391        .C      BICS     r1,r1,r2
        0x00003c72:    4301        .C      ORRS     r1,r1,r0
        0x00003c74:    4aea        .J      LDR      r2,[pc,#936] ; [0x4020] = 0x50000200
        0x00003c76:    6151        Qa      STR      r1,[r2,#0x14]
        0x00003c78:    bf00        ..      NOP      
        0x00003c7a:    04d3        ..      LSLS     r3,r2,#19
        0x00003c7c:    220a        ."      MOVS     r2,#0xa
        0x00003c7e:    2115        .!      MOVS     r1,#0x15
        0x00003c80:    48e4        .H      LDR      r0,[pc,#912] ; [0x4014] = 0x40010000
        0x00003c82:    f7fdfa27    ..'.    BL       DrvTIMER_Init ; 0x10d4
        0x00003c86:    2102        .!      MOVS     r1,#2
        0x00003c88:    2008        .       MOVS     r0,#8
        0x00003c8a:    f000fa04    ....    BL       NVIC_SetPriority ; 0x4096
        0x00003c8e:    2101        .!      MOVS     r1,#1
        0x00003c90:    0749        I.      LSLS     r1,r1,#29
        0x00003c92:    48e0        .H      LDR      r0,[pc,#896] ; [0x4014] = 0x40010000
        0x00003c94:    f7fdfa76    ..v.    BL       DrvTIMER_EnableInt ; 0x1184
        0x00003c98:    bf00        ..      NOP      
        0x00003c9a:    48de        .H      LDR      r0,[pc,#888] ; [0x4014] = 0x40010000
        0x00003c9c:    6800        .h      LDR      r0,[r0,#0]
        0x00003c9e:    2101        .!      MOVS     r1,#1
        0x00003ca0:    0789        ..      LSLS     r1,r1,#30
        0x00003ca2:    4308        .C      ORRS     r0,r0,r1
        0x00003ca4:    49db        .I      LDR      r1,[pc,#876] ; [0x4014] = 0x40010000
        0x00003ca6:    6008        .`      STR      r0,[r1,#0]
        0x00003ca8:    bf00        ..      NOP      
        0x00003caa:    bd10        ..      POP      {r4,pc}
    fadeon
        0x00003cac:    2100        .!      MOVS     r1,#0
        0x00003cae:    4add        .J      LDR      r2,[pc,#884] ; [0x4024] = 0x2000027c
        0x00003cb0:    6011        .`      STR      r1,[r2,#0]
        0x00003cb2:    49dd        .I      LDR      r1,[pc,#884] ; [0x4028] = 0x200002a0
        0x00003cb4:    6008        .`      STR      r0,[r1,#0]
        0x00003cb6:    2106        .!      MOVS     r1,#6
        0x00003cb8:    4adc        .J      LDR      r2,[pc,#880] ; [0x402c] = 0x20000278
        0x00003cba:    6011        .`      STR      r1,[r2,#0]
        0x00003cbc:    2101        .!      MOVS     r1,#1
        0x00003cbe:    4adc        .J      LDR      r2,[pc,#880] ; [0x4030] = 0x20000280
        0x00003cc0:    6011        .`      STR      r1,[r2,#0]
        0x00003cc2:    4770        pG      BX       lr
    fadeoff
        0x00003cc4:    2114        .!      MOVS     r1,#0x14
        0x00003cc6:    4ad7        .J      LDR      r2,[pc,#860] ; [0x4024] = 0x2000027c
        0x00003cc8:    6011        .`      STR      r1,[r2,#0]
        0x00003cca:    49d7        .I      LDR      r1,[pc,#860] ; [0x4028] = 0x200002a0
        0x00003ccc:    6008        .`      STR      r0,[r1,#0]
        0x00003cce:    2107        .!      MOVS     r1,#7
        0x00003cd0:    4ad6        .J      LDR      r2,[pc,#856] ; [0x402c] = 0x20000278
        0x00003cd2:    6011        .`      STR      r1,[r2,#0]
        0x00003cd4:    2101        .!      MOVS     r1,#1
        0x00003cd6:    4ad6        .J      LDR      r2,[pc,#856] ; [0x4030] = 0x20000280
        0x00003cd8:    6011        .`      STR      r1,[r2,#0]
        0x00003cda:    4770        pG      BX       lr
    breathingColor
        0x00003cdc:    b500        ..      PUSH     {lr}
        0x00003cde:    49d3        .I      LDR      r1,[pc,#844] ; [0x402c] = 0x20000278
        0x00003ce0:    6808        .h      LDR      r0,[r1,#0]
        0x00003ce2:    49d4        .I      LDR      r1,[pc,#848] ; [0x4034] = 0x20000298
        0x00003ce4:    6809        .h      LDR      r1,[r1,#0]
        0x00003ce6:    1c49        I.      ADDS     r1,r1,#1
        0x00003ce8:    4ad2        .J      LDR      r2,[pc,#840] ; [0x4034] = 0x20000298
        0x00003cea:    6011        .`      STR      r1,[r2,#0]
        0x00003cec:    07c9        ..      LSLS     r1,r1,#31
        0x00003cee:    0fc9        ..      LSRS     r1,r1,#31
        0x00003cf0:    d07b        {.      BEQ      0x3dea ; breathingColor + 270
        0x00003cf2:    bf00        ..      NOP      
        0x00003cf4:    0003        ..      MOVS     r3,r0
        0x00003cf6:    f003f8ab    ....    BL       __ARM_common_switch8 ; 0x6e50
    $d
        0x00003cfa:    f309        ..      DCW    62217
        0x00003cfc:    69482706    .'Hi    DCD    1766336262
        0x00003d00:    dccbba8d    ....    DCD    3704339085
        0x00003d04:    00f3        ..      DCW    243
    $t
        0x00003d06:    2100        .!      MOVS     r1,#0
        0x00003d08:    4acb        .J      LDR      r2,[pc,#812] ; [0x4038] = 0x200001c4
        0x00003d0a:    6011        .`      STR      r1,[r2,#0]
        0x00003d0c:    4acb        .J      LDR      r2,[pc,#812] ; [0x403c] = 0x200001cc
        0x00003d0e:    6011        .`      STR      r1,[r2,#0]
        0x00003d10:    49c4        .I      LDR      r1,[pc,#784] ; [0x4024] = 0x2000027c
        0x00003d12:    6809        .h      LDR      r1,[r1,#0]
        0x00003d14:    1c49        I.      ADDS     r1,r1,#1
        0x00003d16:    4ac3        .J      LDR      r2,[pc,#780] ; [0x4024] = 0x2000027c
        0x00003d18:    6011        .`      STR      r1,[r2,#0]
        0x00003d1a:    4611        .F      MOV      r1,r2
        0x00003d1c:    6809        .h      LDR      r1,[r1,#0]
        0x00003d1e:    2927        ')      CMP      r1,#0x27
        0x00003d20:    d902        ..      BLS      0x3d28 ; breathingColor + 76
        0x00003d22:    2101        .!      MOVS     r1,#1
        0x00003d24:    6011        .`      STR      r1,[r2,#0]
        0x00003d26:    e00e        ..      B        0x3d46 ; breathingColor + 106
        0x00003d28:    49be        .I      LDR      r1,[pc,#760] ; [0x4024] = 0x2000027c
        0x00003d2a:    6809        .h      LDR      r1,[r1,#0]
        0x00003d2c:    2914        .)      CMP      r1,#0x14
        0x00003d2e:    d906        ..      BLS      0x3d3e ; breathingColor + 98
        0x00003d30:    49bc        .I      LDR      r1,[pc,#752] ; [0x4024] = 0x2000027c
        0x00003d32:    6809        .h      LDR      r1,[r1,#0]
        0x00003d34:    2228        ("      MOVS     r2,#0x28
        0x00003d36:    1a51        Q.      SUBS     r1,r2,r1
        0x00003d38:    4ac1        .J      LDR      r2,[pc,#772] ; [0x4040] = 0x200001c8
        0x00003d3a:    6011        .`      STR      r1,[r2,#0]
        0x00003d3c:    e003        ..      B        0x3d46 ; breathingColor + 106
        0x00003d3e:    49b9        .I      LDR      r1,[pc,#740] ; [0x4024] = 0x2000027c
        0x00003d40:    6809        .h      LDR      r1,[r1,#0]
        0x00003d42:    4abf        .J      LDR      r2,[pc,#764] ; [0x4040] = 0x200001c8
        0x00003d44:    6011        .`      STR      r1,[r2,#0]
        0x00003d46:    e0e3        ..      B        0x3f10 ; breathingColor + 564
        0x00003d48:    2100        .!      MOVS     r1,#0
        0x00003d4a:    4abd        .J      LDR      r2,[pc,#756] ; [0x4040] = 0x200001c8
        0x00003d4c:    6011        .`      STR      r1,[r2,#0]
        0x00003d4e:    4abb        .J      LDR      r2,[pc,#748] ; [0x403c] = 0x200001cc
        0x00003d50:    6011        .`      STR      r1,[r2,#0]
        0x00003d52:    49b4        .I      LDR      r1,[pc,#720] ; [0x4024] = 0x2000027c
        0x00003d54:    6809        .h      LDR      r1,[r1,#0]
        0x00003d56:    1c49        I.      ADDS     r1,r1,#1
        0x00003d58:    4ab2        .J      LDR      r2,[pc,#712] ; [0x4024] = 0x2000027c
        0x00003d5a:    6011        .`      STR      r1,[r2,#0]
        0x00003d5c:    4611        .F      MOV      r1,r2
        0x00003d5e:    6809        .h      LDR      r1,[r1,#0]
        0x00003d60:    2927        ')      CMP      r1,#0x27
        0x00003d62:    d902        ..      BLS      0x3d6a ; breathingColor + 142
        0x00003d64:    2101        .!      MOVS     r1,#1
        0x00003d66:    6011        .`      STR      r1,[r2,#0]
        0x00003d68:    e00e        ..      B        0x3d88 ; breathingColor + 172
        0x00003d6a:    49ae        .I      LDR      r1,[pc,#696] ; [0x4024] = 0x2000027c
        0x00003d6c:    6809        .h      LDR      r1,[r1,#0]
        0x00003d6e:    2914        .)      CMP      r1,#0x14
        0x00003d70:    d906        ..      BLS      0x3d80 ; breathingColor + 164
        0x00003d72:    49ac        .I      LDR      r1,[pc,#688] ; [0x4024] = 0x2000027c
        0x00003d74:    6809        .h      LDR      r1,[r1,#0]
        0x00003d76:    2228        ("      MOVS     r2,#0x28
        0x00003d78:    1a51        Q.      SUBS     r1,r2,r1
        0x00003d7a:    4aaf        .J      LDR      r2,[pc,#700] ; [0x4038] = 0x200001c4
        0x00003d7c:    6011        .`      STR      r1,[r2,#0]
        0x00003d7e:    e003        ..      B        0x3d88 ; breathingColor + 172
        0x00003d80:    49a8        .I      LDR      r1,[pc,#672] ; [0x4024] = 0x2000027c
        0x00003d82:    6809        .h      LDR      r1,[r1,#0]
        0x00003d84:    4aac        .J      LDR      r2,[pc,#688] ; [0x4038] = 0x200001c4
        0x00003d86:    6011        .`      STR      r1,[r2,#0]
        0x00003d88:    e0c2        ..      B        0x3f10 ; breathingColor + 564
        0x00003d8a:    2100        .!      MOVS     r1,#0
        0x00003d8c:    4aac        .J      LDR      r2,[pc,#688] ; [0x4040] = 0x200001c8
        0x00003d8e:    6011        .`      STR      r1,[r2,#0]
        0x00003d90:    4aa9        .J      LDR      r2,[pc,#676] ; [0x4038] = 0x200001c4
        0x00003d92:    6011        .`      STR      r1,[r2,#0]
        0x00003d94:    49a3        .I      LDR      r1,[pc,#652] ; [0x4024] = 0x2000027c
        0x00003d96:    6809        .h      LDR      r1,[r1,#0]
        0x00003d98:    1c49        I.      ADDS     r1,r1,#1
        0x00003d9a:    4aa2        .J      LDR      r2,[pc,#648] ; [0x4024] = 0x2000027c
        0x00003d9c:    6011        .`      STR      r1,[r2,#0]
        0x00003d9e:    4611        .F      MOV      r1,r2
        0x00003da0:    6809        .h      LDR      r1,[r1,#0]
        0x00003da2:    2914        .)      CMP      r1,#0x14
        0x00003da4:    d906        ..      BLS      0x3db4 ; breathingColor + 216
        0x00003da6:    4611        .F      MOV      r1,r2
        0x00003da8:    6809        .h      LDR      r1,[r1,#0]
        0x00003daa:    2228        ("      MOVS     r2,#0x28
        0x00003dac:    1a51        Q.      SUBS     r1,r2,r1
        0x00003dae:    4aa3        .J      LDR      r2,[pc,#652] ; [0x403c] = 0x200001cc
        0x00003db0:    6011        .`      STR      r1,[r2,#0]
        0x00003db2:    e003        ..      B        0x3dbc ; breathingColor + 224
        0x00003db4:    499b        .I      LDR      r1,[pc,#620] ; [0x4024] = 0x2000027c
        0x00003db6:    6809        .h      LDR      r1,[r1,#0]
        0x00003db8:    4aa0        .J      LDR      r2,[pc,#640] ; [0x403c] = 0x200001cc
        0x00003dba:    6011        .`      STR      r1,[r2,#0]
        0x00003dbc:    4999        .I      LDR      r1,[pc,#612] ; [0x4024] = 0x2000027c
        0x00003dbe:    6809        .h      LDR      r1,[r1,#0]
        0x00003dc0:    2927        ')      CMP      r1,#0x27
        0x00003dc2:    d902        ..      BLS      0x3dca ; breathingColor + 238
        0x00003dc4:    2101        .!      MOVS     r1,#1
        0x00003dc6:    4a97        .J      LDR      r2,[pc,#604] ; [0x4024] = 0x2000027c
        0x00003dc8:    6011        .`      STR      r1,[r2,#0]
        0x00003dca:    e0a1        ..      B        0x3f10 ; breathingColor + 564
        0x00003dcc:    2100        .!      MOVS     r1,#0
        0x00003dce:    4a9c        .J      LDR      r2,[pc,#624] ; [0x4040] = 0x200001c8
        0x00003dd0:    6011        .`      STR      r1,[r2,#0]
        0x00003dd2:    4994        .I      LDR      r1,[pc,#592] ; [0x4024] = 0x2000027c
        0x00003dd4:    6809        .h      LDR      r1,[r1,#0]
        0x00003dd6:    1c49        I.      ADDS     r1,r1,#1
        0x00003dd8:    4a92        .J      LDR      r2,[pc,#584] ; [0x4024] = 0x2000027c
        0x00003dda:    6011        .`      STR      r1,[r2,#0]
        0x00003ddc:    4611        .F      MOV      r1,r2
        0x00003dde:    6809        .h      LDR      r1,[r1,#0]
        0x00003de0:    2927        ')      CMP      r1,#0x27
        0x00003de2:    d903        ..      BLS      0x3dec ; breathingColor + 272
        0x00003de4:    2101        .!      MOVS     r1,#1
        0x00003de6:    6011        .`      STR      r1,[r2,#0]
        0x00003de8:    e00f        ..      B        0x3e0a ; breathingColor + 302
        0x00003dea:    e092        ..      B        0x3f12 ; breathingColor + 566
        0x00003dec:    498d        .I      LDR      r1,[pc,#564] ; [0x4024] = 0x2000027c
        0x00003dee:    6809        .h      LDR      r1,[r1,#0]
        0x00003df0:    2914        .)      CMP      r1,#0x14
        0x00003df2:    d906        ..      BLS      0x3e02 ; breathingColor + 294
        0x00003df4:    498b        .I      LDR      r1,[pc,#556] ; [0x4024] = 0x2000027c
        0x00003df6:    6809        .h      LDR      r1,[r1,#0]
        0x00003df8:    2228        ("      MOVS     r2,#0x28
        0x00003dfa:    1a51        Q.      SUBS     r1,r2,r1
        0x00003dfc:    4a8f        .J      LDR      r2,[pc,#572] ; [0x403c] = 0x200001cc
        0x00003dfe:    6011        .`      STR      r1,[r2,#0]
        0x00003e00:    e003        ..      B        0x3e0a ; breathingColor + 302
        0x00003e02:    4988        .I      LDR      r1,[pc,#544] ; [0x4024] = 0x2000027c
        0x00003e04:    6809        .h      LDR      r1,[r1,#0]
        0x00003e06:    4a8d        .J      LDR      r2,[pc,#564] ; [0x403c] = 0x200001cc
        0x00003e08:    6011        .`      STR      r1,[r2,#0]
        0x00003e0a:    498c        .I      LDR      r1,[pc,#560] ; [0x403c] = 0x200001cc
        0x00003e0c:    6809        .h      LDR      r1,[r1,#0]
        0x00003e0e:    4a8a        .J      LDR      r2,[pc,#552] ; [0x4038] = 0x200001c4
        0x00003e10:    6011        .`      STR      r1,[r2,#0]
        0x00003e12:    e07d        }.      B        0x3f10 ; breathingColor + 564
        0x00003e14:    4983        .I      LDR      r1,[pc,#524] ; [0x4024] = 0x2000027c
        0x00003e16:    6809        .h      LDR      r1,[r1,#0]
        0x00003e18:    1c49        I.      ADDS     r1,r1,#1
        0x00003e1a:    4a82        .J      LDR      r2,[pc,#520] ; [0x4024] = 0x2000027c
        0x00003e1c:    6011        .`      STR      r1,[r2,#0]
        0x00003e1e:    4611        .F      MOV      r1,r2
        0x00003e20:    6809        .h      LDR      r1,[r1,#0]
        0x00003e22:    2941        A)      CMP      r1,#0x41
        0x00003e24:    d902        ..      BLS      0x3e2c ; breathingColor + 336
        0x00003e26:    2101        .!      MOVS     r1,#1
        0x00003e28:    6011        .`      STR      r1,[r2,#0]
        0x00003e2a:    e016        ..      B        0x3e5a ; breathingColor + 382
        0x00003e2c:    497d        }I      LDR      r1,[pc,#500] ; [0x4024] = 0x2000027c
        0x00003e2e:    6809        .h      LDR      r1,[r1,#0]
        0x00003e30:    292e        .)      CMP      r1,#0x2e
        0x00003e32:    d906        ..      BLS      0x3e42 ; breathingColor + 358
        0x00003e34:    497b        {I      LDR      r1,[pc,#492] ; [0x4024] = 0x2000027c
        0x00003e36:    6809        .h      LDR      r1,[r1,#0]
        0x00003e38:    2242        B"      MOVS     r2,#0x42
        0x00003e3a:    1a51        Q.      SUBS     r1,r2,r1
        0x00003e3c:    4a7f        .J      LDR      r2,[pc,#508] ; [0x403c] = 0x200001cc
        0x00003e3e:    6011        .`      STR      r1,[r2,#0]
        0x00003e40:    e00b        ..      B        0x3e5a ; breathingColor + 382
        0x00003e42:    4978        xI      LDR      r1,[pc,#480] ; [0x4024] = 0x2000027c
        0x00003e44:    6809        .h      LDR      r1,[r1,#0]
        0x00003e46:    2914        .)      CMP      r1,#0x14
        0x00003e48:    d903        ..      BLS      0x3e52 ; breathingColor + 374
        0x00003e4a:    2114        .!      MOVS     r1,#0x14
        0x00003e4c:    4a7b        {J      LDR      r2,[pc,#492] ; [0x403c] = 0x200001cc
        0x00003e4e:    6011        .`      STR      r1,[r2,#0]
        0x00003e50:    e003        ..      B        0x3e5a ; breathingColor + 382
        0x00003e52:    4974        tI      LDR      r1,[pc,#464] ; [0x4024] = 0x2000027c
        0x00003e54:    6809        .h      LDR      r1,[r1,#0]
        0x00003e56:    4a79        yJ      LDR      r2,[pc,#484] ; [0x403c] = 0x200001cc
        0x00003e58:    6011        .`      STR      r1,[r2,#0]
        0x00003e5a:    4978        xI      LDR      r1,[pc,#480] ; [0x403c] = 0x200001cc
        0x00003e5c:    6809        .h      LDR      r1,[r1,#0]
        0x00003e5e:    4a76        vJ      LDR      r2,[pc,#472] ; [0x4038] = 0x200001c4
        0x00003e60:    6011        .`      STR      r1,[r2,#0]
        0x00003e62:    4a77        wJ      LDR      r2,[pc,#476] ; [0x4040] = 0x200001c8
        0x00003e64:    6011        .`      STR      r1,[r2,#0]
        0x00003e66:    2101        .!      MOVS     r1,#1
        0x00003e68:    4a76        vJ      LDR      r2,[pc,#472] ; [0x4044] = 0x20000242
        0x00003e6a:    7011        .p      STRB     r1,[r2,#0]
        0x00003e6c:    e050        P.      B        0x3f10 ; breathingColor + 564
        0x00003e6e:    496d        mI      LDR      r1,[pc,#436] ; [0x4024] = 0x2000027c
        0x00003e70:    6809        .h      LDR      r1,[r1,#0]
        0x00003e72:    2914        .)      CMP      r1,#0x14
        0x00003e74:    d002        ..      BEQ      0x3e7c ; breathingColor + 416
        0x00003e76:    496c        lI      LDR      r1,[pc,#432] ; [0x4028] = 0x200002a0
        0x00003e78:    6808        .h      LDR      r0,[r1,#0]
        0x00003e7a:    e73b        ;.      B        0x3cf4 ; breathingColor + 24
        0x00003e7c:    21ff        .!      MOVS     r1,#0xff
        0x00003e7e:    4a6b        kJ      LDR      r2,[pc,#428] ; [0x402c] = 0x20000278
        0x00003e80:    6011        .`      STR      r1,[r2,#0]
        0x00003e82:    2100        .!      MOVS     r1,#0
        0x00003e84:    4a6a        jJ      LDR      r2,[pc,#424] ; [0x4030] = 0x20000280
        0x00003e86:    6011        .`      STR      r1,[r2,#0]
        0x00003e88:    2106        .!      MOVS     r1,#6
        0x00003e8a:    4a6f        oJ      LDR      r2,[pc,#444] ; [0x4048] = 0x20000284
        0x00003e8c:    6011        .`      STR      r1,[r2,#0]
        0x00003e8e:    e03f        ?.      B        0x3f10 ; breathingColor + 564
        0x00003e90:    4964        dI      LDR      r1,[pc,#400] ; [0x4024] = 0x2000027c
        0x00003e92:    6809        .h      LDR      r1,[r1,#0]
        0x00003e94:    2901        .)      CMP      r1,#1
        0x00003e96:    d002        ..      BEQ      0x3e9e ; breathingColor + 450
        0x00003e98:    4963        cI      LDR      r1,[pc,#396] ; [0x4028] = 0x200002a0
        0x00003e9a:    6808        .h      LDR      r0,[r1,#0]
        0x00003e9c:    e72a        *.      B        0x3cf4 ; breathingColor + 24
        0x00003e9e:    21ff        .!      MOVS     r1,#0xff
        0x00003ea0:    4a62        bJ      LDR      r2,[pc,#392] ; [0x402c] = 0x20000278
        0x00003ea2:    6011        .`      STR      r1,[r2,#0]
        0x00003ea4:    2100        .!      MOVS     r1,#0
        0x00003ea6:    4a62        bJ      LDR      r2,[pc,#392] ; [0x4030] = 0x20000280
        0x00003ea8:    6011        .`      STR      r1,[r2,#0]
        0x00003eaa:    2107        .!      MOVS     r1,#7
        0x00003eac:    4a66        fJ      LDR      r2,[pc,#408] ; [0x4048] = 0x20000284
        0x00003eae:    6011        .`      STR      r1,[r2,#0]
        0x00003eb0:    e02e        ..      B        0x3f10 ; breathingColor + 564
        0x00003eb2:    495c        \I      LDR      r1,[pc,#368] ; [0x4024] = 0x2000027c
        0x00003eb4:    6809        .h      LDR      r1,[r1,#0]
        0x00003eb6:    1c49        I.      ADDS     r1,r1,#1
        0x00003eb8:    4a5a        ZJ      LDR      r2,[pc,#360] ; [0x4024] = 0x2000027c
        0x00003eba:    6011        .`      STR      r1,[r2,#0]
        0x00003ebc:    4611        .F      MOV      r1,r2
        0x00003ebe:    6809        .h      LDR      r1,[r1,#0]
        0x00003ec0:    293c        <)      CMP      r1,#0x3c
        0x00003ec2:    d902        ..      BLS      0x3eca ; breathingColor + 494
        0x00003ec4:    2101        .!      MOVS     r1,#1
        0x00003ec6:    6011        .`      STR      r1,[r2,#0]
        0x00003ec8:    e017        ..      B        0x3efa ; breathingColor + 542
        0x00003eca:    4956        VI      LDR      r1,[pc,#344] ; [0x4024] = 0x2000027c
        0x00003ecc:    6809        .h      LDR      r1,[r1,#0]
        0x00003ece:    292e        .)      CMP      r1,#0x2e
        0x00003ed0:    d907        ..      BLS      0x3ee2 ; breathingColor + 518
        0x00003ed2:    4954        TI      LDR      r1,[pc,#336] ; [0x4024] = 0x2000027c
        0x00003ed4:    6809        .h      LDR      r1,[r1,#0]
        0x00003ed6:    223d        ="      MOVS     r2,#0x3d
        0x00003ed8:    1a51        Q.      SUBS     r1,r2,r1
        0x00003eda:    4a58        XJ      LDR      r2,[pc,#352] ; [0x403c] = 0x200001cc
        0x00003edc:    6011        .`      STR      r1,[r2,#0]
        0x00003ede:    e00c        ..      B        0x3efa ; breathingColor + 542
        0x00003ee0:    e015        ..      B        0x3f0e ; breathingColor + 562
        0x00003ee2:    4950        PI      LDR      r1,[pc,#320] ; [0x4024] = 0x2000027c
        0x00003ee4:    6809        .h      LDR      r1,[r1,#0]
        0x00003ee6:    290f        .)      CMP      r1,#0xf
        0x00003ee8:    d903        ..      BLS      0x3ef2 ; breathingColor + 534
        0x00003eea:    210f        .!      MOVS     r1,#0xf
        0x00003eec:    4a53        SJ      LDR      r2,[pc,#332] ; [0x403c] = 0x200001cc
        0x00003eee:    6011        .`      STR      r1,[r2,#0]
        0x00003ef0:    e003        ..      B        0x3efa ; breathingColor + 542
        0x00003ef2:    494c        LI      LDR      r1,[pc,#304] ; [0x4024] = 0x2000027c
        0x00003ef4:    6809        .h      LDR      r1,[r1,#0]
        0x00003ef6:    4a51        QJ      LDR      r2,[pc,#324] ; [0x403c] = 0x200001cc
        0x00003ef8:    6011        .`      STR      r1,[r2,#0]
        0x00003efa:    4950        PI      LDR      r1,[pc,#320] ; [0x403c] = 0x200001cc
        0x00003efc:    6809        .h      LDR      r1,[r1,#0]
        0x00003efe:    4a4e        NJ      LDR      r2,[pc,#312] ; [0x4038] = 0x200001c4
        0x00003f00:    6011        .`      STR      r1,[r2,#0]
        0x00003f02:    4a4f        OJ      LDR      r2,[pc,#316] ; [0x4040] = 0x200001c8
        0x00003f04:    6011        .`      STR      r1,[r2,#0]
        0x00003f06:    2101        .!      MOVS     r1,#1
        0x00003f08:    4a4e        NJ      LDR      r2,[pc,#312] ; [0x4044] = 0x20000242
        0x00003f0a:    7011        .p      STRB     r1,[r2,#0]
        0x00003f0c:    e000        ..      B        0x3f10 ; breathingColor + 564
        0x00003f0e:    bf00        ..      NOP      
        0x00003f10:    bf00        ..      NOP      
        0x00003f12:    bd00        ..      POP      {pc}
    ledColorSet
        0x00003f14:    b500        ..      PUSH     {lr}
        0x00003f16:    0003        ..      MOVS     r3,r0
        0x00003f18:    f002ff9a    ....    BL       __ARM_common_switch8 ; 0x6e50
    $d
        0x00003f1c:    200e060a    ...     DCD    537789962
        0x00003f20:    594f4517    .EOY    DCD    1498367255
        0x00003f24:    613c342a    *4<a    DCD    1631335466
    $t
        0x00003f28:    2100        .!      MOVS     r1,#0
        0x00003f2a:    4a43        CJ      LDR      r2,[pc,#268] ; [0x4038] = 0x200001c4
        0x00003f2c:    6011        .`      STR      r1,[r2,#0]
        0x00003f2e:    4a43        CJ      LDR      r2,[pc,#268] ; [0x403c] = 0x200001cc
        0x00003f30:    6011        .`      STR      r1,[r2,#0]
        0x00003f32:    4a43        CJ      LDR      r2,[pc,#268] ; [0x4040] = 0x200001c8
        0x00003f34:    6011        .`      STR      r1,[r2,#0]
        0x00003f36:    e053        S.      B        0x3fe0 ; ledColorSet + 204
        0x00003f38:    2114        .!      MOVS     r1,#0x14
        0x00003f3a:    4a3f        ?J      LDR      r2,[pc,#252] ; [0x4038] = 0x200001c4
        0x00003f3c:    6011        .`      STR      r1,[r2,#0]
        0x00003f3e:    2100        .!      MOVS     r1,#0
        0x00003f40:    4a3e        >J      LDR      r2,[pc,#248] ; [0x403c] = 0x200001cc
        0x00003f42:    6011        .`      STR      r1,[r2,#0]
        0x00003f44:    4a3e        >J      LDR      r2,[pc,#248] ; [0x4040] = 0x200001c8
        0x00003f46:    6011        .`      STR      r1,[r2,#0]
        0x00003f48:    e04a        J.      B        0x3fe0 ; ledColorSet + 204
        0x00003f4a:    2100        .!      MOVS     r1,#0
        0x00003f4c:    4a3a        :J      LDR      r2,[pc,#232] ; [0x4038] = 0x200001c4
        0x00003f4e:    6011        .`      STR      r1,[r2,#0]
        0x00003f50:    4a3a        :J      LDR      r2,[pc,#232] ; [0x403c] = 0x200001cc
        0x00003f52:    6011        .`      STR      r1,[r2,#0]
        0x00003f54:    2114        .!      MOVS     r1,#0x14
        0x00003f56:    4a3a        :J      LDR      r2,[pc,#232] ; [0x4040] = 0x200001c8
        0x00003f58:    6011        .`      STR      r1,[r2,#0]
        0x00003f5a:    e041        A.      B        0x3fe0 ; ledColorSet + 204
        0x00003f5c:    2100        .!      MOVS     r1,#0
        0x00003f5e:    4a36        6J      LDR      r2,[pc,#216] ; [0x4038] = 0x200001c4
        0x00003f60:    6011        .`      STR      r1,[r2,#0]
        0x00003f62:    210a        .!      MOVS     r1,#0xa
        0x00003f64:    4a35        5J      LDR      r2,[pc,#212] ; [0x403c] = 0x200001cc
        0x00003f66:    6011        .`      STR      r1,[r2,#0]
        0x00003f68:    2100        .!      MOVS     r1,#0
        0x00003f6a:    4a35        5J      LDR      r2,[pc,#212] ; [0x4040] = 0x200001c8
        0x00003f6c:    6011        .`      STR      r1,[r2,#0]
        0x00003f6e:    e037        7.      B        0x3fe0 ; ledColorSet + 204
        0x00003f70:    210a        .!      MOVS     r1,#0xa
        0x00003f72:    4a31        1J      LDR      r2,[pc,#196] ; [0x4038] = 0x200001c4
        0x00003f74:    6011        .`      STR      r1,[r2,#0]
        0x00003f76:    2105        .!      MOVS     r1,#5
        0x00003f78:    4a30        0J      LDR      r2,[pc,#192] ; [0x403c] = 0x200001cc
        0x00003f7a:    6011        .`      STR      r1,[r2,#0]
        0x00003f7c:    210a        .!      MOVS     r1,#0xa
        0x00003f7e:    4a30        0J      LDR      r2,[pc,#192] ; [0x4040] = 0x200001c8
        0x00003f80:    6011        .`      STR      r1,[r2,#0]
        0x00003f82:    e02d        -.      B        0x3fe0 ; ledColorSet + 204
        0x00003f84:    2114        .!      MOVS     r1,#0x14
        0x00003f86:    4a2c        ,J      LDR      r2,[pc,#176] ; [0x4038] = 0x200001c4
        0x00003f88:    6011        .`      STR      r1,[r2,#0]
        0x00003f8a:    4a2c        ,J      LDR      r2,[pc,#176] ; [0x403c] = 0x200001cc
        0x00003f8c:    6011        .`      STR      r1,[r2,#0]
        0x00003f8e:    4a2c        ,J      LDR      r2,[pc,#176] ; [0x4040] = 0x200001c8
        0x00003f90:    6011        .`      STR      r1,[r2,#0]
        0x00003f92:    e025        %.      B        0x3fe0 ; ledColorSet + 204
        0x00003f94:    2100        .!      MOVS     r1,#0
        0x00003f96:    4a28        (J      LDR      r2,[pc,#160] ; [0x4038] = 0x200001c4
        0x00003f98:    6011        .`      STR      r1,[r2,#0]
        0x00003f9a:    4a28        (J      LDR      r2,[pc,#160] ; [0x403c] = 0x200001cc
        0x00003f9c:    6011        .`      STR      r1,[r2,#0]
        0x00003f9e:    2114        .!      MOVS     r1,#0x14
        0x00003fa0:    4a27        'J      LDR      r2,[pc,#156] ; [0x4040] = 0x200001c8
        0x00003fa2:    6011        .`      STR      r1,[r2,#0]
        0x00003fa4:    e01c        ..      B        0x3fe0 ; ledColorSet + 204
        0x00003fa6:    2114        .!      MOVS     r1,#0x14
        0x00003fa8:    4a23        #J      LDR      r2,[pc,#140] ; [0x4038] = 0x200001c4
        0x00003faa:    6011        .`      STR      r1,[r2,#0]
        0x00003fac:    210a        .!      MOVS     r1,#0xa
        0x00003fae:    4a23        #J      LDR      r2,[pc,#140] ; [0x403c] = 0x200001cc
        0x00003fb0:    6011        .`      STR      r1,[r2,#0]
        0x00003fb2:    2100        .!      MOVS     r1,#0
        0x00003fb4:    4a22        "J      LDR      r2,[pc,#136] ; [0x4040] = 0x200001c8
        0x00003fb6:    6011        .`      STR      r1,[r2,#0]
        0x00003fb8:    e012        ..      B        0x3fe0 ; ledColorSet + 204
        0x00003fba:    2114        .!      MOVS     r1,#0x14
        0x00003fbc:    4a1e        .J      LDR      r2,[pc,#120] ; [0x4038] = 0x200001c4
        0x00003fbe:    6011        .`      STR      r1,[r2,#0]
        0x00003fc0:    2100        .!      MOVS     r1,#0
        0x00003fc2:    4a1e        .J      LDR      r2,[pc,#120] ; [0x403c] = 0x200001cc
        0x00003fc4:    6011        .`      STR      r1,[r2,#0]
        0x00003fc6:    2114        .!      MOVS     r1,#0x14
        0x00003fc8:    4a1d        .J      LDR      r2,[pc,#116] ; [0x4040] = 0x200001c8
        0x00003fca:    6011        .`      STR      r1,[r2,#0]
        0x00003fcc:    e008        ..      B        0x3fe0 ; ledColorSet + 204
        0x00003fce:    2114        .!      MOVS     r1,#0x14
        0x00003fd0:    4a19        .J      LDR      r2,[pc,#100] ; [0x4038] = 0x200001c4
        0x00003fd2:    6011        .`      STR      r1,[r2,#0]
        0x00003fd4:    4a19        .J      LDR      r2,[pc,#100] ; [0x403c] = 0x200001cc
        0x00003fd6:    6011        .`      STR      r1,[r2,#0]
        0x00003fd8:    4a19        .J      LDR      r2,[pc,#100] ; [0x4040] = 0x200001c8
        0x00003fda:    6011        .`      STR      r1,[r2,#0]
        0x00003fdc:    e000        ..      B        0x3fe0 ; ledColorSet + 204
        0x00003fde:    bd00        ..      POP      {pc}
        0x00003fe0:    bf00        ..      NOP      
        0x00003fe2:    bf00        ..      NOP      
        0x00003fe4:    e7fb        ..      B        0x3fde ; ledColorSet + 202
    ledTask
        0x00003fe6:    b510        ..      PUSH     {r4,lr}
        0x00003fe8:    bf00        ..      NOP      
        0x00003fea:    480b        .H      LDR      r0,[pc,#44] ; [0x4018] = 0x50004230
        0x00003fec:    3038        80      ADDS     r0,r0,#0x38
        0x00003fee:    6800        .h      LDR      r0,[r0,#0]
        0x00003ff0:    2800        .(      CMP      r0,#0
        0x00003ff2:    d101        ..      BNE      0x3ff8 ; ledTask + 18
        0x00003ff4:    f002fbce    ....    BL       DWHP83DealMsg ; 0x6794
        0x00003ff8:    4814        .H      LDR      r0,[pc,#80] ; [0x404c] = 0x20000568
        0x00003ffa:    7800        .x      LDRB     r0,[r0,#0]
        0x00003ffc:    2800        .(      CMP      r0,#0
        0x00003ffe:    d131        1.      BNE      0x4064 ; ledTask + 126
        0x00004000:    4813        .H      LDR      r0,[pc,#76] ; [0x4050] = 0x20000170
        0x00004002:    7800        .x      LDRB     r0,[r0,#0]
        0x00004004:    2801        .(      CMP      r0,#1
        0x00004006:    d12d        -.      BNE      0x4064 ; ledTask + 126
        0x00004008:    bf00        ..      NOP      
        0x0000400a:    4803        .H      LDR      r0,[pc,#12] ; [0x4018] = 0x50004230
        0x0000400c:    300c        .0      ADDS     r0,r0,#0xc
        0x0000400e:    6800        .h      LDR      r0,[r0,#0]
        0x00004010:    2800        .(      CMP      r0,#0
        0x00004012:    e01f        ..      B        0x4054 ; ledTask + 110
    $d
        0x00004014:    40010000    ...@    DCD    1073807360
        0x00004018:    50004230    0B.P    DCD    1342194224
        0x0000401c:    50004000    .@.P    DCD    1342193664
        0x00004020:    50000200    ...P    DCD    1342177792
        0x00004024:    2000027c    |..     DCD    536871548
        0x00004028:    200002a0    ...     DCD    536871584
        0x0000402c:    20000278    x..     DCD    536871544
        0x00004030:    20000280    ...     DCD    536871552
        0x00004034:    20000298    ...     DCD    536871576
        0x00004038:    200001c4    ...     DCD    536871364
        0x0000403c:    200001cc    ...     DCD    536871372
        0x00004040:    200001c8    ...     DCD    536871368
        0x00004044:    20000242    B..     DCD    536871490
        0x00004048:    20000284    ...     DCD    536871556
        0x0000404c:    20000568    h..     DCD    536872296
        0x00004050:    20000170    p..     DCD    536871280
    $t
        0x00004054:    d003        ..      BEQ      0x405e ; ledTask + 120
        0x00004056:    2000        .       MOVS     r0,#0
        0x00004058:    f7ffff5c    ..\.    BL       ledColorSet ; 0x3f14
        0x0000405c:    e002        ..      B        0x4064 ; ledTask + 126
        0x0000405e:    2003        .       MOVS     r0,#3
        0x00004060:    f7ffff58    ..X.    BL       ledColorSet ; 0x3f14
        0x00004064:    4b27        'K      LDR      r3,[pc,#156] ; [0x4104] = 0x3fe7
        0x00004066:    2200        ."      MOVS     r2,#0
        0x00004068:    211e        .!      MOVS     r1,#0x1e
        0x0000406a:    4827        'H      LDR      r0,[pc,#156] ; [0x4108] = 0x20000236
        0x0000406c:    7800        .x      LDRB     r0,[r0,#0]
        0x0000406e:    f7fef9c3    ....    BL       startATask ; 0x23f8
        0x00004072:    bd10        ..      POP      {r4,pc}
    ledTaskInit
        0x00004074:    b510        ..      PUSH     {r4,lr}
        0x00004076:    f7fef98f    ....    BL       getATask ; 0x2398
        0x0000407a:    4923        #I      LDR      r1,[pc,#140] ; [0x4108] = 0x20000236
        0x0000407c:    7008        .p      STRB     r0,[r1,#0]
        0x0000407e:    4608        .F      MOV      r0,r1
        0x00004080:    7800        .x      LDRB     r0,[r0,#0]
        0x00004082:    28ff        .(      CMP      r0,#0xff
        0x00004084:    d006        ..      BEQ      0x4094 ; ledTaskInit + 32
        0x00004086:    4b1f        .K      LDR      r3,[pc,#124] ; [0x4104] = 0x3fe7
        0x00004088:    2200        ."      MOVS     r2,#0
        0x0000408a:    211e        .!      MOVS     r1,#0x1e
        0x0000408c:    481e        .H      LDR      r0,[pc,#120] ; [0x4108] = 0x20000236
        0x0000408e:    7800        .x      LDRB     r0,[r0,#0]
        0x00004090:    f7fef9b2    ....    BL       startATask ; 0x23f8
        0x00004094:    bd10        ..      POP      {r4,pc}
    NVIC_SetPriority
        0x00004096:    b510        ..      PUSH     {r4,lr}
        0x00004098:    2800        .(      CMP      r0,#0
        0x0000409a:    da19        ..      BGE      0x40d0 ; NVIC_SetPriority + 58
        0x0000409c:    4a1b        .J      LDR      r2,[pc,#108] ; [0x410c] = 0xe000ed1c
        0x0000409e:    0703        ..      LSLS     r3,r0,#28
        0x000040a0:    0f1b        ..      LSRS     r3,r3,#28
        0x000040a2:    3b08        .;      SUBS     r3,r3,#8
        0x000040a4:    089b        ..      LSRS     r3,r3,#2
        0x000040a6:    009b        ..      LSLS     r3,r3,#2
        0x000040a8:    58d2        .X      LDR      r2,[r2,r3]
        0x000040aa:    0783        ..      LSLS     r3,r0,#30
        0x000040ac:    0edc        ..      LSRS     r4,r3,#27
        0x000040ae:    23ff        .#      MOVS     r3,#0xff
        0x000040b0:    40a3        .@      LSLS     r3,r3,r4
        0x000040b2:    439a        .C      BICS     r2,r2,r3
        0x000040b4:    078b        ..      LSLS     r3,r1,#30
        0x000040b6:    0e1b        ..      LSRS     r3,r3,#24
        0x000040b8:    0784        ..      LSLS     r4,r0,#30
        0x000040ba:    0ee4        ..      LSRS     r4,r4,#27
        0x000040bc:    40a3        .@      LSLS     r3,r3,r4
        0x000040be:    431a        .C      ORRS     r2,r2,r3
        0x000040c0:    4b12        .K      LDR      r3,[pc,#72] ; [0x410c] = 0xe000ed1c
        0x000040c2:    0704        ..      LSLS     r4,r0,#28
        0x000040c4:    0f24        $.      LSRS     r4,r4,#28
        0x000040c6:    3c08        .<      SUBS     r4,r4,#8
        0x000040c8:    08a4        ..      LSRS     r4,r4,#2
        0x000040ca:    00a4        ..      LSLS     r4,r4,#2
        0x000040cc:    511a        .Q      STR      r2,[r3,r4]
        0x000040ce:    e018        ..      B        0x4102 ; NVIC_SetPriority + 108
        0x000040d0:    4a0f        .J      LDR      r2,[pc,#60] ; [0x4110] = 0xe000e100
        0x000040d2:    2303        .#      MOVS     r3,#3
        0x000040d4:    021b        ..      LSLS     r3,r3,#8
        0x000040d6:    18d2        ..      ADDS     r2,r2,r3
        0x000040d8:    0883        ..      LSRS     r3,r0,#2
        0x000040da:    009b        ..      LSLS     r3,r3,#2
        0x000040dc:    58d2        .X      LDR      r2,[r2,r3]
        0x000040de:    0783        ..      LSLS     r3,r0,#30
        0x000040e0:    0edc        ..      LSRS     r4,r3,#27
        0x000040e2:    23ff        .#      MOVS     r3,#0xff
        0x000040e4:    40a3        .@      LSLS     r3,r3,r4
        0x000040e6:    439a        .C      BICS     r2,r2,r3
        0x000040e8:    078b        ..      LSLS     r3,r1,#30
        0x000040ea:    0e1b        ..      LSRS     r3,r3,#24
        0x000040ec:    0784        ..      LSLS     r4,r0,#30
        0x000040ee:    0ee4        ..      LSRS     r4,r4,#27
        0x000040f0:    40a3        .@      LSLS     r3,r3,r4
        0x000040f2:    431a        .C      ORRS     r2,r2,r3
        0x000040f4:    4b06        .K      LDR      r3,[pc,#24] ; [0x4110] = 0xe000e100
        0x000040f6:    2403        .$      MOVS     r4,#3
        0x000040f8:    0224        $.      LSLS     r4,r4,#8
        0x000040fa:    191b        ..      ADDS     r3,r3,r4
        0x000040fc:    0884        ..      LSRS     r4,r0,#2
        0x000040fe:    00a4        ..      LSLS     r4,r4,#2
        0x00004100:    511a        .Q      STR      r2,[r3,r4]
        0x00004102:    bd10        ..      POP      {r4,pc}
    $d
        0x00004104:    00003fe7    .?..    DCD    16359
        0x00004108:    20000236    6..     DCD    536871478
        0x0000410c:    e000ed1c    ....    DCD    3758157084
        0x00004110:    e000e100    ....    DCD    3758153984
    $t
    .text
    GPIO_SET_MODE
        0x00004114:    b530        0.      PUSH     {r4,r5,lr}
        0x00004116:    6803        .h      LDR      r3,[r0,#0]
        0x00004118:    004d        M.      LSLS     r5,r1,#1
        0x0000411a:    2403        .$      MOVS     r4,#3
        0x0000411c:    40ac        .@      LSLS     r4,r4,r5
        0x0000411e:    43a3        .C      BICS     r3,r3,r4
        0x00004120:    004d        M.      LSLS     r5,r1,#1
        0x00004122:    4614        .F      MOV      r4,r2
        0x00004124:    40ac        .@      LSLS     r4,r4,r5
        0x00004126:    4323        #C      ORRS     r3,r3,r4
        0x00004128:    6003        .`      STR      r3,[r0,#0]
        0x0000412a:    bd30        0.      POP      {r4,r5,pc}
    SPI_SET_TX_BIT_LEN
        0x0000412c:    6802        .h      LDR      r2,[r0,#0]
        0x0000412e:    23f8        .#      MOVS     r3,#0xf8
        0x00004130:    439a        .C      BICS     r2,r2,r3
        0x00004132:    2920         )      CMP      r1,#0x20
        0x00004134:    d001        ..      BEQ      0x413a ; SPI_SET_TX_BIT_LEN + 14
        0x00004136:    460b        .F      MOV      r3,r1
        0x00004138:    e000        ..      B        0x413c ; SPI_SET_TX_BIT_LEN + 16
        0x0000413a:    2300        .#      MOVS     r3,#0
        0x0000413c:    00db        ..      LSLS     r3,r3,#3
        0x0000413e:    431a        .C      ORRS     r2,r2,r3
        0x00004140:    6002        .`      STR      r2,[r0,#0]
        0x00004142:    4770        pG      BX       lr
    spiSendWord
        0x00004144:    b570        p.      PUSH     {r4-r6,lr}
        0x00004146:    4604        .F      MOV      r4,r0
        0x00004148:    460d        .F      MOV      r5,r1
        0x0000414a:    4629        )F      MOV      r1,r5
        0x0000414c:    48f9        .H      LDR      r0,[pc,#996] ; [0x4534] = 0x40130000
        0x0000414e:    f7ffffed    ....    BL       SPI_SET_TX_BIT_LEN ; 0x412c
        0x00004152:    4621        !F      MOV      r1,r4
        0x00004154:    48f7        .H      LDR      r0,[pc,#988] ; [0x4534] = 0x40130000
        0x00004156:    f000fe7c    ..|.    BL       SPI_WRITE_TX0 ; 0x4e52
        0x0000415a:    48f6        .H      LDR      r0,[pc,#984] ; [0x4534] = 0x40130000
        0x0000415c:    f000fe58    ..X.    BL       SPI_SET_GO ; 0x4e10
        0x00004160:    bf00        ..      NOP      
        0x00004162:    48f4        .H      LDR      r0,[pc,#976] ; [0x4534] = 0x40130000
        0x00004164:    f000fe59    ..Y.    BL       SPI_IS_BUSY ; 0x4e1a
        0x00004168:    2800        .(      CMP      r0,#0
        0x0000416a:    d1fa        ..      BNE      0x4162 ; spiSendWord + 30
        0x0000416c:    bd70        p.      POP      {r4-r6,pc}
    I2SClkInit
        0x0000416e:    b570        p.      PUSH     {r4-r6,lr}
        0x00004170:    4605        .F      MOV      r5,r0
        0x00004172:    bf00        ..      NOP      
        0x00004174:    2005        .       MOVS     r0,#5
        0x00004176:    0700        ..      LSLS     r0,r0,#28
        0x00004178:    6b80        .k      LDR      r0,[r0,#0x38]
        0x0000417a:    210f        .!      MOVS     r1,#0xf
        0x0000417c:    4308        .C      ORRS     r0,r0,r1
        0x0000417e:    2105        .!      MOVS     r1,#5
        0x00004180:    0709        ..      LSLS     r1,r1,#28
        0x00004182:    6388        .c      STR      r0,[r1,#0x38]
        0x00004184:    48ec        .H      LDR      r0,[pc,#944] ; [0x4538] = 0x50000040
        0x00004186:    6900        .i      LDR      r0,[r0,#0x10]
        0x00004188:    21ff        .!      MOVS     r1,#0xff
        0x0000418a:    31e1        .1      ADDS     r1,r1,#0xe1
        0x0000418c:    4308        .C      ORRS     r0,r0,r1
        0x0000418e:    49ea        .I      LDR      r1,[pc,#936] ; [0x4538] = 0x50000040
        0x00004190:    6108        .a      STR      r0,[r1,#0x10]
        0x00004192:    bf00        ..      NOP      
        0x00004194:    bf00        ..      NOP      
        0x00004196:    2005        .       MOVS     r0,#5
        0x00004198:    0700        ..      LSLS     r0,r0,#28
        0x0000419a:    6b80        .k      LDR      r0,[r0,#0x38]
        0x0000419c:    0189        ..      LSLS     r1,r1,#6
        0x0000419e:    4388        .C      BICS     r0,r0,r1
        0x000041a0:    2105        .!      MOVS     r1,#5
        0x000041a2:    0709        ..      LSLS     r1,r1,#28
        0x000041a4:    6388        .c      STR      r0,[r1,#0x38]
        0x000041a6:    48e4        .H      LDR      r0,[pc,#912] ; [0x4538] = 0x50000040
        0x000041a8:    6900        .i      LDR      r0,[r0,#0x10]
        0x000041aa:    2101        .!      MOVS     r1,#1
        0x000041ac:    0509        ..      LSLS     r1,r1,#20
        0x000041ae:    4308        .C      ORRS     r0,r0,r1
        0x000041b0:    49e1        .I      LDR      r1,[pc,#900] ; [0x4538] = 0x50000040
        0x000041b2:    6108        .a      STR      r0,[r1,#0x10]
        0x000041b4:    bf00        ..      NOP      
        0x000041b6:    2001        .       MOVS     r0,#1
        0x000041b8:    49e0        .I      LDR      r1,[pc,#896] ; [0x453c] = 0x50000200
        0x000041ba:    69c9        .i      LDR      r1,[r1,#0x1c]
        0x000041bc:    0889        ..      LSRS     r1,r1,#2
        0x000041be:    0089        ..      LSLS     r1,r1,#2
        0x000041c0:    4301        .C      ORRS     r1,r1,r0
        0x000041c2:    4ade        .J      LDR      r2,[pc,#888] ; [0x453c] = 0x50000200
        0x000041c4:    61d1        .a      STR      r1,[r2,#0x1c]
        0x000041c6:    bf00        ..      NOP      
        0x000041c8:    0740        @.      LSLS     r0,r0,#29
        0x000041ca:    4611        .F      MOV      r1,r2
        0x000041cc:    6889        .h      LDR      r1,[r1,#8]
        0x000041ce:    4301        .C      ORRS     r1,r1,r0
        0x000041d0:    6091        .`      STR      r1,[r2,#8]
        0x000041d2:    bf00        ..      NOP      
        0x000041d4:    bf00        ..      NOP      
        0x000041d6:    2105        .!      MOVS     r1,#5
        0x000041d8:    0709        ..      LSLS     r1,r1,#28
        0x000041da:    68c9        .h      LDR      r1,[r1,#0xc]
        0x000041dc:    4301        .C      ORRS     r1,r1,r0
        0x000041de:    2205        ."      MOVS     r2,#5
        0x000041e0:    0712        ..      LSLS     r2,r2,#28
        0x000041e2:    60d1        .`      STR      r1,[r2,#0xc]
        0x000041e4:    4611        .F      MOV      r1,r2
        0x000041e6:    68c9        .h      LDR      r1,[r1,#0xc]
        0x000041e8:    4381        .C      BICS     r1,r1,r0
        0x000041ea:    60d1        .`      STR      r1,[r2,#0xc]
        0x000041ec:    bf00        ..      NOP      
        0x000041ee:    f000fdd0    ....    BL       I2S_CLR_RXFIFO ; 0x4d92
        0x000041f2:    f000fdd6    ....    BL       I2S_CLR_TXFIFO ; 0x4da2
        0x000041f6:    48d2        .H      LDR      r0,[pc,#840] ; [0x4540] = 0xbb80
        0x000041f8:    4285        .B      CMP      r5,r0
        0x000041fa:    d103        ..      BNE      0x4204 ; I2SClkInit + 150
        0x000041fc:    2003        .       MOVS     r0,#3
        0x000041fe:    f000fdd8    ....    BL       I2S_SET_MCK_DIV ; 0x4db2
        0x00004202:    e00c        ..      B        0x421e ; I2SClkInit + 176
        0x00004204:    48cf        .H      LDR      r0,[pc,#828] ; [0x4544] = 0x5dc0
        0x00004206:    4285        .B      CMP      r5,r0
        0x00004208:    d103        ..      BNE      0x4212 ; I2SClkInit + 164
        0x0000420a:    2006        .       MOVS     r0,#6
        0x0000420c:    f000fdd1    ....    BL       I2S_SET_MCK_DIV ; 0x4db2
        0x00004210:    e005        ..      B        0x421e ; I2SClkInit + 176
        0x00004212:    48cd        .H      LDR      r0,[pc,#820] ; [0x4548] = 0x2ee0
        0x00004214:    4285        .B      CMP      r5,r0
        0x00004216:    d102        ..      BNE      0x421e ; I2SClkInit + 176
        0x00004218:    200c        .       MOVS     r0,#0xc
        0x0000421a:    f000fdca    ....    BL       I2S_SET_MCK_DIV ; 0x4db2
        0x0000421e:    01e9        ..      LSLS     r1,r5,#7
        0x00004220:    48ca        .H      LDR      r0,[pc,#808] ; [0x454c] = 0x2bf0bfb0
        0x00004222:    f002fddb    ....    BL       __aeabi_uidiv ; 0x6ddc
        0x00004226:    1d46        F.      ADDS     r6,r0,#5
        0x00004228:    210a        .!      MOVS     r1,#0xa
        0x0000422a:    4630        0F      MOV      r0,r6
        0x0000422c:    f002fdd6    ....    BL       __aeabi_uidiv ; 0x6ddc
        0x00004230:    1e44        D.      SUBS     r4,r0,#1
        0x00004232:    4620         F      MOV      r0,r4
        0x00004234:    49c6        .I      LDR      r1,[pc,#792] ; [0x4550] = 0x401a0000
        0x00004236:    6849        Ih      LDR      r1,[r1,#4]
        0x00004238:    22ff        ."      MOVS     r2,#0xff
        0x0000423a:    0212        ..      LSLS     r2,r2,#8
        0x0000423c:    4391        .C      BICS     r1,r1,r2
        0x0000423e:    0202        ..      LSLS     r2,r0,#8
        0x00004240:    4311        .C      ORRS     r1,r1,r2
        0x00004242:    4ac3        .J      LDR      r2,[pc,#780] ; [0x4550] = 0x401a0000
        0x00004244:    6051        Q`      STR      r1,[r2,#4]
        0x00004246:    bf00        ..      NOP      
        0x00004248:    4cc2        .L      LDR      r4,[pc,#776] ; [0x4554] = 0x9201
        0x0000424a:    2020                MOVS     r0,#0x20
        0x0000424c:    2808        .(      CMP      r0,#8
        0x0000424e:    d00e        ..      BEQ      0x426e ; I2SClkInit + 256
        0x00004250:    2810        .(      CMP      r0,#0x10
        0x00004252:    d009        ..      BEQ      0x4268 ; I2SClkInit + 250
        0x00004254:    2818        .(      CMP      r0,#0x18
        0x00004256:    d004        ..      BEQ      0x4262 ; I2SClkInit + 244
        0x00004258:    2820         (      CMP      r0,#0x20
        0x0000425a:    d10a        ..      BNE      0x4272 ; I2SClkInit + 260
        0x0000425c:    2030        0       MOVS     r0,#0x30
        0x0000425e:    4304        .C      ORRS     r4,r4,r0
        0x00004260:    e008        ..      B        0x4274 ; I2SClkInit + 262
        0x00004262:    2020                MOVS     r0,#0x20
        0x00004264:    4304        .C      ORRS     r4,r4,r0
        0x00004266:    e005        ..      B        0x4274 ; I2SClkInit + 262
        0x00004268:    2010        .       MOVS     r0,#0x10
        0x0000426a:    4304        .C      ORRS     r4,r4,r0
        0x0000426c:    e002        ..      B        0x4274 ; I2SClkInit + 262
        0x0000426e:    bf00        ..      NOP      
        0x00004270:    e000        ..      B        0x4274 ; I2SClkInit + 262
        0x00004272:    bf00        ..      NOP      
        0x00004274:    bf00        ..      NOP      
        0x00004276:    bf00        ..      NOP      
        0x00004278:    48b5        .H      LDR      r0,[pc,#724] ; [0x4550] = 0x401a0000
        0x0000427a:    6004        .`      STR      r4,[r0,#0]
        0x0000427c:    bf00        ..      NOP      
        0x0000427e:    bd70        p.      POP      {r4-r6,pc}
    i2sStart
        0x00004280:    b510        ..      PUSH     {r4,lr}
        0x00004282:    f000fd8e    ....    BL       I2S_CLR_TXFIFO ; 0x4da2
        0x00004286:    bf00        ..      NOP      
        0x00004288:    48b1        .H      LDR      r0,[pc,#708] ; [0x4550] = 0x401a0000
        0x0000428a:    6800        .h      LDR      r0,[r0,#0]
        0x0000428c:    2102        .!      MOVS     r1,#2
        0x0000428e:    4308        .C      ORRS     r0,r0,r1
        0x00004290:    49af        .I      LDR      r1,[pc,#700] ; [0x4550] = 0x401a0000
        0x00004292:    6008        .`      STR      r0,[r1,#0]
        0x00004294:    bf00        ..      NOP      
        0x00004296:    f000fd7c    ..|.    BL       I2S_CLR_RXFIFO ; 0x4d92
        0x0000429a:    bf00        ..      NOP      
        0x0000429c:    48ac        .H      LDR      r0,[pc,#688] ; [0x4550] = 0x401a0000
        0x0000429e:    6800        .h      LDR      r0,[r0,#0]
        0x000042a0:    2104        .!      MOVS     r1,#4
        0x000042a2:    4308        .C      ORRS     r0,r0,r1
        0x000042a4:    49aa        .I      LDR      r1,[pc,#680] ; [0x4550] = 0x401a0000
        0x000042a6:    6008        .`      STR      r0,[r1,#0]
        0x000042a8:    bf00        ..      NOP      
        0x000042aa:    2004        .       MOVS     r0,#4
        0x000042ac:    f7fcfb8a    ....    BL       DrvI2S_EnableInt ; 0x9c4
        0x000042b0:    2101        .!      MOVS     r1,#1
        0x000042b2:    201b        .       MOVS     r0,#0x1b
        0x000042b4:    f000fd36    ..6.    BL       NVIC_SetPriority ; 0x4d24
        0x000042b8:    bd10        ..      POP      {r4,pc}
    SPI2_IRQHandler
        0x000042ba:    4770        pG      BX       lr
    spiFlashRead
        0x000042bc:    b5f8        ..      PUSH     {r3-r7,lr}
        0x000042be:    4607        .F      MOV      r7,r0
        0x000042c0:    460d        .F      MOV      r5,r1
        0x000042c2:    4616        .F      MOV      r6,r2
        0x000042c4:    2400        .$      MOVS     r4,#0
        0x000042c6:    489b        .H      LDR      r0,[pc,#620] ; [0x4534] = 0x40130000
        0x000042c8:    f000fdbe    ....    BL       SPI_CLR_SS0 ; 0x4e48
        0x000042cc:    4899        .H      LDR      r0,[pc,#612] ; [0x4534] = 0x40130000
        0x000042ce:    f000fd7e    ..~.    BL       SPI_DISABLE_REORDER ; 0x4dce
        0x000042d2:    4898        .H      LDR      r0,[pc,#608] ; [0x4534] = 0x40130000
        0x000042d4:    f000fdb3    ....    BL       SPI_SET_SS0 ; 0x4e3e
        0x000042d8:    2108        .!      MOVS     r1,#8
        0x000042da:    2003        .       MOVS     r0,#3
        0x000042dc:    f7ffff32    ..2.    BL       spiSendWord ; 0x4144
        0x000042e0:    2118        .!      MOVS     r1,#0x18
        0x000042e2:    4638        8F      MOV      r0,r7
        0x000042e4:    f7ffff2e    ....    BL       spiSendWord ; 0x4144
        0x000042e8:    4892        .H      LDR      r0,[pc,#584] ; [0x4534] = 0x40130000
        0x000042ea:    f000fd6a    ..j.    BL       SPI_ENABLE_REORDER ; 0x4dc2
        0x000042ee:    e007        ..      B        0x4300 ; spiFlashRead + 68
        0x000042f0:    2108        .!      MOVS     r1,#8
        0x000042f2:    20ff        .       MOVS     r0,#0xff
        0x000042f4:    f7ffff26    ..&.    BL       spiSendWord ; 0x4144
        0x000042f8:    488e        .H      LDR      r0,[pc,#568] ; [0x4534] = 0x40130000
        0x000042fa:    6900        .i      LDR      r0,[r0,#0x10]
        0x000042fc:    5530        0U      STRB     r0,[r6,r4]
        0x000042fe:    1c64        d.      ADDS     r4,r4,#1
        0x00004300:    42ac        .B      CMP      r4,r5
        0x00004302:    d3f5        ..      BCC      0x42f0 ; spiFlashRead + 52
        0x00004304:    488b        .H      LDR      r0,[pc,#556] ; [0x4534] = 0x40130000
        0x00004306:    f000fd9f    ....    BL       SPI_CLR_SS0 ; 0x4e48
        0x0000430a:    bdf8        ..      POP      {r3-r7,pc}
    spiFlashPageWrite
        0x0000430c:    b5f8        ..      PUSH     {r3-r7,lr}
        0x0000430e:    4605        .F      MOV      r5,r0
        0x00004310:    460c        .F      MOV      r4,r1
        0x00004312:    4617        .F      MOV      r7,r2
        0x00004314:    2600        .&      MOVS     r6,#0
        0x00004316:    2c00        .,      CMP      r4,#0
        0x00004318:    d009        ..      BEQ      0x432e ; spiFlashPageWrite + 34
        0x0000431a:    0328        (.      LSLS     r0,r5,#12
        0x0000431c:    0b00        ..      LSRS     r0,r0,#12
        0x0000431e:    2107        .!      MOVS     r1,#7
        0x00004320:    0449        I.      LSLS     r1,r1,#17
        0x00004322:    4288        .B      CMP      r0,r1
        0x00004324:    d303        ..      BCC      0x432e ; spiFlashPageWrite + 34
        0x00004326:    20ff        .       MOVS     r0,#0xff
        0x00004328:    3001        .0      ADDS     r0,#1
        0x0000432a:    4284        .B      CMP      r4,r0
        0x0000432c:    d901        ..      BLS      0x4332 ; spiFlashPageWrite + 38
        0x0000432e:    2000        .       MOVS     r0,#0
        0x00004330:    bdf8        ..      POP      {r3-r7,pc}
        0x00004332:    4880        .H      LDR      r0,[pc,#512] ; [0x4534] = 0x40130000
        0x00004334:    f000fd88    ....    BL       SPI_CLR_SS0 ; 0x4e48
        0x00004338:    487e        ~H      LDR      r0,[pc,#504] ; [0x4534] = 0x40130000
        0x0000433a:    f000fd48    ..H.    BL       SPI_DISABLE_REORDER ; 0x4dce
        0x0000433e:    487d        }H      LDR      r0,[pc,#500] ; [0x4534] = 0x40130000
        0x00004340:    f000fd7d    ..}.    BL       SPI_SET_SS0 ; 0x4e3e
        0x00004344:    2108        .!      MOVS     r1,#8
        0x00004346:    2006        .       MOVS     r0,#6
        0x00004348:    f7fffefc    ....    BL       spiSendWord ; 0x4144
        0x0000434c:    4879        yH      LDR      r0,[pc,#484] ; [0x4534] = 0x40130000
        0x0000434e:    f000fd7b    ..{.    BL       SPI_CLR_SS0 ; 0x4e48
        0x00004352:    bf00        ..      NOP      
        0x00004354:    4877        wH      LDR      r0,[pc,#476] ; [0x4534] = 0x40130000
        0x00004356:    f000fd72    ..r.    BL       SPI_SET_SS0 ; 0x4e3e
        0x0000435a:    2108        .!      MOVS     r1,#8
        0x0000435c:    2002        .       MOVS     r0,#2
        0x0000435e:    f7fffef1    ....    BL       spiSendWord ; 0x4144
        0x00004362:    0a28        (.      LSRS     r0,r5,#8
        0x00004364:    0200        ..      LSLS     r0,r0,#8
        0x00004366:    2118        .!      MOVS     r1,#0x18
        0x00004368:    f7fffeec    ....    BL       spiSendWord ; 0x4144
        0x0000436c:    2600        .&      MOVS     r6,#0
        0x0000436e:    e004        ..      B        0x437a ; spiFlashPageWrite + 110
        0x00004370:    5db8        .]      LDRB     r0,[r7,r6]
        0x00004372:    2108        .!      MOVS     r1,#8
        0x00004374:    f7fffee6    ....    BL       spiSendWord ; 0x4144
        0x00004378:    1c76        v.      ADDS     r6,r6,#1
        0x0000437a:    42a6        .B      CMP      r6,r4
        0x0000437c:    d3f8        ..      BCC      0x4370 ; spiFlashPageWrite + 100
        0x0000437e:    486d        mH      LDR      r0,[pc,#436] ; [0x4534] = 0x40130000
        0x00004380:    f000fd62    ..b.    BL       SPI_CLR_SS0 ; 0x4e48
        0x00004384:    486b        kH      LDR      r0,[pc,#428] ; [0x4534] = 0x40130000
        0x00004386:    f000fd22    ..".    BL       SPI_DISABLE_REORDER ; 0x4dce
        0x0000438a:    486a        jH      LDR      r0,[pc,#424] ; [0x4534] = 0x40130000
        0x0000438c:    f000fd57    ..W.    BL       SPI_SET_SS0 ; 0x4e3e
        0x00004390:    2108        .!      MOVS     r1,#8
        0x00004392:    2004        .       MOVS     r0,#4
        0x00004394:    f7fffed6    ....    BL       spiSendWord ; 0x4144
        0x00004398:    4866        fH      LDR      r0,[pc,#408] ; [0x4534] = 0x40130000
        0x0000439a:    f000fd55    ..U.    BL       SPI_CLR_SS0 ; 0x4e48
        0x0000439e:    4865        eH      LDR      r0,[pc,#404] ; [0x4534] = 0x40130000
        0x000043a0:    f000fd52    ..R.    BL       SPI_CLR_SS0 ; 0x4e48
        0x000043a4:    4863        cH      LDR      r0,[pc,#396] ; [0x4534] = 0x40130000
        0x000043a6:    f000fd12    ....    BL       SPI_DISABLE_REORDER ; 0x4dce
        0x000043aa:    4862        bH      LDR      r0,[pc,#392] ; [0x4534] = 0x40130000
        0x000043ac:    f000fd47    ..G.    BL       SPI_SET_SS0 ; 0x4e3e
        0x000043b0:    2108        .!      MOVS     r1,#8
        0x000043b2:    2005        .       MOVS     r0,#5
        0x000043b4:    f7fffec6    ....    BL       spiSendWord ; 0x4144
        0x000043b8:    2108        .!      MOVS     r1,#8
        0x000043ba:    20ff        .       MOVS     r0,#0xff
        0x000043bc:    f7fffec2    ....    BL       spiSendWord ; 0x4144
        0x000043c0:    485c        \H      LDR      r0,[pc,#368] ; [0x4534] = 0x40130000
        0x000043c2:    6900        .i      LDR      r0,[r0,#0x10]
        0x000043c4:    4964        dI      LDR      r1,[pc,#400] ; [0x4558] = 0x200002c0
        0x000043c6:    7008        .p      STRB     r0,[r1,#0]
        0x000043c8:    485a        ZH      LDR      r0,[pc,#360] ; [0x4534] = 0x40130000
        0x000043ca:    f000fd3d    ..=.    BL       SPI_CLR_SS0 ; 0x4e48
        0x000043ce:    e017        ..      B        0x4400 ; spiFlashPageWrite + 244
        0x000043d0:    4858        XH      LDR      r0,[pc,#352] ; [0x4534] = 0x40130000
        0x000043d2:    f000fd39    ..9.    BL       SPI_CLR_SS0 ; 0x4e48
        0x000043d6:    4857        WH      LDR      r0,[pc,#348] ; [0x4534] = 0x40130000
        0x000043d8:    f000fcf9    ....    BL       SPI_DISABLE_REORDER ; 0x4dce
        0x000043dc:    4855        UH      LDR      r0,[pc,#340] ; [0x4534] = 0x40130000
        0x000043de:    f000fd2e    ....    BL       SPI_SET_SS0 ; 0x4e3e
        0x000043e2:    2108        .!      MOVS     r1,#8
        0x000043e4:    2005        .       MOVS     r0,#5
        0x000043e6:    f7fffead    ....    BL       spiSendWord ; 0x4144
        0x000043ea:    2108        .!      MOVS     r1,#8
        0x000043ec:    20ff        .       MOVS     r0,#0xff
        0x000043ee:    f7fffea9    ....    BL       spiSendWord ; 0x4144
        0x000043f2:    4850        PH      LDR      r0,[pc,#320] ; [0x4534] = 0x40130000
        0x000043f4:    6900        .i      LDR      r0,[r0,#0x10]
        0x000043f6:    4958        XI      LDR      r1,[pc,#352] ; [0x4558] = 0x200002c0
        0x000043f8:    7008        .p      STRB     r0,[r1,#0]
        0x000043fa:    484e        NH      LDR      r0,[pc,#312] ; [0x4534] = 0x40130000
        0x000043fc:    f000fd24    ..$.    BL       SPI_CLR_SS0 ; 0x4e48
        0x00004400:    4855        UH      LDR      r0,[pc,#340] ; [0x4558] = 0x200002c0
        0x00004402:    7800        .x      LDRB     r0,[r0,#0]
        0x00004404:    07c0        ..      LSLS     r0,r0,#31
        0x00004406:    0fc0        ..      LSRS     r0,r0,#31
        0x00004408:    d1e2        ..      BNE      0x43d0 ; spiFlashPageWrite + 196
        0x0000440a:    2001        .       MOVS     r0,#1
        0x0000440c:    e790        ..      B        0x4330 ; spiFlashPageWrite + 36
    spiFlashInit
        0x0000440e:    b510        ..      PUSH     {r4,lr}
        0x00004410:    bf00        ..      NOP      
        0x00004412:    2005        .       MOVS     r0,#5
        0x00004414:    0700        ..      LSLS     r0,r0,#28
        0x00004416:    6b40        @k      LDR      r0,[r0,#0x34]
        0x00004418:    2110        .!      MOVS     r1,#0x10
        0x0000441a:    4388        .C      BICS     r0,r0,r1
        0x0000441c:    2105        .!      MOVS     r1,#5
        0x0000441e:    0709        ..      LSLS     r1,r1,#28
        0x00004420:    6348        Hc      STR      r0,[r1,#0x34]
        0x00004422:    4845        EH      LDR      r0,[pc,#276] ; [0x4538] = 0x50000040
        0x00004424:    6900        .i      LDR      r0,[r0,#0x10]
        0x00004426:    2101        .!      MOVS     r1,#1
        0x00004428:    03c9        ..      LSLS     r1,r1,#15
        0x0000442a:    4308        .C      ORRS     r0,r0,r1
        0x0000442c:    4942        BI      LDR      r1,[pc,#264] ; [0x4538] = 0x50000040
        0x0000442e:    6108        .a      STR      r0,[r1,#0x10]
        0x00004430:    bf00        ..      NOP      
        0x00004432:    bf00        ..      NOP      
        0x00004434:    2005        .       MOVS     r0,#5
        0x00004436:    0700        ..      LSLS     r0,r0,#28
        0x00004438:    6b40        @k      LDR      r0,[r0,#0x34]
        0x0000443a:    2120         !      MOVS     r1,#0x20
        0x0000443c:    4308        .C      ORRS     r0,r0,r1
        0x0000443e:    2105        .!      MOVS     r1,#5
        0x00004440:    0709        ..      LSLS     r1,r1,#28
        0x00004442:    6348        Hc      STR      r0,[r1,#0x34]
        0x00004444:    483c        <H      LDR      r0,[pc,#240] ; [0x4538] = 0x50000040
        0x00004446:    6900        .i      LDR      r0,[r0,#0x10]
        0x00004448:    2101        .!      MOVS     r1,#1
        0x0000444a:    0489        ..      LSLS     r1,r1,#18
        0x0000444c:    4308        .C      ORRS     r0,r0,r1
        0x0000444e:    493a        :I      LDR      r1,[pc,#232] ; [0x4538] = 0x50000040
        0x00004450:    6108        .a      STR      r0,[r1,#0x10]
        0x00004452:    bf00        ..      NOP      
        0x00004454:    bf00        ..      NOP      
        0x00004456:    2005        .       MOVS     r0,#5
        0x00004458:    0700        ..      LSLS     r0,r0,#28
        0x0000445a:    6b40        @k      LDR      r0,[r0,#0x34]
        0x0000445c:    2140        @!      MOVS     r1,#0x40
        0x0000445e:    4308        .C      ORRS     r0,r0,r1
        0x00004460:    2105        .!      MOVS     r1,#5
        0x00004462:    0709        ..      LSLS     r1,r1,#28
        0x00004464:    6348        Hc      STR      r0,[r1,#0x34]
        0x00004466:    4834        4H      LDR      r0,[pc,#208] ; [0x4538] = 0x50000040
        0x00004468:    6900        .i      LDR      r0,[r0,#0x10]
        0x0000446a:    2101        .!      MOVS     r1,#1
        0x0000446c:    0449        I.      LSLS     r1,r1,#17
        0x0000446e:    4308        .C      ORRS     r0,r0,r1
        0x00004470:    4931        1I      LDR      r1,[pc,#196] ; [0x4538] = 0x50000040
        0x00004472:    6108        .a      STR      r0,[r1,#0x10]
        0x00004474:    bf00        ..      NOP      
        0x00004476:    bf00        ..      NOP      
        0x00004478:    2005        .       MOVS     r0,#5
        0x0000447a:    0700        ..      LSLS     r0,r0,#28
        0x0000447c:    6b40        @k      LDR      r0,[r0,#0x34]
        0x0000447e:    2180        .!      MOVS     r1,#0x80
        0x00004480:    4308        .C      ORRS     r0,r0,r1
        0x00004482:    2105        .!      MOVS     r1,#5
        0x00004484:    0709        ..      LSLS     r1,r1,#28
        0x00004486:    6348        Hc      STR      r0,[r1,#0x34]
        0x00004488:    482b        +H      LDR      r0,[pc,#172] ; [0x4538] = 0x50000040
        0x0000448a:    6900        .i      LDR      r0,[r0,#0x10]
        0x0000448c:    2101        .!      MOVS     r1,#1
        0x0000448e:    0409        ..      LSLS     r1,r1,#16
        0x00004490:    4308        .C      ORRS     r0,r0,r1
        0x00004492:    4929        )I      LDR      r1,[pc,#164] ; [0x4538] = 0x50000040
        0x00004494:    6108        .a      STR      r0,[r1,#0x10]
        0x00004496:    bf00        ..      NOP      
        0x00004498:    2200        ."      MOVS     r2,#0
        0x0000449a:    4611        .F      MOV      r1,r2
        0x0000449c:    4825        %H      LDR      r0,[pc,#148] ; [0x4534] = 0x40130000
        0x0000449e:    f000fcc7    ....    BL       SPI_SET_SS ; 0x4e30
        0x000044a2:    4824        $H      LDR      r0,[pc,#144] ; [0x4534] = 0x40130000
        0x000044a4:    f000fccb    ....    BL       SPI_SET_SS0 ; 0x4e3e
        0x000044a8:    2320         #      MOVS     r3,#0x20
        0x000044aa:    2204        ."      MOVS     r2,#4
        0x000044ac:    2100        .!      MOVS     r1,#0
        0x000044ae:    4821        !H      LDR      r0,[pc,#132] ; [0x4534] = 0x40130000
        0x000044b0:    f7fcfb13    ....    BL       DrvSPI_Init ; 0xada
        0x000044b4:    481f        .H      LDR      r0,[pc,#124] ; [0x4534] = 0x40130000
        0x000044b6:    f000fca5    ....    BL       SPI_SET_MSB_FIRST ; 0x4e04
        0x000044ba:    481e        .H      LDR      r0,[pc,#120] ; [0x4534] = 0x40130000
        0x000044bc:    f000fc87    ....    BL       SPI_DISABLE_REORDER ; 0x4dce
        0x000044c0:    481c        .H      LDR      r0,[pc,#112] ; [0x4534] = 0x40130000
        0x000044c2:    f000fcc8    ....    BL       SPI_ENABLE_BCN ; 0x4e56
        0x000044c6:    210c        .!      MOVS     r1,#0xc
        0x000044c8:    481a        .H      LDR      r0,[pc,#104] ; [0x4534] = 0x40130000
        0x000044ca:    f000fcab    ....    BL       SPI_SET_DIVIDER ; 0x4e24
        0x000044ce:    bd10        ..      POP      {r4,pc}
    adpcmDataInit
        0x000044d0:    2000        .       MOVS     r0,#0
        0x000044d2:    4922        "I      LDR      r1,[pc,#136] ; [0x455c] = 0x200002e8
        0x000044d4:    6008        .`      STR      r0,[r1,#0]
        0x000044d6:    4922        "I      LDR      r1,[pc,#136] ; [0x4560] = 0x200002ec
        0x000044d8:    6008        .`      STR      r0,[r1,#0]
        0x000044da:    4922        "I      LDR      r1,[pc,#136] ; [0x4564] = 0x200002d8
        0x000044dc:    6008        .`      STR      r0,[r1,#0]
        0x000044de:    4922        "I      LDR      r1,[pc,#136] ; [0x4568] = 0x200002dc
        0x000044e0:    6008        .`      STR      r0,[r1,#0]
        0x000044e2:    4922        "I      LDR      r1,[pc,#136] ; [0x456c] = 0x200002e0
        0x000044e4:    6008        .`      STR      r0,[r1,#0]
        0x000044e6:    4922        "I      LDR      r1,[pc,#136] ; [0x4570] = 0x200002e4
        0x000044e8:    6008        .`      STR      r0,[r1,#0]
        0x000044ea:    4922        "I      LDR      r1,[pc,#136] ; [0x4574] = 0x200002d0
        0x000044ec:    6008        .`      STR      r0,[r1,#0]
        0x000044ee:    4922        "I      LDR      r1,[pc,#136] ; [0x4578] = 0x200002d4
        0x000044f0:    6008        .`      STR      r0,[r1,#0]
        0x000044f2:    4922        "I      LDR      r1,[pc,#136] ; [0x457c] = 0x200002cc
        0x000044f4:    6008        .`      STR      r0,[r1,#0]
        0x000044f6:    4922        "I      LDR      r1,[pc,#136] ; [0x4580] = 0x200002c4
        0x000044f8:    6008        .`      STR      r0,[r1,#0]
        0x000044fa:    4922        "I      LDR      r1,[pc,#136] ; [0x4584] = 0x200002f0
        0x000044fc:    7008        .p      STRB     r0,[r1,#0]
        0x000044fe:    4922        "I      LDR      r1,[pc,#136] ; [0x4588] = 0x20000360
        0x00004500:    6008        .`      STR      r0,[r1,#0]
        0x00004502:    4770        pG      BX       lr
    readWaveHeaderInfo
        0x00004504:    b570        p.      PUSH     {r4-r6,lr}
        0x00004506:    4605        .F      MOV      r5,r0
        0x00004508:    480a        .H      LDR      r0,[pc,#40] ; [0x4534] = 0x40130000
        0x0000450a:    f000fc9d    ....    BL       SPI_CLR_SS0 ; 0x4e48
        0x0000450e:    4809        .H      LDR      r0,[pc,#36] ; [0x4534] = 0x40130000
        0x00004510:    f000fc5d    ..].    BL       SPI_DISABLE_REORDER ; 0x4dce
        0x00004514:    4807        .H      LDR      r0,[pc,#28] ; [0x4534] = 0x40130000
        0x00004516:    f000fc92    ....    BL       SPI_SET_SS0 ; 0x4e3e
        0x0000451a:    2108        .!      MOVS     r1,#8
        0x0000451c:    2003        .       MOVS     r0,#3
        0x0000451e:    f7fffe11    ....    BL       spiSendWord ; 0x4144
        0x00004522:    2118        .!      MOVS     r1,#0x18
        0x00004524:    4628        (F      MOV      r0,r5
        0x00004526:    f7fffe0d    ....    BL       spiSendWord ; 0x4144
        0x0000452a:    4802        .H      LDR      r0,[pc,#8] ; [0x4534] = 0x40130000
        0x0000452c:    f000fc49    ..I.    BL       SPI_ENABLE_REORDER ; 0x4dc2
        0x00004530:    2400        .$      MOVS     r4,#0
        0x00004532:    e034        4.      B        0x459e ; readWaveHeaderInfo + 154
    $d
        0x00004534:    40130000    ...@    DCD    1074987008
        0x00004538:    50000040    @..P    DCD    1342177344
        0x0000453c:    50000200    ...P    DCD    1342177792
        0x00004540:    0000bb80    ....    DCD    48000
        0x00004544:    00005dc0    .]..    DCD    24000
        0x00004548:    00002ee0    ....    DCD    12000
        0x0000454c:    2bf0bfb0    ...+    DCD    737198000
        0x00004550:    401a0000    ...@    DCD    1075445760
        0x00004554:    00009201    ....    DCD    37377
        0x00004558:    200002c0    ...     DCD    536871616
        0x0000455c:    200002e8    ...     DCD    536871656
        0x00004560:    200002ec    ...     DCD    536871660
        0x00004564:    200002d8    ...     DCD    536871640
        0x00004568:    200002dc    ...     DCD    536871644
        0x0000456c:    200002e0    ...     DCD    536871648
        0x00004570:    200002e4    ...     DCD    536871652
        0x00004574:    200002d0    ...     DCD    536871632
        0x00004578:    200002d4    ...     DCD    536871636
        0x0000457c:    200002cc    ...     DCD    536871628
        0x00004580:    200002c4    ...     DCD    536871620
        0x00004584:    200002f0    ...     DCD    536871664
        0x00004588:    20000360    `..     DCD    536871776
    $t
        0x0000458c:    2108        .!      MOVS     r1,#8
        0x0000458e:    20ff        .       MOVS     r0,#0xff
        0x00004590:    f7fffdd8    ....    BL       spiSendWord ; 0x4144
        0x00004594:    48fa        .H      LDR      r0,[pc,#1000] ; [0x4980] = 0x40130000
        0x00004596:    6900        .i      LDR      r0,[r0,#0x10]
        0x00004598:    49fa        .I      LDR      r1,[pc,#1000] ; [0x4984] = 0x20000a14
        0x0000459a:    5508        .U      STRB     r0,[r1,r4]
        0x0000459c:    1c64        d.      ADDS     r4,r4,#1
        0x0000459e:    2c2e        .,      CMP      r4,#0x2e
        0x000045a0:    d3f4        ..      BCC      0x458c ; readWaveHeaderInfo + 136
        0x000045a2:    48f8        .H      LDR      r0,[pc,#992] ; [0x4984] = 0x20000a14
        0x000045a4:    8800        ..      LDRH     r0,[r0,#0]
        0x000045a6:    380c        .8      SUBS     r0,r0,#0xc
        0x000045a8:    49f7        .I      LDR      r1,[pc,#988] ; [0x4988] = 0x20000364
        0x000045aa:    6008        .`      STR      r0,[r1,#0]
        0x000045ac:    48f5        .H      LDR      r0,[pc,#980] ; [0x4984] = 0x20000a14
        0x000045ae:    8800        ..      LDRH     r0,[r0,#0]
        0x000045b0:    49f6        .I      LDR      r1,[pc,#984] ; [0x498c] = 0x20000368
        0x000045b2:    6008        .`      STR      r0,[r1,#0]
        0x000045b4:    2400        .$      MOVS     r4,#0
        0x000045b6:    e007        ..      B        0x45c8 ; readWaveHeaderInfo + 196
        0x000045b8:    0061        a.      LSLS     r1,r4,#1
        0x000045ba:    48f2        .H      LDR      r0,[pc,#968] ; [0x4984] = 0x20000a14
        0x000045bc:    1d80        ..      ADDS     r0,r0,#6
        0x000045be:    5a40        @Z      LDRH     r0,[r0,r1]
        0x000045c0:    0061        a.      LSLS     r1,r4,#1
        0x000045c2:    4af3        .J      LDR      r2,[pc,#972] ; [0x4990] = 0x20000a42
        0x000045c4:    5250        PR      STRH     r0,[r2,r1]
        0x000045c6:    1c64        d.      ADDS     r4,r4,#1
        0x000045c8:    2c14        .,      CMP      r4,#0x14
        0x000045ca:    d3f5        ..      BCC      0x45b8 ; readWaveHeaderInfo + 180
        0x000045cc:    bd70        p.      POP      {r4-r6,pc}
    playMusic
        0x000045ce:    4770        pG      BX       lr
    spiflashInfoWrite
        0x000045d0:    b510        ..      PUSH     {r4,lr}
        0x000045d2:    4af0        .J      LDR      r2,[pc,#960] ; [0x4994] = 0x200009bc
        0x000045d4:    2158        X!      MOVS     r1,#0x58
        0x000045d6:    2000        .       MOVS     r0,#0
        0x000045d8:    f7fffe98    ....    BL       spiFlashPageWrite ; 0x430c
        0x000045dc:    bd10        ..      POP      {r4,pc}
    init_spiflash_info
        0x000045de:    b510        ..      PUSH     {r4,lr}
        0x000045e0:    48ed        .H      LDR      r0,[pc,#948] ; [0x4998] = 0x4e534c47
        0x000045e2:    49ec        .I      LDR      r1,[pc,#944] ; [0x4994] = 0x200009bc
        0x000045e4:    6008        .`      STR      r0,[r1,#0]
        0x000045e6:    2001        .       MOVS     r0,#1
        0x000045e8:    6048        H`      STR      r0,[r1,#4]
        0x000045ea:    0201        ..      LSLS     r1,r0,#8
        0x000045ec:    48e9        .H      LDR      r0,[pc,#932] ; [0x4994] = 0x200009bc
        0x000045ee:    6081        .`      STR      r1,[r0,#8]
        0x000045f0:    48ea        .H      LDR      r0,[pc,#936] ; [0x499c] = 0x200002b8
        0x000045f2:    6801        .h      LDR      r1,[r0,#0]
        0x000045f4:    48e7        .H      LDR      r0,[pc,#924] ; [0x4994] = 0x200009bc
        0x000045f6:    60c1        .`      STR      r1,[r0,#0xc]
        0x000045f8:    f7ffffea    ....    BL       spiflashInfoWrite ; 0x45d0
        0x000045fc:    bd10        ..      POP      {r4,pc}
    recodeMusic
        0x000045fe:    4770        pG      BX       lr
    recodeEnd
        0x00004600:    b510        ..      PUSH     {r4,lr}
        0x00004602:    f7ffffec    ....    BL       init_spiflash_info ; 0x45de
        0x00004606:    48de        .H      LDR      r0,[pc,#888] ; [0x4980] = 0x40130000
        0x00004608:    f000fc1e    ....    BL       SPI_CLR_SS0 ; 0x4e48
        0x0000460c:    2000        .       MOVS     r0,#0
        0x0000460e:    49e4        .I      LDR      r1,[pc,#912] ; [0x49a0] = 0x200002a4
        0x00004610:    7008        .p      STRB     r0,[r1,#0]
        0x00004612:    49e4        .I      LDR      r1,[pc,#912] ; [0x49a4] = 0x20000584
        0x00004614:    6008        .`      STR      r0,[r1,#0]
        0x00004616:    bd10        ..      POP      {r4,pc}
    playSFMusicEnd
        0x00004618:    4770        pG      BX       lr
    adpcmEncode
        0x0000461a:    4602        .F      MOV      r2,r0
        0x0000461c:    2000        .       MOVS     r0,#0
        0x0000461e:    4770        pG      BX       lr
    adpcmDecode
        0x00004620:    b510        ..      PUSH     {r4,lr}
        0x00004622:    48e1        .H      LDR      r0,[pc,#900] ; [0x49a8] = 0x20000360
        0x00004624:    6800        .h      LDR      r0,[r0,#0]
        0x00004626:    2800        .(      CMP      r0,#0
        0x00004628:    d17d        }.      BNE      0x4726 ; adpcmDecode + 262
        0x0000462a:    2110        .!      MOVS     r1,#0x10
        0x0000462c:    48d4        .H      LDR      r0,[pc,#848] ; [0x4980] = 0x40130000
        0x0000462e:    f7fffd7d    ..}.    BL       SPI_SET_TX_BIT_LEN ; 0x412c
        0x00004632:    21ff        .!      MOVS     r1,#0xff
        0x00004634:    48d2        .H      LDR      r0,[pc,#840] ; [0x4980] = 0x40130000
        0x00004636:    f000fc0c    ....    BL       SPI_WRITE_TX0 ; 0x4e52
        0x0000463a:    48d1        .H      LDR      r0,[pc,#836] ; [0x4980] = 0x40130000
        0x0000463c:    f000fbe8    ....    BL       SPI_SET_GO ; 0x4e10
        0x00004640:    48d9        .H      LDR      r0,[pc,#868] ; [0x49a8] = 0x20000360
        0x00004642:    6800        .h      LDR      r0,[r0,#0]
        0x00004644:    1c40        @.      ADDS     r0,r0,#1
        0x00004646:    49d8        .I      LDR      r1,[pc,#864] ; [0x49a8] = 0x20000360
        0x00004648:    6008        .`      STR      r0,[r1,#0]
        0x0000464a:    bf00        ..      NOP      
        0x0000464c:    48cc        .H      LDR      r0,[pc,#816] ; [0x4980] = 0x40130000
        0x0000464e:    f000fbe4    ....    BL       SPI_IS_BUSY ; 0x4e1a
        0x00004652:    2800        .(      CMP      r0,#0
        0x00004654:    d1fa        ..      BNE      0x464c ; adpcmDecode + 44
        0x00004656:    48ca        .H      LDR      r0,[pc,#808] ; [0x4980] = 0x40130000
        0x00004658:    6900        .i      LDR      r0,[r0,#0x10]
        0x0000465a:    49d4        .I      LDR      r1,[pc,#848] ; [0x49ac] = 0x200002e8
        0x0000465c:    6008        .`      STR      r0,[r1,#0]
        0x0000465e:    2120         !      MOVS     r1,#0x20
        0x00004660:    48c7        .H      LDR      r0,[pc,#796] ; [0x4980] = 0x40130000
        0x00004662:    f7fffd63    ..c.    BL       SPI_SET_TX_BIT_LEN ; 0x412c
        0x00004666:    21ff        .!      MOVS     r1,#0xff
        0x00004668:    48c5        .H      LDR      r0,[pc,#788] ; [0x4980] = 0x40130000
        0x0000466a:    f000fbf2    ....    BL       SPI_WRITE_TX0 ; 0x4e52
        0x0000466e:    48c4        .H      LDR      r0,[pc,#784] ; [0x4980] = 0x40130000
        0x00004670:    f000fbce    ....    BL       SPI_SET_GO ; 0x4e10
        0x00004674:    48cd        .H      LDR      r0,[pc,#820] ; [0x49ac] = 0x200002e8
        0x00004676:    6800        .h      LDR      r0,[r0,#0]
        0x00004678:    0a00        ..      LSRS     r0,r0,#8
        0x0000467a:    0040        @.      LSLS     r0,r0,#1
        0x0000467c:    49cc        .I      LDR      r1,[pc,#816] ; [0x49b0] = 0x200002ec
        0x0000467e:    6008        .`      STR      r0,[r1,#0]
        0x00004680:    48ca        .H      LDR      r0,[pc,#808] ; [0x49ac] = 0x200002e8
        0x00004682:    7800        .x      LDRB     r0,[r0,#0]
        0x00004684:    0040        @.      LSLS     r0,r0,#1
        0x00004686:    49c9        .I      LDR      r1,[pc,#804] ; [0x49ac] = 0x200002e8
        0x00004688:    6008        .`      STR      r0,[r1,#0]
        0x0000468a:    4608        .F      MOV      r0,r1
        0x0000468c:    6800        .h      LDR      r0,[r0,#0]
        0x0000468e:    0040        @.      LSLS     r0,r0,#1
        0x00004690:    49bf        .I      LDR      r1,[pc,#764] ; [0x4990] = 0x20000a42
        0x00004692:    5a08        .Z      LDRH     r0,[r1,r0]
        0x00004694:    49c7        .I      LDR      r1,[pc,#796] ; [0x49b4] = 0x2000034c
        0x00004696:    8008        ..      STRH     r0,[r1,#0]
        0x00004698:    48c4        .H      LDR      r0,[pc,#784] ; [0x49ac] = 0x200002e8
        0x0000469a:    6800        .h      LDR      r0,[r0,#0]
        0x0000469c:    1c40        @.      ADDS     r0,r0,#1
        0x0000469e:    0040        @.      LSLS     r0,r0,#1
        0x000046a0:    49bb        .I      LDR      r1,[pc,#748] ; [0x4990] = 0x20000a42
        0x000046a2:    5a08        .Z      LDRH     r0,[r1,r0]
        0x000046a4:    49c4        .I      LDR      r1,[pc,#784] ; [0x49b8] = 0x2000034e
        0x000046a6:    8008        ..      STRH     r0,[r1,#0]
        0x000046a8:    48c1        .H      LDR      r0,[pc,#772] ; [0x49b0] = 0x200002ec
        0x000046aa:    6800        .h      LDR      r0,[r0,#0]
        0x000046ac:    0040        @.      LSLS     r0,r0,#1
        0x000046ae:    49b8        .I      LDR      r1,[pc,#736] ; [0x4990] = 0x20000a42
        0x000046b0:    5a08        .Z      LDRH     r0,[r1,r0]
        0x000046b2:    49c2        .I      LDR      r1,[pc,#776] ; [0x49bc] = 0x20000350
        0x000046b4:    8008        ..      STRH     r0,[r1,#0]
        0x000046b6:    48be        .H      LDR      r0,[pc,#760] ; [0x49b0] = 0x200002ec
        0x000046b8:    6800        .h      LDR      r0,[r0,#0]
        0x000046ba:    1c40        @.      ADDS     r0,r0,#1
        0x000046bc:    0040        @.      LSLS     r0,r0,#1
        0x000046be:    49b4        .I      LDR      r1,[pc,#720] ; [0x4990] = 0x20000a42
        0x000046c0:    5a08        .Z      LDRH     r0,[r1,r0]
        0x000046c2:    49bf        .I      LDR      r1,[pc,#764] ; [0x49c0] = 0x20000352
        0x000046c4:    8008        ..      STRH     r0,[r1,#0]
        0x000046c6:    bf00        ..      NOP      
        0x000046c8:    48ad        .H      LDR      r0,[pc,#692] ; [0x4980] = 0x40130000
        0x000046ca:    f000fba6    ....    BL       SPI_IS_BUSY ; 0x4e1a
        0x000046ce:    2800        .(      CMP      r0,#0
        0x000046d0:    d1fa        ..      BNE      0x46c8 ; adpcmDecode + 168
        0x000046d2:    48ab        .H      LDR      r0,[pc,#684] ; [0x4980] = 0x40130000
        0x000046d4:    6900        .i      LDR      r0,[r0,#0x10]
        0x000046d6:    49bb        .I      LDR      r1,[pc,#748] ; [0x49c4] = 0x2000033c
        0x000046d8:    6008        .`      STR      r0,[r1,#0]
        0x000046da:    2120         !      MOVS     r1,#0x20
        0x000046dc:    48a8        .H      LDR      r0,[pc,#672] ; [0x4980] = 0x40130000
        0x000046de:    f7fffd25    ..%.    BL       SPI_SET_TX_BIT_LEN ; 0x412c
        0x000046e2:    21ff        .!      MOVS     r1,#0xff
        0x000046e4:    48a6        .H      LDR      r0,[pc,#664] ; [0x4980] = 0x40130000
        0x000046e6:    f000fbb4    ....    BL       SPI_WRITE_TX0 ; 0x4e52
        0x000046ea:    48a5        .H      LDR      r0,[pc,#660] ; [0x4980] = 0x40130000
        0x000046ec:    f000fb90    ....    BL       SPI_SET_GO ; 0x4e10
        0x000046f0:    48b4        .H      LDR      r0,[pc,#720] ; [0x49c4] = 0x2000033c
        0x000046f2:    6800        .h      LDR      r0,[r0,#0]
        0x000046f4:    0c00        ..      LSRS     r0,r0,#16
        0x000046f6:    49b4        .I      LDR      r1,[pc,#720] ; [0x49c8] = 0x20000340
        0x000046f8:    6008        .`      STR      r0,[r1,#0]
        0x000046fa:    48b2        .H      LDR      r0,[pc,#712] ; [0x49c4] = 0x2000033c
        0x000046fc:    8800        ..      LDRH     r0,[r0,#0]
        0x000046fe:    b280        ..      UXTH     r0,r0
        0x00004700:    49b0        .I      LDR      r1,[pc,#704] ; [0x49c4] = 0x2000033c
        0x00004702:    6008        .`      STR      r0,[r1,#0]
        0x00004704:    bf00        ..      NOP      
        0x00004706:    489e        .H      LDR      r0,[pc,#632] ; [0x4980] = 0x40130000
        0x00004708:    f000fb87    ....    BL       SPI_IS_BUSY ; 0x4e1a
        0x0000470c:    2800        .(      CMP      r0,#0
        0x0000470e:    d1fa        ..      BNE      0x4706 ; adpcmDecode + 230
        0x00004710:    489b        .H      LDR      r0,[pc,#620] ; [0x4980] = 0x40130000
        0x00004712:    6900        .i      LDR      r0,[r0,#0x10]
        0x00004714:    49ad        .I      LDR      r1,[pc,#692] ; [0x49cc] = 0x200002e0
        0x00004716:    6008        .`      STR      r0,[r1,#0]
        0x00004718:    2120         !      MOVS     r1,#0x20
        0x0000471a:    4899        .H      LDR      r0,[pc,#612] ; [0x4980] = 0x40130000
        0x0000471c:    f7fffd06    ....    BL       SPI_SET_TX_BIT_LEN ; 0x412c
        0x00004720:    21ff        .!      MOVS     r1,#0xff
        0x00004722:    4897        .H      LDR      r0,[pc,#604] ; [0x4980] = 0x40130000
        0x00004724:    e000        ..      B        0x4728 ; adpcmDecode + 264
        0x00004726:    e02b        +.      B        0x4780 ; adpcmDecode + 352
        0x00004728:    f000fb93    ....    BL       SPI_WRITE_TX0 ; 0x4e52
        0x0000472c:    4894        .H      LDR      r0,[pc,#592] ; [0x4980] = 0x40130000
        0x0000472e:    f000fb6f    ..o.    BL       SPI_SET_GO ; 0x4e10
        0x00004732:    48a6        .H      LDR      r0,[pc,#664] ; [0x49cc] = 0x200002e0
        0x00004734:    6800        .h      LDR      r0,[r0,#0]
        0x00004736:    1400        ..      ASRS     r0,r0,#16
        0x00004738:    49a5        .I      LDR      r1,[pc,#660] ; [0x49d0] = 0x200002e4
        0x0000473a:    6008        .`      STR      r0,[r1,#0]
        0x0000473c:    48a3        .H      LDR      r0,[pc,#652] ; [0x49cc] = 0x200002e0
        0x0000473e:    8800        ..      LDRH     r0,[r0,#0]
        0x00004740:    b200        ..      SXTH     r0,r0
        0x00004742:    49a2        .I      LDR      r1,[pc,#648] ; [0x49cc] = 0x200002e0
        0x00004744:    6008        .`      STR      r0,[r1,#0]
        0x00004746:    bf00        ..      NOP      
        0x00004748:    488d        .H      LDR      r0,[pc,#564] ; [0x4980] = 0x40130000
        0x0000474a:    f000fb66    ..f.    BL       SPI_IS_BUSY ; 0x4e1a
        0x0000474e:    2800        .(      CMP      r0,#0
        0x00004750:    d1fa        ..      BNE      0x4748 ; adpcmDecode + 296
        0x00004752:    488b        .H      LDR      r0,[pc,#556] ; [0x4980] = 0x40130000
        0x00004754:    6900        .i      LDR      r0,[r0,#0x10]
        0x00004756:    499f        .I      LDR      r1,[pc,#636] ; [0x49d4] = 0x20000344
        0x00004758:    6008        .`      STR      r0,[r1,#0]
        0x0000475a:    4608        .F      MOV      r0,r1
        0x0000475c:    6800        .h      LDR      r0,[r0,#0]
        0x0000475e:    1400        ..      ASRS     r0,r0,#16
        0x00004760:    499d        .I      LDR      r1,[pc,#628] ; [0x49d8] = 0x20000348
        0x00004762:    6008        .`      STR      r0,[r1,#0]
        0x00004764:    489b        .H      LDR      r0,[pc,#620] ; [0x49d4] = 0x20000344
        0x00004766:    8800        ..      LDRH     r0,[r0,#0]
        0x00004768:    b200        ..      SXTH     r0,r0
        0x0000476a:    499a        .I      LDR      r1,[pc,#616] ; [0x49d4] = 0x20000344
        0x0000476c:    6008        .`      STR      r0,[r1,#0]
        0x0000476e:    4608        .F      MOV      r0,r1
        0x00004770:    6800        .h      LDR      r0,[r0,#0]
        0x00004772:    499a        .I      LDR      r1,[pc,#616] ; [0x49dc] = 0x200002dc
        0x00004774:    6008        .`      STR      r0,[r1,#0]
        0x00004776:    4898        .H      LDR      r0,[pc,#608] ; [0x49d8] = 0x20000348
        0x00004778:    6800        .h      LDR      r0,[r0,#0]
        0x0000477a:    4999        .I      LDR      r1,[pc,#612] ; [0x49e0] = 0x200002d8
        0x0000477c:    6008        .`      STR      r0,[r1,#0]
        0x0000477e:    e0c7        ..      B        0x4910 ; adpcmDecode + 752
        0x00004780:    4889        .H      LDR      r0,[pc,#548] ; [0x49a8] = 0x20000360
        0x00004782:    6800        .h      LDR      r0,[r0,#0]
        0x00004784:    2801        .(      CMP      r0,#1
        0x00004786:    d10d        ..      BNE      0x47a4 ; adpcmDecode + 388
        0x00004788:    4887        .H      LDR      r0,[pc,#540] ; [0x49a8] = 0x20000360
        0x0000478a:    6800        .h      LDR      r0,[r0,#0]
        0x0000478c:    1c40        @.      ADDS     r0,r0,#1
        0x0000478e:    4986        .I      LDR      r1,[pc,#536] ; [0x49a8] = 0x20000360
        0x00004790:    6008        .`      STR      r0,[r1,#0]
        0x00004792:    488e        .H      LDR      r0,[pc,#568] ; [0x49cc] = 0x200002e0
        0x00004794:    6800        .h      LDR      r0,[r0,#0]
        0x00004796:    4991        .I      LDR      r1,[pc,#580] ; [0x49dc] = 0x200002dc
        0x00004798:    6008        .`      STR      r0,[r1,#0]
        0x0000479a:    488d        .H      LDR      r0,[pc,#564] ; [0x49d0] = 0x200002e4
        0x0000479c:    6800        .h      LDR      r0,[r0,#0]
        0x0000479e:    4990        .I      LDR      r1,[pc,#576] ; [0x49e0] = 0x200002d8
        0x000047a0:    6008        .`      STR      r0,[r1,#0]
        0x000047a2:    e0b5        ..      B        0x4910 ; adpcmDecode + 752
        0x000047a4:    4880        .H      LDR      r0,[pc,#512] ; [0x49a8] = 0x20000360
        0x000047a6:    6800        .h      LDR      r0,[r0,#0]
        0x000047a8:    1c40        @.      ADDS     r0,r0,#1
        0x000047aa:    497f        .I      LDR      r1,[pc,#508] ; [0x49a8] = 0x20000360
        0x000047ac:    6008        .`      STR      r0,[r1,#0]
        0x000047ae:    4608        .F      MOV      r0,r1
        0x000047b0:    6800        .h      LDR      r0,[r0,#0]
        0x000047b2:    4975        uI      LDR      r1,[pc,#468] ; [0x4988] = 0x20000364
        0x000047b4:    6809        .h      LDR      r1,[r1,#0]
        0x000047b6:    4288        .B      CMP      r0,r1
        0x000047b8:    d10c        ..      BNE      0x47d4 ; adpcmDecode + 436
        0x000047ba:    2000        .       MOVS     r0,#0
        0x000047bc:    497a        zI      LDR      r1,[pc,#488] ; [0x49a8] = 0x20000360
        0x000047be:    6008        .`      STR      r0,[r1,#0]
        0x000047c0:    4872        rH      LDR      r0,[pc,#456] ; [0x498c] = 0x20000368
        0x000047c2:    6800        .h      LDR      r0,[r0,#0]
        0x000047c4:    1e40        @.      SUBS     r0,r0,#1
        0x000047c6:    4971        qI      LDR      r1,[pc,#452] ; [0x498c] = 0x20000368
        0x000047c8:    6008        .`      STR      r0,[r1,#0]
        0x000047ca:    486e        nH      LDR      r0,[pc,#440] ; [0x4984] = 0x20000a14
        0x000047cc:    8840        @.      LDRH     r0,[r0,#2]
        0x000047ce:    1e40        @.      SUBS     r0,r0,#1
        0x000047d0:    496c        lI      LDR      r1,[pc,#432] ; [0x4984] = 0x20000a14
        0x000047d2:    8048        H.      STRH     r0,[r1,#2]
        0x000047d4:    2108        .!      MOVS     r1,#8
        0x000047d6:    20ff        .       MOVS     r0,#0xff
        0x000047d8:    f7fffcb4    ....    BL       spiSendWord ; 0x4144
        0x000047dc:    4868        hH      LDR      r0,[pc,#416] ; [0x4980] = 0x40130000
        0x000047de:    6900        .i      LDR      r0,[r0,#0x10]
        0x000047e0:    b244        D.      SXTB     r4,r0
        0x000047e2:    487a        zH      LDR      r0,[pc,#488] ; [0x49cc] = 0x200002e0
        0x000047e4:    6800        .h      LDR      r0,[r0,#0]
        0x000047e6:    4973        sI      LDR      r1,[pc,#460] ; [0x49b4] = 0x2000034c
        0x000047e8:    2200        ."      MOVS     r2,#0
        0x000047ea:    5e8a        .^      LDRSH    r2,[r1,r2]
        0x000047ec:    4350        PC      MULS     r0,r2,r0
        0x000047ee:    4979        yI      LDR      r1,[pc,#484] ; [0x49d4] = 0x20000344
        0x000047f0:    6809        .h      LDR      r1,[r1,#0]
        0x000047f2:    4a71        qJ      LDR      r2,[pc,#452] ; [0x49b8] = 0x2000034e
        0x000047f4:    2300        .#      MOVS     r3,#0
        0x000047f6:    5ed3        .^      LDRSH    r3,[r2,r3]
        0x000047f8:    4359        YC      MULS     r1,r3,r1
        0x000047fa:    1840        @.      ADDS     r0,r0,r1
        0x000047fc:    1200        ..      ASRS     r0,r0,#8
        0x000047fe:    4977        wI      LDR      r1,[pc,#476] ; [0x49dc] = 0x200002dc
        0x00004800:    6008        .`      STR      r0,[r1,#0]
        0x00004802:    1120         .      ASRS     r0,r4,#4
        0x00004804:    496f        oI      LDR      r1,[pc,#444] ; [0x49c4] = 0x2000033c
        0x00004806:    6809        .h      LDR      r1,[r1,#0]
        0x00004808:    4348        HC      MULS     r0,r1,r0
        0x0000480a:    4974        tI      LDR      r1,[pc,#464] ; [0x49dc] = 0x200002dc
        0x0000480c:    6809        .h      LDR      r1,[r1,#0]
        0x0000480e:    1840        @.      ADDS     r0,r0,r1
        0x00004810:    4972        rI      LDR      r1,[pc,#456] ; [0x49dc] = 0x200002dc
        0x00004812:    6008        .`      STR      r0,[r1,#0]
        0x00004814:    4608        .F      MOV      r0,r1
        0x00004816:    6800        .h      LDR      r0,[r0,#0]
        0x00004818:    4972        rI      LDR      r1,[pc,#456] ; [0x49e4] = 0x7fff
        0x0000481a:    4288        .B      CMP      r0,r1
        0x0000481c:    dd02        ..      BLE      0x4824 ; adpcmDecode + 516
        0x0000481e:    4608        .F      MOV      r0,r1
        0x00004820:    496e        nI      LDR      r1,[pc,#440] ; [0x49dc] = 0x200002dc
        0x00004822:    6008        .`      STR      r0,[r1,#0]
        0x00004824:    486d        mH      LDR      r0,[pc,#436] ; [0x49dc] = 0x200002dc
        0x00004826:    6800        .h      LDR      r0,[r0,#0]
        0x00004828:    496e        nI      LDR      r1,[pc,#440] ; [0x49e4] = 0x7fff
        0x0000482a:    43c9        .C      MVNS     r1,r1
        0x0000482c:    4288        .B      CMP      r0,r1
        0x0000482e:    da02        ..      BGE      0x4836 ; adpcmDecode + 534
        0x00004830:    4608        .F      MOV      r0,r1
        0x00004832:    496a        jI      LDR      r1,[pc,#424] ; [0x49dc] = 0x200002dc
        0x00004834:    6008        .`      STR      r0,[r1,#0]
        0x00004836:    4865        eH      LDR      r0,[pc,#404] ; [0x49cc] = 0x200002e0
        0x00004838:    6800        .h      LDR      r0,[r0,#0]
        0x0000483a:    4966        fI      LDR      r1,[pc,#408] ; [0x49d4] = 0x20000344
        0x0000483c:    6008        .`      STR      r0,[r1,#0]
        0x0000483e:    4867        gH      LDR      r0,[pc,#412] ; [0x49dc] = 0x200002dc
        0x00004840:    8800        ..      LDRH     r0,[r0,#0]
        0x00004842:    b200        ..      SXTH     r0,r0
        0x00004844:    4961        aI      LDR      r1,[pc,#388] ; [0x49cc] = 0x200002e0
        0x00004846:    6008        .`      STR      r0,[r1,#0]
        0x00004848:    0620         .      LSLS     r0,r4,#24
        0x0000484a:    0f00        ..      LSRS     r0,r0,#28
        0x0000484c:    0080        ..      LSLS     r0,r0,#2
        0x0000484e:    4966        fI      LDR      r1,[pc,#408] ; [0x49e8] = 0x200002f4
        0x00004850:    5808        .X      LDR      r0,[r1,r0]
        0x00004852:    495c        \I      LDR      r1,[pc,#368] ; [0x49c4] = 0x2000033c
        0x00004854:    6809        .h      LDR      r1,[r1,#0]
        0x00004856:    4348        HC      MULS     r0,r1,r0
        0x00004858:    0a00        ..      LSRS     r0,r0,#8
        0x0000485a:    495a        ZI      LDR      r1,[pc,#360] ; [0x49c4] = 0x2000033c
        0x0000485c:    6008        .`      STR      r0,[r1,#0]
        0x0000485e:    4608        .F      MOV      r0,r1
        0x00004860:    6800        .h      LDR      r0,[r0,#0]
        0x00004862:    2810        .(      CMP      r0,#0x10
        0x00004864:    d201        ..      BCS      0x486a ; adpcmDecode + 586
        0x00004866:    2010        .       MOVS     r0,#0x10
        0x00004868:    6008        .`      STR      r0,[r1,#0]
        0x0000486a:    4856        VH      LDR      r0,[pc,#344] ; [0x49c4] = 0x2000033c
        0x0000486c:    6800        .h      LDR      r0,[r0,#0]
        0x0000486e:    495f        _I      LDR      r1,[pc,#380] ; [0x49ec] = 0x3fff
        0x00004870:    4288        .B      CMP      r0,r1
        0x00004872:    d902        ..      BLS      0x487a ; adpcmDecode + 602
        0x00004874:    4608        .F      MOV      r0,r1
        0x00004876:    4953        SI      LDR      r1,[pc,#332] ; [0x49c4] = 0x2000033c
        0x00004878:    6008        .`      STR      r0,[r1,#0]
        0x0000487a:    4855        UH      LDR      r0,[pc,#340] ; [0x49d0] = 0x200002e4
        0x0000487c:    6800        .h      LDR      r0,[r0,#0]
        0x0000487e:    494f        OI      LDR      r1,[pc,#316] ; [0x49bc] = 0x20000350
        0x00004880:    2200        ."      MOVS     r2,#0
        0x00004882:    5e8a        .^      LDRSH    r2,[r1,r2]
        0x00004884:    4350        PC      MULS     r0,r2,r0
        0x00004886:    4954        TI      LDR      r1,[pc,#336] ; [0x49d8] = 0x20000348
        0x00004888:    6809        .h      LDR      r1,[r1,#0]
        0x0000488a:    4a4d        MJ      LDR      r2,[pc,#308] ; [0x49c0] = 0x20000352
        0x0000488c:    2300        .#      MOVS     r3,#0
        0x0000488e:    5ed3        .^      LDRSH    r3,[r2,r3]
        0x00004890:    4359        YC      MULS     r1,r3,r1
        0x00004892:    1840        @.      ADDS     r0,r0,r1
        0x00004894:    1200        ..      ASRS     r0,r0,#8
        0x00004896:    4952        RI      LDR      r1,[pc,#328] ; [0x49e0] = 0x200002d8
        0x00004898:    6008        .`      STR      r0,[r1,#0]
        0x0000489a:    0120         .      LSLS     r0,r4,#4
        0x0000489c:    b240        @.      SXTB     r0,r0
        0x0000489e:    1104        ..      ASRS     r4,r0,#4
        0x000048a0:    4849        IH      LDR      r0,[pc,#292] ; [0x49c8] = 0x20000340
        0x000048a2:    6800        .h      LDR      r0,[r0,#0]
        0x000048a4:    4360        `C      MULS     r0,r4,r0
        0x000048a6:    6809        .h      LDR      r1,[r1,#0]
        0x000048a8:    1840        @.      ADDS     r0,r0,r1
        0x000048aa:    494d        MI      LDR      r1,[pc,#308] ; [0x49e0] = 0x200002d8
        0x000048ac:    6008        .`      STR      r0,[r1,#0]
        0x000048ae:    4608        .F      MOV      r0,r1
        0x000048b0:    6800        .h      LDR      r0,[r0,#0]
        0x000048b2:    494c        LI      LDR      r1,[pc,#304] ; [0x49e4] = 0x7fff
        0x000048b4:    4288        .B      CMP      r0,r1
        0x000048b6:    dd02        ..      BLE      0x48be ; adpcmDecode + 670
        0x000048b8:    4608        .F      MOV      r0,r1
        0x000048ba:    4949        II      LDR      r1,[pc,#292] ; [0x49e0] = 0x200002d8
        0x000048bc:    6008        .`      STR      r0,[r1,#0]
        0x000048be:    4848        HH      LDR      r0,[pc,#288] ; [0x49e0] = 0x200002d8
        0x000048c0:    6800        .h      LDR      r0,[r0,#0]
        0x000048c2:    4948        HI      LDR      r1,[pc,#288] ; [0x49e4] = 0x7fff
        0x000048c4:    43c9        .C      MVNS     r1,r1
        0x000048c6:    4288        .B      CMP      r0,r1
        0x000048c8:    da02        ..      BGE      0x48d0 ; adpcmDecode + 688
        0x000048ca:    4608        .F      MOV      r0,r1
        0x000048cc:    4944        DI      LDR      r1,[pc,#272] ; [0x49e0] = 0x200002d8
        0x000048ce:    6008        .`      STR      r0,[r1,#0]
        0x000048d0:    483f        ?H      LDR      r0,[pc,#252] ; [0x49d0] = 0x200002e4
        0x000048d2:    6800        .h      LDR      r0,[r0,#0]
        0x000048d4:    4940        @I      LDR      r1,[pc,#256] ; [0x49d8] = 0x20000348
        0x000048d6:    6008        .`      STR      r0,[r1,#0]
        0x000048d8:    4841        AH      LDR      r0,[pc,#260] ; [0x49e0] = 0x200002d8
        0x000048da:    6800        .h      LDR      r0,[r0,#0]
        0x000048dc:    493c        <I      LDR      r1,[pc,#240] ; [0x49d0] = 0x200002e4
        0x000048de:    6008        .`      STR      r0,[r1,#0]
        0x000048e0:    0720         .      LSLS     r0,r4,#28
        0x000048e2:    0e80        ..      LSRS     r0,r0,#26
        0x000048e4:    4940        @I      LDR      r1,[pc,#256] ; [0x49e8] = 0x200002f4
        0x000048e6:    5808        .X      LDR      r0,[r1,r0]
        0x000048e8:    4937        7I      LDR      r1,[pc,#220] ; [0x49c8] = 0x20000340
        0x000048ea:    6809        .h      LDR      r1,[r1,#0]
        0x000048ec:    4348        HC      MULS     r0,r1,r0
        0x000048ee:    0a00        ..      LSRS     r0,r0,#8
        0x000048f0:    4935        5I      LDR      r1,[pc,#212] ; [0x49c8] = 0x20000340
        0x000048f2:    6008        .`      STR      r0,[r1,#0]
        0x000048f4:    4608        .F      MOV      r0,r1
        0x000048f6:    6800        .h      LDR      r0,[r0,#0]
        0x000048f8:    2810        .(      CMP      r0,#0x10
        0x000048fa:    d201        ..      BCS      0x4900 ; adpcmDecode + 736
        0x000048fc:    2010        .       MOVS     r0,#0x10
        0x000048fe:    6008        .`      STR      r0,[r1,#0]
        0x00004900:    4831        1H      LDR      r0,[pc,#196] ; [0x49c8] = 0x20000340
        0x00004902:    6800        .h      LDR      r0,[r0,#0]
        0x00004904:    4939        9I      LDR      r1,[pc,#228] ; [0x49ec] = 0x3fff
        0x00004906:    4288        .B      CMP      r0,r1
        0x00004908:    d902        ..      BLS      0x4910 ; adpcmDecode + 752
        0x0000490a:    4608        .F      MOV      r0,r1
        0x0000490c:    492e        .I      LDR      r1,[pc,#184] ; [0x49c8] = 0x20000340
        0x0000490e:    6008        .`      STR      r0,[r1,#0]
        0x00004910:    bd10        ..      POP      {r4,pc}
    dealFlashEvent
        0x00004912:    b570        p.      PUSH     {r4-r6,lr}
        0x00004914:    4605        .F      MOV      r5,r0
        0x00004916:    460c        .F      MOV      r4,r1
        0x00004918:    4821        !H      LDR      r0,[pc,#132] ; [0x49a0] = 0x200002a4
        0x0000491a:    7800        .x      LDRB     r0,[r0,#0]
        0x0000491c:    2801        .(      CMP      r0,#1
        0x0000491e:    d118        ..      BNE      0x4952 ; dealFlashEvent + 64
        0x00004920:    4818        .H      LDR      r0,[pc,#96] ; [0x4984] = 0x20000a14
        0x00004922:    8840        @.      LDRH     r0,[r0,#2]
        0x00004924:    2800        .(      CMP      r0,#0
        0x00004926:    dd6a        j.      BLE      0x49fe ; dealFlashEvent + 236
        0x00004928:    4831        1H      LDR      r0,[pc,#196] ; [0x49f0] = 0x20000354
        0x0000492a:    6800        .h      LDR      r0,[r0,#0]
        0x0000492c:    2800        .(      CMP      r0,#0
        0x0000492e:    d011        ..      BEQ      0x4954 ; dealFlashEvent + 66
        0x00004930:    2000        .       MOVS     r0,#0
        0x00004932:    492f        /I      LDR      r1,[pc,#188] ; [0x49f0] = 0x20000354
        0x00004934:    6008        .`      STR      r0,[r1,#0]
        0x00004936:    4829        )H      LDR      r0,[pc,#164] ; [0x49dc] = 0x200002dc
        0x00004938:    6800        .h      LDR      r0,[r0,#0]
        0x0000493a:    492e        .I      LDR      r1,[pc,#184] ; [0x49f4] = 0x2000035c
        0x0000493c:    6809        .h      LDR      r1,[r1,#0]
        0x0000493e:    1840        @.      ADDS     r0,r0,r1
        0x00004940:    03c0        ..      LSLS     r0,r0,#15
        0x00004942:    6028        (`      STR      r0,[r5,#0]
        0x00004944:    4826        &H      LDR      r0,[pc,#152] ; [0x49e0] = 0x200002d8
        0x00004946:    6800        .h      LDR      r0,[r0,#0]
        0x00004948:    492b        +I      LDR      r1,[pc,#172] ; [0x49f8] = 0x20000358
        0x0000494a:    6809        .h      LDR      r1,[r1,#0]
        0x0000494c:    1840        @.      ADDS     r0,r0,r1
        0x0000494e:    03c0        ..      LSLS     r0,r0,#15
        0x00004950:    6020         `      STR      r0,[r4,#0]
        0x00004952:    e066        f.      B        0x4a22 ; dealFlashEvent + 272
        0x00004954:    2001        .       MOVS     r0,#1
        0x00004956:    4926        &I      LDR      r1,[pc,#152] ; [0x49f0] = 0x20000354
        0x00004958:    6008        .`      STR      r0,[r1,#0]
        0x0000495a:    4821        !H      LDR      r0,[pc,#132] ; [0x49e0] = 0x200002d8
        0x0000495c:    6800        .h      LDR      r0,[r0,#0]
        0x0000495e:    4926        &I      LDR      r1,[pc,#152] ; [0x49f8] = 0x20000358
        0x00004960:    6008        .`      STR      r0,[r1,#0]
        0x00004962:    481e        .H      LDR      r0,[pc,#120] ; [0x49dc] = 0x200002dc
        0x00004964:    6800        .h      LDR      r0,[r0,#0]
        0x00004966:    4923        #I      LDR      r1,[pc,#140] ; [0x49f4] = 0x2000035c
        0x00004968:    6008        .`      STR      r0,[r1,#0]
        0x0000496a:    f7fffe59    ..Y.    BL       adpcmDecode ; 0x4620
        0x0000496e:    481b        .H      LDR      r0,[pc,#108] ; [0x49dc] = 0x200002dc
        0x00004970:    8800        ..      LDRH     r0,[r0,#0]
        0x00004972:    0400        ..      LSLS     r0,r0,#16
        0x00004974:    6028        (`      STR      r0,[r5,#0]
        0x00004976:    481a        .H      LDR      r0,[pc,#104] ; [0x49e0] = 0x200002d8
        0x00004978:    8800        ..      LDRH     r0,[r0,#0]
        0x0000497a:    0400        ..      LSLS     r0,r0,#16
        0x0000497c:    6020         `      STR      r0,[r4,#0]
        0x0000497e:    e050        P.      B        0x4a22 ; dealFlashEvent + 272
    $d
        0x00004980:    40130000    ...@    DCD    1074987008
        0x00004984:    20000a14    ...     DCD    536873492
        0x00004988:    20000364    d..     DCD    536871780
        0x0000498c:    20000368    h..     DCD    536871784
        0x00004990:    20000a42    B..     DCD    536873538
        0x00004994:    200009bc    ...     DCD    536873404
        0x00004998:    4e534c47    GLSN    DCD    1314081863
        0x0000499c:    200002b8    ...     DCD    536871608
        0x000049a0:    200002a4    ...     DCD    536871588
        0x000049a4:    20000584    ...     DCD    536872324
        0x000049a8:    20000360    `..     DCD    536871776
        0x000049ac:    200002e8    ...     DCD    536871656
        0x000049b0:    200002ec    ...     DCD    536871660
        0x000049b4:    2000034c    L..     DCD    536871756
        0x000049b8:    2000034e    N..     DCD    536871758
        0x000049bc:    20000350    P..     DCD    536871760
        0x000049c0:    20000352    R..     DCD    536871762
        0x000049c4:    2000033c    <..     DCD    536871740
        0x000049c8:    20000340    @..     DCD    536871744
        0x000049cc:    200002e0    ...     DCD    536871648
        0x000049d0:    200002e4    ...     DCD    536871652
        0x000049d4:    20000344    D..     DCD    536871748
        0x000049d8:    20000348    H..     DCD    536871752
        0x000049dc:    200002dc    ...     DCD    536871644
        0x000049e0:    200002d8    ...     DCD    536871640
        0x000049e4:    00007fff    ....    DCD    32767
        0x000049e8:    200002f4    ...     DCD    536871668
        0x000049ec:    00003fff    .?..    DCD    16383
        0x000049f0:    20000354    T..     DCD    536871764
        0x000049f4:    2000035c    \..     DCD    536871772
        0x000049f8:    20000358    X..     DCD    536871768
    $t
        0x000049fc:    e7ff        ..      B        0x49fe ; dealFlashEvent + 236
        0x000049fe:    48f7        .H      LDR      r0,[pc,#988] ; [0x4ddc] = 0x40130000
        0x00004a00:    f000fa22    ..".    BL       SPI_CLR_SS0 ; 0x4e48
        0x00004a04:    2000        .       MOVS     r0,#0
        0x00004a06:    6028        (`      STR      r0,[r5,#0]
        0x00004a08:    6020         `      STR      r0,[r4,#0]
        0x00004a0a:    f000f9c2    ....    BL       I2S_CLR_RXFIFO ; 0x4d92
        0x00004a0e:    f000f9c8    ....    BL       I2S_CLR_TXFIFO ; 0x4da2
        0x00004a12:    2000        .       MOVS     r0,#0
        0x00004a14:    49f2        .I      LDR      r1,[pc,#968] ; [0x4de0] = 0x200002a4
        0x00004a16:    7008        .p      STRB     r0,[r1,#0]
        0x00004a18:    49f2        .I      LDR      r1,[pc,#968] ; [0x4de4] = 0x20000099
        0x00004a1a:    7008        .p      STRB     r0,[r1,#0]
        0x00004a1c:    48f2        .H      LDR      r0,[pc,#968] ; [0x4de8] = 0x4619
        0x00004a1e:    49f3        .I      LDR      r1,[pc,#972] ; [0x4dec] = 0x20000140
        0x00004a20:    6008        .`      STR      r0,[r1,#0]
        0x00004a22:    bd70        p.      POP      {r4-r6,pc}
    readfromspi
        0x00004a24:    b5ff        ..      PUSH     {r0-r7,lr}
        0x00004a26:    b081        ..      SUB      sp,sp,#4
        0x00004a28:    4605        .F      MOV      r5,r0
        0x00004a2a:    460e        .F      MOV      r6,r1
        0x00004a2c:    4617        .F      MOV      r7,r2
        0x00004a2e:    2400        .$      MOVS     r4,#0
        0x00004a30:    48ea        .H      LDR      r0,[pc,#936] ; [0x4ddc] = 0x40130000
        0x00004a32:    f000fa09    ....    BL       SPI_CLR_SS0 ; 0x4e48
        0x00004a36:    48e9        .H      LDR      r0,[pc,#932] ; [0x4ddc] = 0x40130000
        0x00004a38:    f000f9c9    ....    BL       SPI_DISABLE_REORDER ; 0x4dce
        0x00004a3c:    48e7        .H      LDR      r0,[pc,#924] ; [0x4ddc] = 0x40130000
        0x00004a3e:    f000f9fe    ....    BL       SPI_SET_SS0 ; 0x4e3e
        0x00004a42:    bf00        ..      NOP      
        0x00004a44:    e004        ..      B        0x4a50 ; readfromspi + 44
        0x00004a46:    5d30        0]      LDRB     r0,[r6,r4]
        0x00004a48:    2108        .!      MOVS     r1,#8
        0x00004a4a:    f7fffb7b    ..{.    BL       spiSendWord ; 0x4144
        0x00004a4e:    1c64        d.      ADDS     r4,r4,#1
        0x00004a50:    42ac        .B      CMP      r4,r5
        0x00004a52:    dbf8        ..      BLT      0x4a46 ; readfromspi + 34
        0x00004a54:    48e1        .H      LDR      r0,[pc,#900] ; [0x4ddc] = 0x40130000
        0x00004a56:    f000f9b4    ....    BL       SPI_ENABLE_REORDER ; 0x4dc2
        0x00004a5a:    2400        .$      MOVS     r4,#0
        0x00004a5c:    e009        ..      B        0x4a72 ; readfromspi + 78
        0x00004a5e:    2108        .!      MOVS     r1,#8
        0x00004a60:    20ff        .       MOVS     r0,#0xff
        0x00004a62:    f7fffb6f    ..o.    BL       spiSendWord ; 0x4144
        0x00004a66:    48dd        .H      LDR      r0,[pc,#884] ; [0x4ddc] = 0x40130000
        0x00004a68:    6900        .i      LDR      r0,[r0,#0x10]
        0x00004a6a:    b2c1        ..      UXTB     r1,r0
        0x00004a6c:    9804        ..      LDR      r0,[sp,#0x10]
        0x00004a6e:    5501        .U      STRB     r1,[r0,r4]
        0x00004a70:    1c64        d.      ADDS     r4,r4,#1
        0x00004a72:    42bc        .B      CMP      r4,r7
        0x00004a74:    d3f3        ..      BCC      0x4a5e ; readfromspi + 58
        0x00004a76:    48d9        .H      LDR      r0,[pc,#868] ; [0x4ddc] = 0x40130000
        0x00004a78:    f000f9e6    ....    BL       SPI_CLR_SS0 ; 0x4e48
        0x00004a7c:    2000        .       MOVS     r0,#0
        0x00004a7e:    b005        ..      ADD      sp,sp,#0x14
        0x00004a80:    bdf0        ..      POP      {r4-r7,pc}
    dwt_readfromdevice
        0x00004a82:    b5ff        ..      PUSH     {r0-r7,lr}
        0x00004a84:    b081        ..      SUB      sp,sp,#4
        0x00004a86:    4606        .F      MOV      r6,r0
        0x00004a88:    460c        .F      MOV      r4,r1
        0x00004a8a:    4617        .F      MOV      r7,r2
        0x00004a8c:    2500        .%      MOVS     r5,#0
        0x00004a8e:    2c00        .,      CMP      r4,#0
        0x00004a90:    d104        ..      BNE      0x4a9c ; dwt_readfromdevice + 26
        0x00004a92:    4629        )F      MOV      r1,r5
        0x00004a94:    1c6d        m.      ADDS     r5,r5,#1
        0x00004a96:    4668        hF      MOV      r0,sp
        0x00004a98:    5446        FT      STRB     r6,[r0,r1]
        0x00004a9a:    e01a        ..      B        0x4ad2 ; dwt_readfromdevice + 80
        0x00004a9c:    2040        @       MOVS     r0,#0x40
        0x00004a9e:    4330        0C      ORRS     r0,r0,r6
        0x00004aa0:    b2c2        ..      UXTB     r2,r0
        0x00004aa2:    4629        )F      MOV      r1,r5
        0x00004aa4:    1c6d        m.      ADDS     r5,r5,#1
        0x00004aa6:    4668        hF      MOV      r0,sp
        0x00004aa8:    5442        BT      STRB     r2,[r0,r1]
        0x00004aaa:    2c7f        .,      CMP      r4,#0x7f
        0x00004aac:    dc04        ..      BGT      0x4ab8 ; dwt_readfromdevice + 54
        0x00004aae:    4628        (F      MOV      r0,r5
        0x00004ab0:    1c6d        m.      ADDS     r5,r5,#1
        0x00004ab2:    4669        iF      MOV      r1,sp
        0x00004ab4:    540c        .T      STRB     r4,[r1,r0]
        0x00004ab6:    e00c        ..      B        0x4ad2 ; dwt_readfromdevice + 80
        0x00004ab8:    b2e0        ..      UXTB     r0,r4
        0x00004aba:    2180        .!      MOVS     r1,#0x80
        0x00004abc:    4308        .C      ORRS     r0,r0,r1
        0x00004abe:    4629        )F      MOV      r1,r5
        0x00004ac0:    1c6d        m.      ADDS     r5,r5,#1
        0x00004ac2:    466a        jF      MOV      r2,sp
        0x00004ac4:    5450        PT      STRB     r0,[r2,r1]
        0x00004ac6:    0460        `.      LSLS     r0,r4,#17
        0x00004ac8:    0e02        ..      LSRS     r2,r0,#24
        0x00004aca:    4628        (F      MOV      r0,r5
        0x00004acc:    1c6d        m.      ADDS     r5,r5,#1
        0x00004ace:    4669        iF      MOV      r1,sp
        0x00004ad0:    540a        .T      STRB     r2,[r1,r0]
        0x00004ad2:    b2a8        ..      UXTH     r0,r5
        0x00004ad4:    463a        :F      MOV      r2,r7
        0x00004ad6:    4669        iF      MOV      r1,sp
        0x00004ad8:    9b04        ..      LDR      r3,[sp,#0x10]
        0x00004ada:    f7ffffa3    ....    BL       readfromspi ; 0x4a24
        0x00004ade:    b005        ..      ADD      sp,sp,#0x14
        0x00004ae0:    bdf0        ..      POP      {r4-r7,pc}
    dwt_read32bitoffsetreg
        0x00004ae2:    b5f8        ..      PUSH     {r3-r7,lr}
        0x00004ae4:    4606        .F      MOV      r6,r0
        0x00004ae6:    460f        .F      MOV      r7,r1
        0x00004ae8:    2500        .%      MOVS     r5,#0
        0x00004aea:    466b        kF      MOV      r3,sp
        0x00004aec:    2204        ."      MOVS     r2,#4
        0x00004aee:    4639        9F      MOV      r1,r7
        0x00004af0:    4630        0F      MOV      r0,r6
        0x00004af2:    f7ffffc6    ....    BL       dwt_readfromdevice ; 0x4a82
        0x00004af6:    2403        .$      MOVS     r4,#3
        0x00004af8:    e004        ..      B        0x4b04 ; dwt_read32bitoffsetreg + 34
        0x00004afa:    0228        (.      LSLS     r0,r5,#8
        0x00004afc:    4669        iF      MOV      r1,sp
        0x00004afe:    5d09        .]      LDRB     r1,[r1,r4]
        0x00004b00:    1845        E.      ADDS     r5,r0,r1
        0x00004b02:    1e64        d.      SUBS     r4,r4,#1
        0x00004b04:    2c00        .,      CMP      r4,#0
        0x00004b06:    daf8        ..      BGE      0x4afa ; dwt_read32bitoffsetreg + 24
        0x00004b08:    4628        (F      MOV      r0,r5
        0x00004b0a:    bdf8        ..      POP      {r3-r7,pc}
    dwt_readdevid
        0x00004b0c:    b510        ..      PUSH     {r4,lr}
        0x00004b0e:    2100        .!      MOVS     r1,#0
        0x00004b10:    4608        .F      MOV      r0,r1
        0x00004b12:    f7ffffe6    ....    BL       dwt_read32bitoffsetreg ; 0x4ae2
        0x00004b16:    bd10        ..      POP      {r4,pc}
    spiFlashRead2
        0x00004b18:    b5f8        ..      PUSH     {r3-r7,lr}
        0x00004b1a:    4607        .F      MOV      r7,r0
        0x00004b1c:    460d        .F      MOV      r5,r1
        0x00004b1e:    4616        .F      MOV      r6,r2
        0x00004b20:    2400        .$      MOVS     r4,#0
        0x00004b22:    48ae        .H      LDR      r0,[pc,#696] ; [0x4ddc] = 0x40130000
        0x00004b24:    f000f990    ....    BL       SPI_CLR_SS0 ; 0x4e48
        0x00004b28:    48ac        .H      LDR      r0,[pc,#688] ; [0x4ddc] = 0x40130000
        0x00004b2a:    f000f950    ..P.    BL       SPI_DISABLE_REORDER ; 0x4dce
        0x00004b2e:    48ab        .H      LDR      r0,[pc,#684] ; [0x4ddc] = 0x40130000
        0x00004b30:    f000f985    ....    BL       SPI_SET_SS0 ; 0x4e3e
        0x00004b34:    2108        .!      MOVS     r1,#8
        0x00004b36:    4638        8F      MOV      r0,r7
        0x00004b38:    f7fffb04    ....    BL       spiSendWord ; 0x4144
        0x00004b3c:    48a7        .H      LDR      r0,[pc,#668] ; [0x4ddc] = 0x40130000
        0x00004b3e:    f000f940    ..@.    BL       SPI_ENABLE_REORDER ; 0x4dc2
        0x00004b42:    bf00        ..      NOP      
        0x00004b44:    e007        ..      B        0x4b56 ; spiFlashRead2 + 62
        0x00004b46:    2108        .!      MOVS     r1,#8
        0x00004b48:    20ff        .       MOVS     r0,#0xff
        0x00004b4a:    f7fffafb    ....    BL       spiSendWord ; 0x4144
        0x00004b4e:    48a3        .H      LDR      r0,[pc,#652] ; [0x4ddc] = 0x40130000
        0x00004b50:    6900        .i      LDR      r0,[r0,#0x10]
        0x00004b52:    5530        0U      STRB     r0,[r6,r4]
        0x00004b54:    1c64        d.      ADDS     r4,r4,#1
        0x00004b56:    42ac        .B      CMP      r4,r5
        0x00004b58:    d3f5        ..      BCC      0x4b46 ; spiFlashRead2 + 46
        0x00004b5a:    48a0        .H      LDR      r0,[pc,#640] ; [0x4ddc] = 0x40130000
        0x00004b5c:    f000f974    ..t.    BL       SPI_CLR_SS0 ; 0x4e48
        0x00004b60:    bdf8        ..      POP      {r3-r7,pc}
    writetospi
        0x00004b62:    b5ff        ..      PUSH     {r0-r7,lr}
        0x00004b64:    b081        ..      SUB      sp,sp,#4
        0x00004b66:    4605        .F      MOV      r5,r0
        0x00004b68:    460e        .F      MOV      r6,r1
        0x00004b6a:    4617        .F      MOV      r7,r2
        0x00004b6c:    2400        .$      MOVS     r4,#0
        0x00004b6e:    2000        .       MOVS     r0,#0
        0x00004b70:    9000        ..      STR      r0,[sp,#0]
        0x00004b72:    489a        .H      LDR      r0,[pc,#616] ; [0x4ddc] = 0x40130000
        0x00004b74:    f000f968    ..h.    BL       SPI_CLR_SS0 ; 0x4e48
        0x00004b78:    4898        .H      LDR      r0,[pc,#608] ; [0x4ddc] = 0x40130000
        0x00004b7a:    f000f928    ..(.    BL       SPI_DISABLE_REORDER ; 0x4dce
        0x00004b7e:    4897        .H      LDR      r0,[pc,#604] ; [0x4ddc] = 0x40130000
        0x00004b80:    f000f95d    ..].    BL       SPI_SET_SS0 ; 0x4e3e
        0x00004b84:    bf00        ..      NOP      
        0x00004b86:    e005        ..      B        0x4b94 ; writetospi + 50
        0x00004b88:    5d30        0]      LDRB     r0,[r6,r4]
        0x00004b8a:    2108        .!      MOVS     r1,#8
        0x00004b8c:    f7fffada    ....    BL       spiSendWord ; 0x4144
        0x00004b90:    1c60        `.      ADDS     r0,r4,#1
        0x00004b92:    b284        ..      UXTH     r4,r0
        0x00004b94:    42ac        .B      CMP      r4,r5
        0x00004b96:    dbf7        ..      BLT      0x4b88 ; writetospi + 38
        0x00004b98:    2400        .$      MOVS     r4,#0
        0x00004b9a:    e006        ..      B        0x4baa ; writetospi + 72
        0x00004b9c:    9904        ..      LDR      r1,[sp,#0x10]
        0x00004b9e:    5d08        .]      LDRB     r0,[r1,r4]
        0x00004ba0:    2108        .!      MOVS     r1,#8
        0x00004ba2:    f7fffacf    ....    BL       spiSendWord ; 0x4144
        0x00004ba6:    1c60        `.      ADDS     r0,r4,#1
        0x00004ba8:    b284        ..      UXTH     r4,r0
        0x00004baa:    42bc        .B      CMP      r4,r7
        0x00004bac:    d3f6        ..      BCC      0x4b9c ; writetospi + 58
        0x00004bae:    488b        .H      LDR      r0,[pc,#556] ; [0x4ddc] = 0x40130000
        0x00004bb0:    f000f94a    ..J.    BL       SPI_CLR_SS0 ; 0x4e48
        0x00004bb4:    2000        .       MOVS     r0,#0
        0x00004bb6:    b005        ..      ADD      sp,sp,#0x14
        0x00004bb8:    bdf0        ..      POP      {r4-r7,pc}
    dwt_writetodevice
        0x00004bba:    b5ff        ..      PUSH     {r0-r7,lr}
        0x00004bbc:    b081        ..      SUB      sp,sp,#4
        0x00004bbe:    4606        .F      MOV      r6,r0
        0x00004bc0:    460c        .F      MOV      r4,r1
        0x00004bc2:    4617        .F      MOV      r7,r2
        0x00004bc4:    2500        .%      MOVS     r5,#0
        0x00004bc6:    2c00        .,      CMP      r4,#0
        0x00004bc8:    d107        ..      BNE      0x4bda ; dwt_writetodevice + 32
        0x00004bca:    2080        .       MOVS     r0,#0x80
        0x00004bcc:    4330        0C      ORRS     r0,r0,r6
        0x00004bce:    b2c2        ..      UXTB     r2,r0
        0x00004bd0:    4628        (F      MOV      r0,r5
        0x00004bd2:    1c6d        m.      ADDS     r5,r5,#1
        0x00004bd4:    4669        iF      MOV      r1,sp
        0x00004bd6:    540a        .T      STRB     r2,[r1,r0]
        0x00004bd8:    e019        ..      B        0x4c0e ; dwt_writetodevice + 84
        0x00004bda:    20c0        .       MOVS     r0,#0xc0
        0x00004bdc:    4330        0C      ORRS     r0,r0,r6
        0x00004bde:    b2c2        ..      UXTB     r2,r0
        0x00004be0:    4628        (F      MOV      r0,r5
        0x00004be2:    1c6d        m.      ADDS     r5,r5,#1
        0x00004be4:    4669        iF      MOV      r1,sp
        0x00004be6:    540a        .T      STRB     r2,[r1,r0]
        0x00004be8:    2c7f        .,      CMP      r4,#0x7f
        0x00004bea:    dc03        ..      BGT      0x4bf4 ; dwt_writetodevice + 58
        0x00004bec:    4628        (F      MOV      r0,r5
        0x00004bee:    1c6d        m.      ADDS     r5,r5,#1
        0x00004bf0:    540c        .T      STRB     r4,[r1,r0]
        0x00004bf2:    e00c        ..      B        0x4c0e ; dwt_writetodevice + 84
        0x00004bf4:    b2e0        ..      UXTB     r0,r4
        0x00004bf6:    2180        .!      MOVS     r1,#0x80
        0x00004bf8:    4308        .C      ORRS     r0,r0,r1
        0x00004bfa:    4629        )F      MOV      r1,r5
        0x00004bfc:    1c6d        m.      ADDS     r5,r5,#1
        0x00004bfe:    466a        jF      MOV      r2,sp
        0x00004c00:    5450        PT      STRB     r0,[r2,r1]
        0x00004c02:    0460        `.      LSLS     r0,r4,#17
        0x00004c04:    0e02        ..      LSRS     r2,r0,#24
        0x00004c06:    4628        (F      MOV      r0,r5
        0x00004c08:    1c6d        m.      ADDS     r5,r5,#1
        0x00004c0a:    4669        iF      MOV      r1,sp
        0x00004c0c:    540a        .T      STRB     r2,[r1,r0]
        0x00004c0e:    b2a8        ..      UXTH     r0,r5
        0x00004c10:    463a        :F      MOV      r2,r7
        0x00004c12:    4669        iF      MOV      r1,sp
        0x00004c14:    9b04        ..      LDR      r3,[sp,#0x10]
        0x00004c16:    f7ffffa4    ....    BL       writetospi ; 0x4b62
        0x00004c1a:    b005        ..      ADD      sp,sp,#0x14
        0x00004c1c:    bdf0        ..      POP      {r4-r7,pc}
    spiFlashWrite2
        0x00004c1e:    b5f8        ..      PUSH     {r3-r7,lr}
        0x00004c20:    4605        .F      MOV      r5,r0
        0x00004c22:    460e        .F      MOV      r6,r1
        0x00004c24:    4617        .F      MOV      r7,r2
        0x00004c26:    2400        .$      MOVS     r4,#0
        0x00004c28:    2000        .       MOVS     r0,#0
        0x00004c2a:    9000        ..      STR      r0,[sp,#0]
        0x00004c2c:    486b        kH      LDR      r0,[pc,#428] ; [0x4ddc] = 0x40130000
        0x00004c2e:    f000f90b    ....    BL       SPI_CLR_SS0 ; 0x4e48
        0x00004c32:    486a        jH      LDR      r0,[pc,#424] ; [0x4ddc] = 0x40130000
        0x00004c34:    f000f8cb    ....    BL       SPI_DISABLE_REORDER ; 0x4dce
        0x00004c38:    4868        hH      LDR      r0,[pc,#416] ; [0x4ddc] = 0x40130000
        0x00004c3a:    f000f900    ....    BL       SPI_SET_SS0 ; 0x4e3e
        0x00004c3e:    2180        .!      MOVS     r1,#0x80
        0x00004c40:    4329        )C      ORRS     r1,r1,r5
        0x00004c42:    4608        .F      MOV      r0,r1
        0x00004c44:    2108        .!      MOVS     r1,#8
        0x00004c46:    f7fffa7d    ..}.    BL       spiSendWord ; 0x4144
        0x00004c4a:    4864        dH      LDR      r0,[pc,#400] ; [0x4ddc] = 0x40130000
        0x00004c4c:    f000f8b9    ....    BL       SPI_ENABLE_REORDER ; 0x4dc2
        0x00004c50:    bf00        ..      NOP      
        0x00004c52:    e008        ..      B        0x4c66 ; spiFlashWrite2 + 72
        0x00004c54:    5d38        8]      LDRB     r0,[r7,r4]
        0x00004c56:    2108        .!      MOVS     r1,#8
        0x00004c58:    f7fffa74    ..t.    BL       spiSendWord ; 0x4144
        0x00004c5c:    485f        _H      LDR      r0,[pc,#380] ; [0x4ddc] = 0x40130000
        0x00004c5e:    6900        .i      LDR      r0,[r0,#0x10]
        0x00004c60:    b2c0        ..      UXTB     r0,r0
        0x00004c62:    9000        ..      STR      r0,[sp,#0]
        0x00004c64:    1c64        d.      ADDS     r4,r4,#1
        0x00004c66:    42b4        .B      CMP      r4,r6
        0x00004c68:    d3f4        ..      BCC      0x4c54 ; spiFlashWrite2 + 54
        0x00004c6a:    485c        \H      LDR      r0,[pc,#368] ; [0x4ddc] = 0x40130000
        0x00004c6c:    f000f8ec    ....    BL       SPI_CLR_SS0 ; 0x4e48
        0x00004c70:    bdf8        ..      POP      {r3-r7,pc}
    reset_DW1000
        0x00004c72:    b510        ..      PUSH     {r4,lr}
        0x00004c74:    2203        ."      MOVS     r2,#3
        0x00004c76:    2109        .!      MOVS     r1,#9
        0x00004c78:    485d        ]H      LDR      r0,[pc,#372] ; [0x4df0] = 0x50004040
        0x00004c7a:    f7fffa4b    ..K.    BL       GPIO_SET_MODE ; 0x4114
        0x00004c7e:    bf00        ..      NOP      
        0x00004c80:    2000        .       MOVS     r0,#0
        0x00004c82:    495c        \I      LDR      r1,[pc,#368] ; [0x4df4] = 0x50004264
        0x00004c84:    6008        .`      STR      r0,[r1,#0]
        0x00004c86:    bf00        ..      NOP      
        0x00004c88:    20c8        .       MOVS     r0,#0xc8
        0x00004c8a:    f7fdfabc    ....    BL       sysDelayMs ; 0x2206
        0x00004c8e:    bf00        ..      NOP      
        0x00004c90:    2001        .       MOVS     r0,#1
        0x00004c92:    4958        XI      LDR      r1,[pc,#352] ; [0x4df4] = 0x50004264
        0x00004c94:    6008        .`      STR      r0,[r1,#0]
        0x00004c96:    bf00        ..      NOP      
        0x00004c98:    2032        2       MOVS     r0,#0x32
        0x00004c9a:    f7fdfab4    ....    BL       sysDelayMs ; 0x2206
        0x00004c9e:    2200        ."      MOVS     r2,#0
        0x00004ca0:    2109        .!      MOVS     r1,#9
        0x00004ca2:    4853        SH      LDR      r0,[pc,#332] ; [0x4df0] = 0x50004040
        0x00004ca4:    f7fffa36    ..6.    BL       GPIO_SET_MODE ; 0x4114
        0x00004ca8:    2002        .       MOVS     r0,#2
        0x00004caa:    f7fdfaac    ....    BL       sysDelayMs ; 0x2206
        0x00004cae:    bd10        ..      POP      {r4,pc}
    spi_set_rate_low
        0x00004cb0:    b510        ..      PUSH     {r4,lr}
        0x00004cb2:    2200        ."      MOVS     r2,#0
        0x00004cb4:    4611        .F      MOV      r1,r2
        0x00004cb6:    4849        IH      LDR      r0,[pc,#292] ; [0x4ddc] = 0x40130000
        0x00004cb8:    f000f8ba    ....    BL       SPI_SET_SS ; 0x4e30
        0x00004cbc:    4847        GH      LDR      r0,[pc,#284] ; [0x4ddc] = 0x40130000
        0x00004cbe:    f000f8be    ....    BL       SPI_SET_SS0 ; 0x4e3e
        0x00004cc2:    2320         #      MOVS     r3,#0x20
        0x00004cc4:    2204        ."      MOVS     r2,#4
        0x00004cc6:    2100        .!      MOVS     r1,#0
        0x00004cc8:    4844        DH      LDR      r0,[pc,#272] ; [0x4ddc] = 0x40130000
        0x00004cca:    f7fbff06    ....    BL       DrvSPI_Init ; 0xada
        0x00004cce:    4843        CH      LDR      r0,[pc,#268] ; [0x4ddc] = 0x40130000
        0x00004cd0:    f000f898    ....    BL       SPI_SET_MSB_FIRST ; 0x4e04
        0x00004cd4:    4841        AH      LDR      r0,[pc,#260] ; [0x4ddc] = 0x40130000
        0x00004cd6:    f000f87a    ..z.    BL       SPI_DISABLE_REORDER ; 0x4dce
        0x00004cda:    4840        @H      LDR      r0,[pc,#256] ; [0x4ddc] = 0x40130000
        0x00004cdc:    f000f8bb    ....    BL       SPI_ENABLE_BCN ; 0x4e56
        0x00004ce0:    210d        .!      MOVS     r1,#0xd
        0x00004ce2:    483e        >H      LDR      r0,[pc,#248] ; [0x4ddc] = 0x40130000
        0x00004ce4:    f000f89e    ....    BL       SPI_SET_DIVIDER ; 0x4e24
        0x00004ce8:    bd10        ..      POP      {r4,pc}
    spi_set_rate_high
        0x00004cea:    b510        ..      PUSH     {r4,lr}
        0x00004cec:    2200        ."      MOVS     r2,#0
        0x00004cee:    4611        .F      MOV      r1,r2
        0x00004cf0:    483a        :H      LDR      r0,[pc,#232] ; [0x4ddc] = 0x40130000
        0x00004cf2:    f000f89d    ....    BL       SPI_SET_SS ; 0x4e30
        0x00004cf6:    4839        9H      LDR      r0,[pc,#228] ; [0x4ddc] = 0x40130000
        0x00004cf8:    f000f8a1    ....    BL       SPI_SET_SS0 ; 0x4e3e
        0x00004cfc:    2320         #      MOVS     r3,#0x20
        0x00004cfe:    2204        ."      MOVS     r2,#4
        0x00004d00:    2100        .!      MOVS     r1,#0
        0x00004d02:    4836        6H      LDR      r0,[pc,#216] ; [0x4ddc] = 0x40130000
        0x00004d04:    f7fbfee9    ....    BL       DrvSPI_Init ; 0xada
        0x00004d08:    4834        4H      LDR      r0,[pc,#208] ; [0x4ddc] = 0x40130000
        0x00004d0a:    f000f87b    ..{.    BL       SPI_SET_MSB_FIRST ; 0x4e04
        0x00004d0e:    4833        3H      LDR      r0,[pc,#204] ; [0x4ddc] = 0x40130000
        0x00004d10:    f000f85d    ..].    BL       SPI_DISABLE_REORDER ; 0x4dce
        0x00004d14:    4831        1H      LDR      r0,[pc,#196] ; [0x4ddc] = 0x40130000
        0x00004d16:    f000f89e    ....    BL       SPI_ENABLE_BCN ; 0x4e56
        0x00004d1a:    2101        .!      MOVS     r1,#1
        0x00004d1c:    482f        /H      LDR      r0,[pc,#188] ; [0x4ddc] = 0x40130000
        0x00004d1e:    f000f881    ....    BL       SPI_SET_DIVIDER ; 0x4e24
        0x00004d22:    bd10        ..      POP      {r4,pc}
    NVIC_SetPriority
        0x00004d24:    b510        ..      PUSH     {r4,lr}
        0x00004d26:    2800        .(      CMP      r0,#0
        0x00004d28:    da19        ..      BGE      0x4d5e ; NVIC_SetPriority + 58
        0x00004d2a:    4a33        3J      LDR      r2,[pc,#204] ; [0x4df8] = 0xe000ed1c
        0x00004d2c:    0703        ..      LSLS     r3,r0,#28
        0x00004d2e:    0f1b        ..      LSRS     r3,r3,#28
        0x00004d30:    3b08        .;      SUBS     r3,r3,#8
        0x00004d32:    089b        ..      LSRS     r3,r3,#2
        0x00004d34:    009b        ..      LSLS     r3,r3,#2
        0x00004d36:    58d2        .X      LDR      r2,[r2,r3]
        0x00004d38:    0783        ..      LSLS     r3,r0,#30
        0x00004d3a:    0edc        ..      LSRS     r4,r3,#27
        0x00004d3c:    23ff        .#      MOVS     r3,#0xff
        0x00004d3e:    40a3        .@      LSLS     r3,r3,r4
        0x00004d40:    439a        .C      BICS     r2,r2,r3
        0x00004d42:    078b        ..      LSLS     r3,r1,#30
        0x00004d44:    0e1b        ..      LSRS     r3,r3,#24
        0x00004d46:    0784        ..      LSLS     r4,r0,#30
        0x00004d48:    0ee4        ..      LSRS     r4,r4,#27
        0x00004d4a:    40a3        .@      LSLS     r3,r3,r4
        0x00004d4c:    431a        .C      ORRS     r2,r2,r3
        0x00004d4e:    4b2a        *K      LDR      r3,[pc,#168] ; [0x4df8] = 0xe000ed1c
        0x00004d50:    0704        ..      LSLS     r4,r0,#28
        0x00004d52:    0f24        $.      LSRS     r4,r4,#28
        0x00004d54:    3c08        .<      SUBS     r4,r4,#8
        0x00004d56:    08a4        ..      LSRS     r4,r4,#2
        0x00004d58:    00a4        ..      LSLS     r4,r4,#2
        0x00004d5a:    511a        .Q      STR      r2,[r3,r4]
        0x00004d5c:    e018        ..      B        0x4d90 ; NVIC_SetPriority + 108
        0x00004d5e:    4a27        'J      LDR      r2,[pc,#156] ; [0x4dfc] = 0xe000e100
        0x00004d60:    2303        .#      MOVS     r3,#3
        0x00004d62:    021b        ..      LSLS     r3,r3,#8
        0x00004d64:    18d2        ..      ADDS     r2,r2,r3
        0x00004d66:    0883        ..      LSRS     r3,r0,#2
        0x00004d68:    009b        ..      LSLS     r3,r3,#2
        0x00004d6a:    58d2        .X      LDR      r2,[r2,r3]
        0x00004d6c:    0783        ..      LSLS     r3,r0,#30
        0x00004d6e:    0edc        ..      LSRS     r4,r3,#27
        0x00004d70:    23ff        .#      MOVS     r3,#0xff
        0x00004d72:    40a3        .@      LSLS     r3,r3,r4
        0x00004d74:    439a        .C      BICS     r2,r2,r3
        0x00004d76:    078b        ..      LSLS     r3,r1,#30
        0x00004d78:    0e1b        ..      LSRS     r3,r3,#24
        0x00004d7a:    0784        ..      LSLS     r4,r0,#30
        0x00004d7c:    0ee4        ..      LSRS     r4,r4,#27
        0x00004d7e:    40a3        .@      LSLS     r3,r3,r4
        0x00004d80:    431a        .C      ORRS     r2,r2,r3
        0x00004d82:    4b1e        .K      LDR      r3,[pc,#120] ; [0x4dfc] = 0xe000e100
        0x00004d84:    2403        .$      MOVS     r4,#3
        0x00004d86:    0224        $.      LSLS     r4,r4,#8
        0x00004d88:    191b        ..      ADDS     r3,r3,r4
        0x00004d8a:    0884        ..      LSRS     r4,r0,#2
        0x00004d8c:    00a4        ..      LSLS     r4,r4,#2
        0x00004d8e:    511a        .Q      STR      r2,[r3,r4]
        0x00004d90:    bd10        ..      POP      {r4,pc}
    I2S_CLR_RXFIFO
        0x00004d92:    481b        .H      LDR      r0,[pc,#108] ; [0x4e00] = 0x401a0000
        0x00004d94:    6800        .h      LDR      r0,[r0,#0]
        0x00004d96:    2101        .!      MOVS     r1,#1
        0x00004d98:    04c9        ..      LSLS     r1,r1,#19
        0x00004d9a:    4308        .C      ORRS     r0,r0,r1
        0x00004d9c:    4918        .I      LDR      r1,[pc,#96] ; [0x4e00] = 0x401a0000
        0x00004d9e:    6008        .`      STR      r0,[r1,#0]
        0x00004da0:    4770        pG      BX       lr
    I2S_CLR_TXFIFO
        0x00004da2:    4817        .H      LDR      r0,[pc,#92] ; [0x4e00] = 0x401a0000
        0x00004da4:    6800        .h      LDR      r0,[r0,#0]
        0x00004da6:    2101        .!      MOVS     r1,#1
        0x00004da8:    0489        ..      LSLS     r1,r1,#18
        0x00004daa:    4308        .C      ORRS     r0,r0,r1
        0x00004dac:    4914        .I      LDR      r1,[pc,#80] ; [0x4e00] = 0x401a0000
        0x00004dae:    6008        .`      STR      r0,[r1,#0]
        0x00004db0:    4770        pG      BX       lr
    I2S_SET_MCK_DIV
        0x00004db2:    4913        .I      LDR      r1,[pc,#76] ; [0x4e00] = 0x401a0000
        0x00004db4:    6849        Ih      LDR      r1,[r1,#4]
        0x00004db6:    08c9        ..      LSRS     r1,r1,#3
        0x00004db8:    00c9        ..      LSLS     r1,r1,#3
        0x00004dba:    4301        .C      ORRS     r1,r1,r0
        0x00004dbc:    4a10        .J      LDR      r2,[pc,#64] ; [0x4e00] = 0x401a0000
        0x00004dbe:    6051        Q`      STR      r1,[r2,#4]
        0x00004dc0:    4770        pG      BX       lr
    SPI_ENABLE_REORDER
        0x00004dc2:    6801        .h      LDR      r1,[r0,#0]
        0x00004dc4:    2201        ."      MOVS     r2,#1
        0x00004dc6:    04d2        ..      LSLS     r2,r2,#19
        0x00004dc8:    4311        .C      ORRS     r1,r1,r2
        0x00004dca:    6001        .`      STR      r1,[r0,#0]
        0x00004dcc:    4770        pG      BX       lr
    SPI_DISABLE_REORDER
        0x00004dce:    6801        .h      LDR      r1,[r0,#0]
        0x00004dd0:    2201        ."      MOVS     r2,#1
        0x00004dd2:    04d2        ..      LSLS     r2,r2,#19
        0x00004dd4:    4391        .C      BICS     r1,r1,r2
        0x00004dd6:    6001        .`      STR      r1,[r0,#0]
        0x00004dd8:    4770        pG      BX       lr
    $d
        0x00004dda:    0000        ..      DCW    0
        0x00004ddc:    40130000    ...@    DCD    1074987008
        0x00004de0:    200002a4    ...     DCD    536871588
        0x00004de4:    20000099    ...     DCD    536871065
        0x00004de8:    00004619    .F..    DCD    17945
        0x00004dec:    20000140    @..     DCD    536871232
        0x00004df0:    50004040    @@.P    DCD    1342193728
        0x00004df4:    50004264    dB.P    DCD    1342194276
        0x00004df8:    e000ed1c    ....    DCD    3758157084
        0x00004dfc:    e000e100    ....    DCD    3758153984
        0x00004e00:    401a0000    ...@    DCD    1075445760
    $t
    SPI_SET_MSB_FIRST
        0x00004e04:    6801        .h      LDR      r1,[r0,#0]
        0x00004e06:    2201        ."      MOVS     r2,#1
        0x00004e08:    0292        ..      LSLS     r2,r2,#10
        0x00004e0a:    4391        .C      BICS     r1,r1,r2
        0x00004e0c:    6001        .`      STR      r1,[r0,#0]
        0x00004e0e:    4770        pG      BX       lr
    SPI_SET_GO
        0x00004e10:    6801        .h      LDR      r1,[r0,#0]
        0x00004e12:    2201        ."      MOVS     r2,#1
        0x00004e14:    4311        .C      ORRS     r1,r1,r2
        0x00004e16:    6001        .`      STR      r1,[r0,#0]
        0x00004e18:    4770        pG      BX       lr
    SPI_IS_BUSY
        0x00004e1a:    4601        .F      MOV      r1,r0
        0x00004e1c:    6808        .h      LDR      r0,[r1,#0]
        0x00004e1e:    07c0        ..      LSLS     r0,r0,#31
        0x00004e20:    0fc0        ..      LSRS     r0,r0,#31
        0x00004e22:    4770        pG      BX       lr
    SPI_SET_DIVIDER
        0x00004e24:    6842        Bh      LDR      r2,[r0,#4]
        0x00004e26:    0a12        ..      LSRS     r2,r2,#8
        0x00004e28:    0212        ..      LSLS     r2,r2,#8
        0x00004e2a:    430a        .C      ORRS     r2,r2,r1
        0x00004e2c:    6042        B`      STR      r2,[r0,#4]
        0x00004e2e:    4770        pG      BX       lr
    SPI_SET_SS
        0x00004e30:    b510        ..      PUSH     {r4,lr}
        0x00004e32:    6883        .h      LDR      r3,[r0,#8]
        0x00004e34:    460c        .F      MOV      r4,r1
        0x00004e36:    4314        .C      ORRS     r4,r4,r2
        0x00004e38:    4323        #C      ORRS     r3,r3,r4
        0x00004e3a:    6083        .`      STR      r3,[r0,#8]
        0x00004e3c:    bd10        ..      POP      {r4,pc}
    SPI_SET_SS0
        0x00004e3e:    6881        .h      LDR      r1,[r0,#8]
        0x00004e40:    2201        ."      MOVS     r2,#1
        0x00004e42:    4311        .C      ORRS     r1,r1,r2
        0x00004e44:    6081        .`      STR      r1,[r0,#8]
        0x00004e46:    4770        pG      BX       lr
    SPI_CLR_SS0
        0x00004e48:    6881        .h      LDR      r1,[r0,#8]
        0x00004e4a:    0849        I.      LSRS     r1,r1,#1
        0x00004e4c:    0049        I.      LSLS     r1,r1,#1
        0x00004e4e:    6081        .`      STR      r1,[r0,#8]
        0x00004e50:    4770        pG      BX       lr
    SPI_WRITE_TX0
        0x00004e52:    6201        .b      STR      r1,[r0,#0x20]
        0x00004e54:    4770        pG      BX       lr
    SPI_ENABLE_BCN
        0x00004e56:    6bc1        .k      LDR      r1,[r0,#0x3c]
        0x00004e58:    0049        I.      LSLS     r1,r1,#1
        0x00004e5a:    0849        I.      LSRS     r1,r1,#1
        0x00004e5c:    63c1        .c      STR      r1,[r0,#0x3c]
        0x00004e5e:    4770        pG      BX       lr
    .text
    ampSendCmd_38
        0x00004e60:    b57c        |.      PUSH     {r2-r6,lr}
        0x00004e62:    4604        .F      MOV      r4,r0
        0x00004e64:    460d        .F      MOV      r5,r1
        0x00004e66:    48fa        .H      LDR      r0,[pc,#1000] ; [0x5250] = 0x2000055c
        0x00004e68:    2101        .!      MOVS     r1,#1
        0x00004e6a:    2302        .#      MOVS     r3,#2
        0x00004e6c:    2200        ."      MOVS     r2,#0
        0x00004e6e:    9100        ..      STR      r1,[sp,#0]
        0x00004e70:    9001        ..      STR      r0,[sp,#4]
        0x00004e72:    2138        8!      MOVS     r1,#0x38
        0x00004e74:    48f7        .H      LDR      r0,[pc,#988] ; [0x5254] = 0x20000a6c
        0x00004e76:    f7fef87a    ..z.    BL       initI2cDataBlock ; 0x2f6e
        0x00004e7a:    48f5        .H      LDR      r0,[pc,#980] ; [0x5250] = 0x2000055c
        0x00004e7c:    7044        Dp      STRB     r4,[r0,#1]
        0x00004e7e:    7085        .p      STRB     r5,[r0,#2]
        0x00004e80:    20a2        .       MOVS     r0,#0xa2
        0x00004e82:    49f3        .I      LDR      r1,[pc,#972] ; [0x5250] = 0x2000055c
        0x00004e84:    7008        .p      STRB     r0,[r1,#0]
        0x00004e86:    2100        .!      MOVS     r1,#0
        0x00004e88:    48f2        .H      LDR      r0,[pc,#968] ; [0x5254] = 0x20000a6c
        0x00004e8a:    f7fef937    ..7.    BL       addI2cChain ; 0x30fc
        0x00004e8e:    bf00        ..      NOP      
        0x00004e90:    48ef        .H      LDR      r0,[pc,#956] ; [0x5250] = 0x2000055c
        0x00004e92:    7800        .x      LDRB     r0,[r0,#0]
        0x00004e94:    28a2        .(      CMP      r0,#0xa2
        0x00004e96:    d0fb        ..      BEQ      0x4e90 ; ampSendCmd_38 + 48
        0x00004e98:    48ed        .H      LDR      r0,[pc,#948] ; [0x5250] = 0x2000055c
        0x00004e9a:    7800        .x      LDRB     r0,[r0,#0]
        0x00004e9c:    bd7c        |.      POP      {r2-r6,pc}
    ampGetCmd_38
        0x00004e9e:    b51c        ..      PUSH     {r2-r4,lr}
        0x00004ea0:    4604        .F      MOV      r4,r0
        0x00004ea2:    48eb        .H      LDR      r0,[pc,#940] ; [0x5250] = 0x2000055c
        0x00004ea4:    2101        .!      MOVS     r1,#1
        0x00004ea6:    2302        .#      MOVS     r3,#2
        0x00004ea8:    460a        .F      MOV      r2,r1
        0x00004eaa:    9100        ..      STR      r1,[sp,#0]
        0x00004eac:    9001        ..      STR      r0,[sp,#4]
        0x00004eae:    2138        8!      MOVS     r1,#0x38
        0x00004eb0:    48e8        .H      LDR      r0,[pc,#928] ; [0x5254] = 0x20000a6c
        0x00004eb2:    f7fef85c    ..\.    BL       initI2cDataBlock ; 0x2f6e
        0x00004eb6:    48e6        .H      LDR      r0,[pc,#920] ; [0x5250] = 0x2000055c
        0x00004eb8:    7044        Dp      STRB     r4,[r0,#1]
        0x00004eba:    2100        .!      MOVS     r1,#0
        0x00004ebc:    7081        .p      STRB     r1,[r0,#2]
        0x00004ebe:    20a2        .       MOVS     r0,#0xa2
        0x00004ec0:    49e3        .I      LDR      r1,[pc,#908] ; [0x5250] = 0x2000055c
        0x00004ec2:    7008        .p      STRB     r0,[r1,#0]
        0x00004ec4:    2100        .!      MOVS     r1,#0
        0x00004ec6:    48e3        .H      LDR      r0,[pc,#908] ; [0x5254] = 0x20000a6c
        0x00004ec8:    f7fef918    ....    BL       addI2cChain ; 0x30fc
        0x00004ecc:    bf00        ..      NOP      
        0x00004ece:    48e0        .H      LDR      r0,[pc,#896] ; [0x5250] = 0x2000055c
        0x00004ed0:    7800        .x      LDRB     r0,[r0,#0]
        0x00004ed2:    28a2        .(      CMP      r0,#0xa2
        0x00004ed4:    d0fb        ..      BEQ      0x4ece ; ampGetCmd_38 + 48
        0x00004ed6:    48de        .H      LDR      r0,[pc,#888] ; [0x5250] = 0x2000055c
        0x00004ed8:    7800        .x      LDRB     r0,[r0,#0]
        0x00004eda:    48dd        .H      LDR      r0,[pc,#884] ; [0x5250] = 0x2000055c
        0x00004edc:    7880        .x      LDRB     r0,[r0,#2]
        0x00004ede:    bd1c        ..      POP      {r2-r4,pc}
    ampInitAllConf
        0x00004ee0:    b510        ..      PUSH     {r4,lr}
        0x00004ee2:    2400        .$      MOVS     r4,#0
        0x00004ee4:    e014        ..      B        0x4f10 ; ampInitAllConf + 48
        0x00004ee6:    2c58        X,      CMP      r4,#0x58
        0x00004ee8:    d300        ..      BCC      0x4eec ; ampInitAllConf + 12
        0x00004eea:    e012        ..      B        0x4f12 ; ampInitAllConf + 50
        0x00004eec:    4bda        .K      LDR      r3,[pc,#872] ; [0x5258] = 0x20000404
        0x00004eee:    1c62        b.      ADDS     r2,r4,#1
        0x00004ef0:    5c99        .\      LDRB     r1,[r3,r2]
        0x00004ef2:    461a        .F      MOV      r2,r3
        0x00004ef4:    5d10        .]      LDRB     r0,[r2,r4]
        0x00004ef6:    f7ffffb3    ....    BL       ampSendCmd_38 ; 0x4e60
        0x00004efa:    1ca4        ..      ADDS     r4,r4,#2
        0x00004efc:    f000fb95    ....    BL       SYS_UnlockReg ; 0x562a
        0x00004f00:    f000fb9b    ....    BL       WDT_TIMER_RESET ; 0x563a
        0x00004f04:    bf00        ..      NOP      
        0x00004f06:    2000        .       MOVS     r0,#0
        0x00004f08:    49d4        .I      LDR      r1,[pc,#848] ; [0x525c] = 0x50000100
        0x00004f0a:    6008        .`      STR      r0,[r1,#0]
        0x00004f0c:    bf00        ..      NOP      
        0x00004f0e:    bf00        ..      NOP      
        0x00004f10:    e7e9        ..      B        0x4ee6 ; ampInitAllConf + 6
        0x00004f12:    bf00        ..      NOP      
        0x00004f14:    21df        .!      MOVS     r1,#0xdf
        0x00004f16:    2005        .       MOVS     r0,#5
        0x00004f18:    f7ffffa2    ....    BL       ampSendCmd_38 ; 0x4e60
        0x00004f1c:    48cc        .H      LDR      r0,[pc,#816] ; [0x5250] = 0x2000055c
        0x00004f1e:    7800        .x      LDRB     r0,[r0,#0]
        0x00004f20:    bd10        ..      POP      {r4,pc}
    ampInit
        0x00004f22:    b510        ..      PUSH     {r4,lr}
        0x00004f24:    f7fdfa38    ..8.    BL       getATask ; 0x2398
        0x00004f28:    49cd        .I      LDR      r1,[pc,#820] ; [0x5260] = 0x2000055f
        0x00004f2a:    7008        .p      STRB     r0,[r1,#0]
        0x00004f2c:    bd10        ..      POP      {r4,pc}
    ampGetStatus
        0x00004f2e:    b51c        ..      PUSH     {r2-r4,lr}
        0x00004f30:    2400        .$      MOVS     r4,#0
        0x00004f32:    bf00        ..      NOP      
        0x00004f34:    e028        (.      B        0x4f88 ; ampGetStatus + 90
        0x00004f36:    49c6        .I      LDR      r1,[pc,#792] ; [0x5250] = 0x2000055c
        0x00004f38:    704c        Lp      STRB     r4,[r1,#1]
        0x00004f3a:    2100        .!      MOVS     r1,#0
        0x00004f3c:    48c4        .H      LDR      r0,[pc,#784] ; [0x5250] = 0x2000055c
        0x00004f3e:    7081        .p      STRB     r1,[r0,#2]
        0x00004f40:    20a2        .       MOVS     r0,#0xa2
        0x00004f42:    49c3        .I      LDR      r1,[pc,#780] ; [0x5250] = 0x2000055c
        0x00004f44:    7008        .p      STRB     r0,[r1,#0]
        0x00004f46:    4608        .F      MOV      r0,r1
        0x00004f48:    2101        .!      MOVS     r1,#1
        0x00004f4a:    2302        .#      MOVS     r3,#2
        0x00004f4c:    460a        .F      MOV      r2,r1
        0x00004f4e:    9100        ..      STR      r1,[sp,#0]
        0x00004f50:    9001        ..      STR      r0,[sp,#4]
        0x00004f52:    2138        8!      MOVS     r1,#0x38
        0x00004f54:    48bf        .H      LDR      r0,[pc,#764] ; [0x5254] = 0x20000a6c
        0x00004f56:    f7fef80a    ....    BL       initI2cDataBlock ; 0x2f6e
        0x00004f5a:    2100        .!      MOVS     r1,#0
        0x00004f5c:    48bd        .H      LDR      r0,[pc,#756] ; [0x5254] = 0x20000a6c
        0x00004f5e:    f7fef8cd    ....    BL       addI2cChain ; 0x30fc
        0x00004f62:    bf00        ..      NOP      
        0x00004f64:    48ba        .H      LDR      r0,[pc,#744] ; [0x5250] = 0x2000055c
        0x00004f66:    7800        .x      LDRB     r0,[r0,#0]
        0x00004f68:    28a2        .(      CMP      r0,#0xa2
        0x00004f6a:    d0fb        ..      BEQ      0x4f64 ; ampGetStatus + 54
        0x00004f6c:    48b8        .H      LDR      r0,[pc,#736] ; [0x5250] = 0x2000055c
        0x00004f6e:    7880        .x      LDRB     r0,[r0,#2]
        0x00004f70:    49bc        .I      LDR      r1,[pc,#752] ; [0x5264] = 0x20000a7c
        0x00004f72:    5508        .U      STRB     r0,[r1,r4]
        0x00004f74:    f000fb59    ..Y.    BL       SYS_UnlockReg ; 0x562a
        0x00004f78:    f000fb5f    .._.    BL       WDT_TIMER_RESET ; 0x563a
        0x00004f7c:    bf00        ..      NOP      
        0x00004f7e:    2000        .       MOVS     r0,#0
        0x00004f80:    49b6        .I      LDR      r1,[pc,#728] ; [0x525c] = 0x50000100
        0x00004f82:    6008        .`      STR      r0,[r1,#0]
        0x00004f84:    bf00        ..      NOP      
        0x00004f86:    1c64        d.      ADDS     r4,r4,#1
        0x00004f88:    2c16        .,      CMP      r4,#0x16
        0x00004f8a:    d3d4        ..      BCC      0x4f36 ; ampGetStatus + 8
        0x00004f8c:    202d        -       MOVS     r0,#0x2d
        0x00004f8e:    49b0        .I      LDR      r1,[pc,#704] ; [0x5250] = 0x2000055c
        0x00004f90:    7048        Hp      STRB     r0,[r1,#1]
        0x00004f92:    2100        .!      MOVS     r1,#0
        0x00004f94:    48ae        .H      LDR      r0,[pc,#696] ; [0x5250] = 0x2000055c
        0x00004f96:    7081        .p      STRB     r1,[r0,#2]
        0x00004f98:    20a2        .       MOVS     r0,#0xa2
        0x00004f9a:    49ad        .I      LDR      r1,[pc,#692] ; [0x5250] = 0x2000055c
        0x00004f9c:    7008        .p      STRB     r0,[r1,#0]
        0x00004f9e:    2038        8       MOVS     r0,#0x38
        0x00004fa0:    49ac        .I      LDR      r1,[pc,#688] ; [0x5254] = 0x20000a6c
        0x00004fa2:    7008        .p      STRB     r0,[r1,#0]
        0x00004fa4:    2100        .!      MOVS     r1,#0
        0x00004fa6:    48ab        .H      LDR      r0,[pc,#684] ; [0x5254] = 0x20000a6c
        0x00004fa8:    f7fef8a8    ....    BL       addI2cChain ; 0x30fc
        0x00004fac:    bf00        ..      NOP      
        0x00004fae:    48a8        .H      LDR      r0,[pc,#672] ; [0x5250] = 0x2000055c
        0x00004fb0:    7800        .x      LDRB     r0,[r0,#0]
        0x00004fb2:    28a2        .(      CMP      r0,#0xa2
        0x00004fb4:    d0fb        ..      BEQ      0x4fae ; ampGetStatus + 128
        0x00004fb6:    48a6        .H      LDR      r0,[pc,#664] ; [0x5250] = 0x2000055c
        0x00004fb8:    7880        .x      LDRB     r0,[r0,#2]
        0x00004fba:    49aa        .I      LDR      r1,[pc,#680] ; [0x5264] = 0x20000a7c
        0x00004fbc:    7588        .u      STRB     r0,[r1,#0x16]
        0x00004fbe:    bd1c        ..      POP      {r2-r4,pc}
    ampSendEqs_38
        0x00004fc0:    b570        p.      PUSH     {r4-r6,lr}
        0x00004fc2:    4605        .F      MOV      r5,r0
        0x00004fc4:    460e        .F      MOV      r6,r1
        0x00004fc6:    2d3f        ?-      CMP      r5,#0x3f
        0x00004fc8:    d803        ..      BHI      0x4fd2 ; ampSendEqs_38 + 18
        0x00004fca:    2e3f        ?.      CMP      r6,#0x3f
        0x00004fcc:    d801        ..      BHI      0x4fd2 ; ampSendEqs_38 + 18
        0x00004fce:    42b5        .B      CMP      r5,r6
        0x00004fd0:    d900        ..      BLS      0x4fd4 ; ampSendEqs_38 + 20
        0x00004fd2:    bd70        p.      POP      {r4-r6,pc}
        0x00004fd4:    462c        ,F      MOV      r4,r5
        0x00004fd6:    e020         .      B        0x501a ; ampSendEqs_38 + 90
        0x00004fd8:    2100        .!      MOVS     r1,#0
        0x00004fda:    2031        1       MOVS     r0,#0x31
        0x00004fdc:    f7ffff40    ..@.    BL       ampSendCmd_38 ; 0x4e60
        0x00004fe0:    b2e1        ..      UXTB     r1,r4
        0x00004fe2:    2016        .       MOVS     r0,#0x16
        0x00004fe4:    f7ffff3c    ..<.    BL       ampSendCmd_38 ; 0x4e60
        0x00004fe8:    00a0        ..      LSLS     r0,r4,#2
        0x00004fea:    499f        .I      LDR      r1,[pc,#636] ; [0x5268] = 0x2000045c
        0x00004fec:    1841        A.      ADDS     r1,r0,r1
        0x00004fee:    489f        .H      LDR      r0,[pc,#636] ; [0x526c] = 0x20000560
        0x00004ff0:    6809        .h      LDR      r1,[r1,#0]
        0x00004ff2:    6001        .`      STR      r1,[r0,#0]
        0x00004ff4:    7881        .x      LDRB     r1,[r0,#2]
        0x00004ff6:    2017        .       MOVS     r0,#0x17
        0x00004ff8:    f7ffff32    ..2.    BL       ampSendCmd_38 ; 0x4e60
        0x00004ffc:    489b        .H      LDR      r0,[pc,#620] ; [0x526c] = 0x20000560
        0x00004ffe:    7841        Ax      LDRB     r1,[r0,#1]
        0x00005000:    2018        .       MOVS     r0,#0x18
        0x00005002:    f7ffff2d    ..-.    BL       ampSendCmd_38 ; 0x4e60
        0x00005006:    4899        .H      LDR      r0,[pc,#612] ; [0x526c] = 0x20000560
        0x00005008:    7801        .x      LDRB     r1,[r0,#0]
        0x0000500a:    2019        .       MOVS     r0,#0x19
        0x0000500c:    f7ffff28    ..(.    BL       ampSendCmd_38 ; 0x4e60
        0x00005010:    2101        .!      MOVS     r1,#1
        0x00005012:    2026        &       MOVS     r0,#0x26
        0x00005014:    f7ffff24    ..$.    BL       ampSendCmd_38 ; 0x4e60
        0x00005018:    1c64        d.      ADDS     r4,r4,#1
        0x0000501a:    42b4        .B      CMP      r4,r6
        0x0000501c:    d9dc        ..      BLS      0x4fd8 ; ampSendEqs_38 + 24
        0x0000501e:    bf00        ..      NOP      
        0x00005020:    e7d7        ..      B        0x4fd2 ; ampSendEqs_38 + 18
    ampSetEqDefault
        0x00005022:    b5f8        ..      PUSH     {r3-r7,lr}
        0x00005024:    4605        .F      MOV      r5,r0
        0x00005026:    460f        .F      MOV      r7,r1
        0x00005028:    4616        .F      MOV      r6,r2
        0x0000502a:    2400        .$      MOVS     r4,#0
        0x0000502c:    2100        .!      MOVS     r1,#0
        0x0000502e:    2031        1       MOVS     r0,#0x31
        0x00005030:    f7ffff16    ....    BL       ampSendCmd_38 ; 0x4e60
        0x00005034:    b2e9        ..      UXTB     r1,r5
        0x00005036:    2016        .       MOVS     r0,#0x16
        0x00005038:    f7ffff12    ....    BL       ampSendCmd_38 ; 0x4e60
        0x0000503c:    e01d        ..      B        0x507a ; ampSetEqDefault + 88
        0x0000503e:    00a0        ..      LSLS     r0,r4,#2
        0x00005040:    1981        ..      ADDS     r1,r0,r6
        0x00005042:    488a        .H      LDR      r0,[pc,#552] ; [0x526c] = 0x20000560
        0x00005044:    6809        .h      LDR      r1,[r1,#0]
        0x00005046:    6001        .`      STR      r1,[r0,#0]
        0x00005048:    4602        .F      MOV      r2,r0
        0x0000504a:    7891        .x      LDRB     r1,[r2,#2]
        0x0000504c:    0062        b.      LSLS     r2,r4,#1
        0x0000504e:    18a2        ..      ADDS     r2,r4,r2
        0x00005050:    3217        .2      ADDS     r2,r2,#0x17
        0x00005052:    b2d0        ..      UXTB     r0,r2
        0x00005054:    f7ffff04    ....    BL       ampSendCmd_38 ; 0x4e60
        0x00005058:    4a84        .J      LDR      r2,[pc,#528] ; [0x526c] = 0x20000560
        0x0000505a:    7851        Qx      LDRB     r1,[r2,#1]
        0x0000505c:    0062        b.      LSLS     r2,r4,#1
        0x0000505e:    18a2        ..      ADDS     r2,r4,r2
        0x00005060:    3218        .2      ADDS     r2,r2,#0x18
        0x00005062:    b2d0        ..      UXTB     r0,r2
        0x00005064:    f7fffefc    ....    BL       ampSendCmd_38 ; 0x4e60
        0x00005068:    4a80        .J      LDR      r2,[pc,#512] ; [0x526c] = 0x20000560
        0x0000506a:    7811        .x      LDRB     r1,[r2,#0]
        0x0000506c:    0062        b.      LSLS     r2,r4,#1
        0x0000506e:    18a2        ..      ADDS     r2,r4,r2
        0x00005070:    3219        .2      ADDS     r2,r2,#0x19
        0x00005072:    b2d0        ..      UXTB     r0,r2
        0x00005074:    f7fffef4    ....    BL       ampSendCmd_38 ; 0x4e60
        0x00005078:    1c64        d.      ADDS     r4,r4,#1
        0x0000507a:    2c05        .,      CMP      r4,#5
        0x0000507c:    d3df        ..      BCC      0x503e ; ampSetEqDefault + 28
        0x0000507e:    2102        .!      MOVS     r1,#2
        0x00005080:    2026        &       MOVS     r0,#0x26
        0x00005082:    f7fffeed    ....    BL       ampSendCmd_38 ; 0x4e60
        0x00005086:    bdf8        ..      POP      {r3-r7,pc}
    turnDownVolume
        0x00005088:    b510        ..      PUSH     {r4,lr}
        0x0000508a:    2400        .$      MOVS     r4,#0
        0x0000508c:    4870        pH      LDR      r0,[pc,#448] ; [0x5250] = 0x2000055c
        0x0000508e:    7800        .x      LDRB     r0,[r0,#0]
        0x00005090:    28a0        .(      CMP      r0,#0xa0
        0x00005092:    d155        U.      BNE      0x5140 ; turnDownVolume + 184
        0x00005094:    486e        nH      LDR      r0,[pc,#440] ; [0x5250] = 0x2000055c
        0x00005096:    7880        .x      LDRB     r0,[r0,#2]
        0x00005098:    4975        uI      LDR      r1,[pc,#468] ; [0x5270] = 0x200003a4
        0x0000509a:    7809        .x      LDRB     r1,[r1,#0]
        0x0000509c:    4288        .B      CMP      r0,r1
        0x0000509e:    d100        ..      BNE      0x50a2 ; turnDownVolume + 26
        0x000050a0:    e03f        ?.      B        0x5122 ; turnDownVolume + 154
        0x000050a2:    e028        (.      B        0x50f6 ; turnDownVolume + 110
        0x000050a4:    486a        jH      LDR      r0,[pc,#424] ; [0x5250] = 0x2000055c
        0x000050a6:    7881        .x      LDRB     r1,[r0,#2]
        0x000050a8:    4872        rH      LDR      r0,[pc,#456] ; [0x5274] = 0x2000036c
        0x000050aa:    6800        .h      LDR      r0,[r0,#0]
        0x000050ac:    1e40        @.      SUBS     r0,r0,#1
        0x000050ae:    4a70        pJ      LDR      r2,[pc,#448] ; [0x5270] = 0x200003a4
        0x000050b0:    5c10        .\      LDRB     r0,[r2,r0]
        0x000050b2:    4281        .B      CMP      r1,r0
        0x000050b4:    da12        ..      BGE      0x50dc ; turnDownVolume + 84
        0x000050b6:    4866        fH      LDR      r0,[pc,#408] ; [0x5250] = 0x2000055c
        0x000050b8:    7880        .x      LDRB     r0,[r0,#2]
        0x000050ba:    4611        .F      MOV      r1,r2
        0x000050bc:    4a6d        mJ      LDR      r2,[pc,#436] ; [0x5274] = 0x2000036c
        0x000050be:    6812        .h      LDR      r2,[r2,#0]
        0x000050c0:    5c89        .\      LDRB     r1,[r1,r2]
        0x000050c2:    4288        .B      CMP      r0,r1
        0x000050c4:    db0a        ..      BLT      0x50dc ; turnDownVolume + 84
        0x000050c6:    486b        kH      LDR      r0,[pc,#428] ; [0x5274] = 0x2000036c
        0x000050c8:    6800        .h      LDR      r0,[r0,#0]
        0x000050ca:    1e40        @.      SUBS     r0,r0,#1
        0x000050cc:    4968        hI      LDR      r1,[pc,#416] ; [0x5270] = 0x200003a4
        0x000050ce:    5c09        .\      LDRB     r1,[r1,r0]
        0x000050d0:    485f        _H      LDR      r0,[pc,#380] ; [0x5250] = 0x2000055c
        0x000050d2:    7081        .p      STRB     r1,[r0,#2]
        0x000050d4:    4867        gH      LDR      r0,[pc,#412] ; [0x5274] = 0x2000036c
        0x000050d6:    6800        .h      LDR      r0,[r0,#0]
        0x000050d8:    1e44        D.      SUBS     r4,r0,#1
        0x000050da:    e010        ..      B        0x50fe ; turnDownVolume + 118
        0x000050dc:    4865        eH      LDR      r0,[pc,#404] ; [0x5274] = 0x2000036c
        0x000050de:    6800        .h      LDR      r0,[r0,#0]
        0x000050e0:    2801        .(      CMP      r0,#1
        0x000050e2:    d103        ..      BNE      0x50ec ; turnDownVolume + 100
        0x000050e4:    2020                MOVS     r0,#0x20
        0x000050e6:    4963        cI      LDR      r1,[pc,#396] ; [0x5274] = 0x2000036c
        0x000050e8:    4604        .F      MOV      r4,r0
        0x000050ea:    6008        .`      STR      r0,[r1,#0]
        0x000050ec:    4861        aH      LDR      r0,[pc,#388] ; [0x5274] = 0x2000036c
        0x000050ee:    6800        .h      LDR      r0,[r0,#0]
        0x000050f0:    1e40        @.      SUBS     r0,r0,#1
        0x000050f2:    4960        `I      LDR      r1,[pc,#384] ; [0x5274] = 0x2000036c
        0x000050f4:    6008        .`      STR      r0,[r1,#0]
        0x000050f6:    485f        _H      LDR      r0,[pc,#380] ; [0x5274] = 0x2000036c
        0x000050f8:    6800        .h      LDR      r0,[r0,#0]
        0x000050fa:    2800        .(      CMP      r0,#0
        0x000050fc:    d1d2        ..      BNE      0x50a4 ; turnDownVolume + 28
        0x000050fe:    bf00        ..      NOP      
        0x00005100:    485c        \H      LDR      r0,[pc,#368] ; [0x5274] = 0x2000036c
        0x00005102:    6800        .h      LDR      r0,[r0,#0]
        0x00005104:    2801        .(      CMP      r0,#1
        0x00005106:    d80b        ..      BHI      0x5120 ; turnDownVolume + 152
        0x00005108:    201f        .       MOVS     r0,#0x1f
        0x0000510a:    495a        ZI      LDR      r1,[pc,#360] ; [0x5274] = 0x2000036c
        0x0000510c:    4604        .F      MOV      r4,r0
        0x0000510e:    6008        .`      STR      r0,[r1,#0]
        0x00005110:    4b59        YK      LDR      r3,[pc,#356] ; [0x5278] = 0x51e9
        0x00005112:    2200        ."      MOVS     r2,#0
        0x00005114:    2103        .!      MOVS     r1,#3
        0x00005116:    4859        YH      LDR      r0,[pc,#356] ; [0x527c] = 0x20000567
        0x00005118:    7800        .x      LDRB     r0,[r0,#0]
        0x0000511a:    f7fdf96d    ..m.    BL       startATask ; 0x23f8
        0x0000511e:    bd10        ..      POP      {r4,pc}
        0x00005120:    bf00        ..      NOP      
        0x00005122:    4857        WH      LDR      r0,[pc,#348] ; [0x5280] = 0x200003c4
        0x00005124:    5d01        .]      LDRB     r1,[r0,r4]
        0x00005126:    200a        .       MOVS     r0,#0xa
        0x00005128:    f7fffe9a    ....    BL       ampSendCmd_38 ; 0x4e60
        0x0000512c:    4854        TH      LDR      r0,[pc,#336] ; [0x5280] = 0x200003c4
        0x0000512e:    5d01        .]      LDRB     r1,[r0,r4]
        0x00005130:    2009        .       MOVS     r0,#9
        0x00005132:    f7fffe95    ....    BL       ampSendCmd_38 ; 0x4e60
        0x00005136:    484e        NH      LDR      r0,[pc,#312] ; [0x5270] = 0x200003a4
        0x00005138:    5d01        .]      LDRB     r1,[r0,r4]
        0x0000513a:    2008        .       MOVS     r0,#8
        0x0000513c:    f7fffe90    ....    BL       ampSendCmd_38 ; 0x4e60
        0x00005140:    4b4d        MK      LDR      r3,[pc,#308] ; [0x5278] = 0x51e9
        0x00005142:    2200        ."      MOVS     r2,#0
        0x00005144:    2103        .!      MOVS     r1,#3
        0x00005146:    484d        MH      LDR      r0,[pc,#308] ; [0x527c] = 0x20000567
        0x00005148:    7800        .x      LDRB     r0,[r0,#0]
        0x0000514a:    f7fdf955    ..U.    BL       startATask ; 0x23f8
        0x0000514e:    bf00        ..      NOP      
        0x00005150:    e7e5        ..      B        0x511e ; turnDownVolume + 150
    turnUpVolume
        0x00005152:    b510        ..      PUSH     {r4,lr}
        0x00005154:    2400        .$      MOVS     r4,#0
        0x00005156:    483e        >H      LDR      r0,[pc,#248] ; [0x5250] = 0x2000055c
        0x00005158:    7800        .x      LDRB     r0,[r0,#0]
        0x0000515a:    28a0        .(      CMP      r0,#0xa0
        0x0000515c:    d136        6.      BNE      0x51cc ; turnUpVolume + 122
        0x0000515e:    4845        EH      LDR      r0,[pc,#276] ; [0x5274] = 0x2000036c
        0x00005160:    6800        .h      LDR      r0,[r0,#0]
        0x00005162:    281f        .(      CMP      r0,#0x1f
        0x00005164:    d303        ..      BCC      0x516e ; turnUpVolume + 28
        0x00005166:    2000        .       MOVS     r0,#0
        0x00005168:    4942        BI      LDR      r1,[pc,#264] ; [0x5274] = 0x2000036c
        0x0000516a:    4604        .F      MOV      r4,r0
        0x0000516c:    6008        .`      STR      r0,[r1,#0]
        0x0000516e:    e019        ..      B        0x51a4 ; turnUpVolume + 82
        0x00005170:    4837        7H      LDR      r0,[pc,#220] ; [0x5250] = 0x2000055c
        0x00005172:    7880        .x      LDRB     r0,[r0,#2]
        0x00005174:    493e        >I      LDR      r1,[pc,#248] ; [0x5270] = 0x200003a4
        0x00005176:    4a3f        ?J      LDR      r2,[pc,#252] ; [0x5274] = 0x2000036c
        0x00005178:    6812        .h      LDR      r2,[r2,#0]
        0x0000517a:    5c89        .\      LDRB     r1,[r1,r2]
        0x0000517c:    4288        .B      CMP      r0,r1
        0x0000517e:    dc0c        ..      BGT      0x519a ; turnUpVolume + 72
        0x00005180:    4833        3H      LDR      r0,[pc,#204] ; [0x5250] = 0x2000055c
        0x00005182:    7881        .x      LDRB     r1,[r0,#2]
        0x00005184:    4a3a        :J      LDR      r2,[pc,#232] ; [0x5270] = 0x200003a4
        0x00005186:    483b        ;H      LDR      r0,[pc,#236] ; [0x5274] = 0x2000036c
        0x00005188:    6800        .h      LDR      r0,[r0,#0]
        0x0000518a:    1c40        @.      ADDS     r0,r0,#1
        0x0000518c:    5c10        .\      LDRB     r0,[r2,r0]
        0x0000518e:    4281        .B      CMP      r1,r0
        0x00005190:    dd03        ..      BLE      0x519a ; turnUpVolume + 72
        0x00005192:    4838        8H      LDR      r0,[pc,#224] ; [0x5274] = 0x2000036c
        0x00005194:    6800        .h      LDR      r0,[r0,#0]
        0x00005196:    1c44        D.      ADDS     r4,r0,#1
        0x00005198:    e008        ..      B        0x51ac ; turnUpVolume + 90
        0x0000519a:    4836        6H      LDR      r0,[pc,#216] ; [0x5274] = 0x2000036c
        0x0000519c:    6800        .h      LDR      r0,[r0,#0]
        0x0000519e:    1c40        @.      ADDS     r0,r0,#1
        0x000051a0:    4934        4I      LDR      r1,[pc,#208] ; [0x5274] = 0x2000036c
        0x000051a2:    6008        .`      STR      r0,[r1,#0]
        0x000051a4:    4833        3H      LDR      r0,[pc,#204] ; [0x5274] = 0x2000036c
        0x000051a6:    6800        .h      LDR      r0,[r0,#0]
        0x000051a8:    281f        .(      CMP      r0,#0x1f
        0x000051aa:    d3e1        ..      BCC      0x5170 ; turnUpVolume + 30
        0x000051ac:    bf00        ..      NOP      
        0x000051ae:    4834        4H      LDR      r0,[pc,#208] ; [0x5280] = 0x200003c4
        0x000051b0:    5d01        .]      LDRB     r1,[r0,r4]
        0x000051b2:    200a        .       MOVS     r0,#0xa
        0x000051b4:    f7fffe54    ..T.    BL       ampSendCmd_38 ; 0x4e60
        0x000051b8:    4831        1H      LDR      r0,[pc,#196] ; [0x5280] = 0x200003c4
        0x000051ba:    5d01        .]      LDRB     r1,[r0,r4]
        0x000051bc:    2009        .       MOVS     r0,#9
        0x000051be:    f7fffe4f    ..O.    BL       ampSendCmd_38 ; 0x4e60
        0x000051c2:    482b        +H      LDR      r0,[pc,#172] ; [0x5270] = 0x200003a4
        0x000051c4:    5d01        .]      LDRB     r1,[r0,r4]
        0x000051c6:    2008        .       MOVS     r0,#8
        0x000051c8:    f7fffe4a    ..J.    BL       ampSendCmd_38 ; 0x4e60
        0x000051cc:    4b2a        *K      LDR      r3,[pc,#168] ; [0x5278] = 0x51e9
        0x000051ce:    2200        ."      MOVS     r2,#0
        0x000051d0:    2103        .!      MOVS     r1,#3
        0x000051d2:    482a        *H      LDR      r0,[pc,#168] ; [0x527c] = 0x20000567
        0x000051d4:    7800        .x      LDRB     r0,[r0,#0]
        0x000051d6:    f7fdf90f    ....    BL       startATask ; 0x23f8
        0x000051da:    bd10        ..      POP      {r4,pc}
    ampMute
        0x000051dc:    b510        ..      PUSH     {r4,lr}
        0x000051de:    211e        .!      MOVS     r1,#0x1e
        0x000051e0:    2006        .       MOVS     r0,#6
        0x000051e2:    f7fffe3d    ..=.    BL       ampSendCmd_38 ; 0x4e60
        0x000051e6:    bd10        ..      POP      {r4,pc}
    ChangInputVolumeCheck
        0x000051e8:    b510        ..      PUSH     {r4,lr}
        0x000051ea:    4826        &H      LDR      r0,[pc,#152] ; [0x5284] = 0x20000380
        0x000051ec:    7800        .x      LDRB     r0,[r0,#0]
        0x000051ee:    28a0        .(      CMP      r0,#0xa0
        0x000051f0:    d178        x.      BNE      0x52e4 ; ChangInputVolumeCheck + 252
        0x000051f2:    4825        %H      LDR      r0,[pc,#148] ; [0x5288] = 0x20000383
        0x000051f4:    7800        .x      LDRB     r0,[r0,#0]
        0x000051f6:    0003        ..      MOVS     r3,r0
        0x000051f8:    f001fe2a    ..*.    BL       __ARM_common_switch8 ; 0x6e50
    $d
        0x000051fc:    0807a70b    ....    DCD    134719243
        0x00005200:    a6a5a375    u...    DCD    2795873141
        0x00005204:    a4761f58    X.v.    DCD    2759204696
        0x00005208:    00a7        ..      DCW    167
    $t
        0x0000520a:    e09f        ..      B        0x534c ; ChangInputVolumeCheck + 356
        0x0000520c:    4810        .H      LDR      r0,[pc,#64] ; [0x5250] = 0x2000055c
        0x0000520e:    7880        .x      LDRB     r0,[r0,#2]
        0x00005210:    4917        .I      LDR      r1,[pc,#92] ; [0x5270] = 0x200003a4
        0x00005212:    4a1e        .J      LDR      r2,[pc,#120] ; [0x528c] = 0x2000037c
        0x00005214:    6812        .h      LDR      r2,[r2,#0]
        0x00005216:    5c89        .\      LDRB     r1,[r1,r2]
        0x00005218:    4288        .B      CMP      r0,r1
        0x0000521a:    dd02        ..      BLE      0x5222 ; ChangInputVolumeCheck + 58
        0x0000521c:    f7ffff99    ....    BL       turnUpVolume ; 0x5152
        0x00005220:    e00a        ..      B        0x5238 ; ChangInputVolumeCheck + 80
        0x00005222:    4816        .H      LDR      r0,[pc,#88] ; [0x527c] = 0x20000567
        0x00005224:    7800        .x      LDRB     r0,[r0,#0]
        0x00005226:    f000fa0f    ....    BL       stopATask ; 0x5648
        0x0000522a:    4811        .H      LDR      r0,[pc,#68] ; [0x5270] = 0x200003a4
        0x0000522c:    7801        .x      LDRB     r1,[r0,#0]
        0x0000522e:    4808        .H      LDR      r0,[pc,#32] ; [0x5250] = 0x2000055c
        0x00005230:    7081        .p      STRB     r1,[r0,#2]
        0x00005232:    2000        .       MOVS     r0,#0
        0x00005234:    4916        .I      LDR      r1,[pc,#88] ; [0x5290] = 0x20000374
        0x00005236:    7008        .p      STRB     r0,[r1,#0]
        0x00005238:    e088        ..      B        0x534c ; ChangInputVolumeCheck + 356
        0x0000523a:    4805        .H      LDR      r0,[pc,#20] ; [0x5250] = 0x2000055c
        0x0000523c:    7881        .x      LDRB     r1,[r0,#2]
        0x0000523e:    480c        .H      LDR      r0,[pc,#48] ; [0x5270] = 0x200003a4
        0x00005240:    4a12        .J      LDR      r2,[pc,#72] ; [0x528c] = 0x2000037c
        0x00005242:    6812        .h      LDR      r2,[r2,#0]
        0x00005244:    5c80        .\      LDRB     r0,[r0,r2]
        0x00005246:    4281        .B      CMP      r1,r0
        0x00005248:    da24        $.      BGE      0x5294 ; ChangInputVolumeCheck + 172
        0x0000524a:    f7ffff1d    ....    BL       turnDownVolume ; 0x5088
        0x0000524e:    e02c        ,.      B        0x52aa ; ChangInputVolumeCheck + 194
    $d
        0x00005250:    2000055c    \..     DCD    536872284
        0x00005254:    20000a6c    l..     DCD    536873580
        0x00005258:    20000404    ...     DCD    536871940
        0x0000525c:    50000100    ...P    DCD    1342177536
        0x00005260:    2000055f    _..     DCD    536872287
        0x00005264:    20000a7c    |..     DCD    536873596
        0x00005268:    2000045c    \..     DCD    536872028
        0x0000526c:    20000560    `..     DCD    536872288
        0x00005270:    200003a4    ...     DCD    536871844
        0x00005274:    2000036c    l..     DCD    536871788
        0x00005278:    000051e9    .Q..    DCD    20969
        0x0000527c:    20000567    g..     DCD    536872295
        0x00005280:    200003c4    ...     DCD    536871876
        0x00005284:    20000380    ...     DCD    536871808
        0x00005288:    20000383    ...     DCD    536871811
        0x0000528c:    2000037c    |..     DCD    536871804
        0x00005290:    20000374    t..     DCD    536871796
    $t
        0x00005294:    48f0        .H      LDR      r0,[pc,#960] ; [0x5658] = 0x20000567
        0x00005296:    7800        .x      LDRB     r0,[r0,#0]
        0x00005298:    f000f9d6    ....    BL       stopATask ; 0x5648
        0x0000529c:    48ef        .H      LDR      r0,[pc,#956] ; [0x565c] = 0x200003a4
        0x0000529e:    7801        .x      LDRB     r1,[r0,#0]
        0x000052a0:    48ef        .H      LDR      r0,[pc,#956] ; [0x5660] = 0x2000055c
        0x000052a2:    7081        .p      STRB     r1,[r0,#2]
        0x000052a4:    2000        .       MOVS     r0,#0
        0x000052a6:    49ef        .I      LDR      r1,[pc,#956] ; [0x5664] = 0x20000374
        0x000052a8:    7008        .p      STRB     r0,[r1,#0]
        0x000052aa:    e04f        O.      B        0x534c ; ChangInputVolumeCheck + 356
        0x000052ac:    48ec        .H      LDR      r0,[pc,#944] ; [0x5660] = 0x2000055c
        0x000052ae:    7880        .x      LDRB     r0,[r0,#2]
        0x000052b0:    49ea        .I      LDR      r1,[pc,#936] ; [0x565c] = 0x200003a4
        0x000052b2:    4aed        .J      LDR      r2,[pc,#948] ; [0x5668] = 0x20000370
        0x000052b4:    6812        .h      LDR      r2,[r2,#0]
        0x000052b6:    5c89        .\      LDRB     r1,[r1,r2]
        0x000052b8:    4288        .B      CMP      r0,r1
        0x000052ba:    dd09        ..      BLE      0x52d0 ; ChangInputVolumeCheck + 232
        0x000052bc:    48ea        .H      LDR      r0,[pc,#936] ; [0x5668] = 0x20000370
        0x000052be:    6800        .h      LDR      r0,[r0,#0]
        0x000052c0:    49ea        .I      LDR      r1,[pc,#936] ; [0x566c] = 0x2000037c
        0x000052c2:    6008        .`      STR      r0,[r1,#0]
        0x000052c4:    2002        .       MOVS     r0,#2
        0x000052c6:    49ea        .I      LDR      r1,[pc,#936] ; [0x5670] = 0x20000383
        0x000052c8:    7008        .p      STRB     r0,[r1,#0]
        0x000052ca:    f7ffff42    ..B.    BL       turnUpVolume ; 0x5152
        0x000052ce:    e008        ..      B        0x52e2 ; ChangInputVolumeCheck + 250
        0x000052d0:    48e5        .H      LDR      r0,[pc,#916] ; [0x5668] = 0x20000370
        0x000052d2:    6800        .h      LDR      r0,[r0,#0]
        0x000052d4:    49e5        .I      LDR      r1,[pc,#916] ; [0x566c] = 0x2000037c
        0x000052d6:    6008        .`      STR      r0,[r1,#0]
        0x000052d8:    2008        .       MOVS     r0,#8
        0x000052da:    49e5        .I      LDR      r1,[pc,#916] ; [0x5670] = 0x20000383
        0x000052dc:    7008        .p      STRB     r0,[r1,#0]
        0x000052de:    f7fffed3    ....    BL       turnDownVolume ; 0x5088
        0x000052e2:    e033        3.      B        0x534c ; ChangInputVolumeCheck + 356
        0x000052e4:    e033        3.      B        0x534e ; ChangInputVolumeCheck + 358
        0x000052e6:    bf00        ..      NOP      
        0x000052e8:    48dd        .H      LDR      r0,[pc,#884] ; [0x5660] = 0x2000055c
        0x000052ea:    7880        .x      LDRB     r0,[r0,#2]
        0x000052ec:    49db        .I      LDR      r1,[pc,#876] ; [0x565c] = 0x200003a4
        0x000052ee:    7809        .x      LDRB     r1,[r1,#0]
        0x000052f0:    4288        .B      CMP      r0,r1
        0x000052f2:    d123        #.      BNE      0x533c ; ChangInputVolumeCheck + 340
        0x000052f4:    48de        .H      LDR      r0,[pc,#888] ; [0x5670] = 0x20000383
        0x000052f6:    7800        .x      LDRB     r0,[r0,#0]
        0x000052f8:    2803        .(      CMP      r0,#3
        0x000052fa:    d104        ..      BNE      0x5306 ; ChangInputVolumeCheck + 286
        0x000052fc:    f7ffff6e    ..n.    BL       ampMute ; 0x51dc
        0x00005300:    f7fefad2    ....    BL       powerOff ; 0x38a8
        0x00005304:    e016        ..      B        0x5334 ; ChangInputVolumeCheck + 332
        0x00005306:    48db        .H      LDR      r0,[pc,#876] ; [0x5674] = 0x200002a4
        0x00005308:    7800        .x      LDRB     r0,[r0,#0]
        0x0000530a:    2801        .(      CMP      r0,#1
        0x0000530c:    d10d        ..      BNE      0x532a ; ChangInputVolumeCheck + 322
        0x0000530e:    2000        .       MOVS     r0,#0
        0x00005310:    49d8        .I      LDR      r1,[pc,#864] ; [0x5674] = 0x200002a4
        0x00005312:    7008        .p      STRB     r0,[r1,#0]
        0x00005314:    bf00        ..      NOP      
        0x00005316:    48d8        .H      LDR      r0,[pc,#864] ; [0x5678] = 0x40130000
        0x00005318:    6880        .h      LDR      r0,[r0,#8]
        0x0000531a:    0840        @.      LSRS     r0,r0,#1
        0x0000531c:    0040        @.      LSLS     r0,r0,#1
        0x0000531e:    49d6        .I      LDR      r1,[pc,#856] ; [0x5678] = 0x40130000
        0x00005320:    6088        .`      STR      r0,[r1,#8]
        0x00005322:    bf00        ..      NOP      
        0x00005324:    2000        .       MOVS     r0,#0
        0x00005326:    49d5        .I      LDR      r1,[pc,#852] ; [0x567c] = 0x20000584
        0x00005328:    6008        .`      STR      r0,[r1,#0]
        0x0000532a:    2002        .       MOVS     r0,#2
        0x0000532c:    49d0        .I      LDR      r1,[pc,#832] ; [0x5670] = 0x20000383
        0x0000532e:    7008        .p      STRB     r0,[r1,#0]
        0x00005330:    f7ffff0f    ....    BL       turnUpVolume ; 0x5152
        0x00005334:    2000        .       MOVS     r0,#0
        0x00005336:    49cb        .I      LDR      r1,[pc,#812] ; [0x5664] = 0x20000374
        0x00005338:    7008        .p      STRB     r0,[r1,#0]
        0x0000533a:    e001        ..      B        0x5340 ; ChangInputVolumeCheck + 344
        0x0000533c:    f7fffea4    ....    BL       turnDownVolume ; 0x5088
        0x00005340:    e004        ..      B        0x534c ; ChangInputVolumeCheck + 356
        0x00005342:    e003        ..      B        0x534c ; ChangInputVolumeCheck + 356
        0x00005344:    e002        ..      B        0x534c ; ChangInputVolumeCheck + 356
        0x00005346:    e001        ..      B        0x534c ; ChangInputVolumeCheck + 356
        0x00005348:    e000        ..      B        0x534c ; ChangInputVolumeCheck + 356
        0x0000534a:    bf00        ..      NOP      
        0x0000534c:    e013        ..      B        0x5376 ; ChangInputVolumeCheck + 398
        0x0000534e:    48cc        .H      LDR      r0,[pc,#816] ; [0x5680] = 0x20000380
        0x00005350:    7800        .x      LDRB     r0,[r0,#0]
        0x00005352:    28a2        .(      CMP      r0,#0xa2
        0x00005354:    d107        ..      BNE      0x5366 ; ChangInputVolumeCheck + 382
        0x00005356:    4bcb        .K      LDR      r3,[pc,#812] ; [0x5684] = 0x51e9
        0x00005358:    2200        ."      MOVS     r2,#0
        0x0000535a:    2101        .!      MOVS     r1,#1
        0x0000535c:    48be        .H      LDR      r0,[pc,#760] ; [0x5658] = 0x20000567
        0x0000535e:    7800        .x      LDRB     r0,[r0,#0]
        0x00005360:    f7fdf84a    ..J.    BL       startATask ; 0x23f8
        0x00005364:    e007        ..      B        0x5376 ; ChangInputVolumeCheck + 398
        0x00005366:    20a0        .       MOVS     r0,#0xa0
        0x00005368:    49c5        .I      LDR      r1,[pc,#788] ; [0x5680] = 0x20000380
        0x0000536a:    7008        .p      STRB     r0,[r1,#0]
        0x0000536c:    2000        .       MOVS     r0,#0
        0x0000536e:    49bd        .I      LDR      r1,[pc,#756] ; [0x5664] = 0x20000374
        0x00005370:    7008        .p      STRB     r0,[r1,#0]
        0x00005372:    49c5        .I      LDR      r1,[pc,#788] ; [0x5688] = 0x20000375
        0x00005374:    7008        .p      STRB     r0,[r1,#0]
        0x00005376:    bd10        ..      POP      {r4,pc}
    getChangeVolume
        0x00005378:    b500        ..      PUSH     {lr}
        0x0000537a:    48bd        .H      LDR      r0,[pc,#756] ; [0x5670] = 0x20000383
        0x0000537c:    7800        .x      LDRB     r0,[r0,#0]
        0x0000537e:    0003        ..      MOVS     r3,r0
        0x00005380:    f001fd66    ..f.    BL       __ARM_common_switch8 ; 0x6e50
    $d
        0x00005384:    1607160b    ....    DCD    369563147
        0x00005388:    09160a08    ....    DCD    152439304
        0x0000538c:    0c0b1616    ....    DCD    202053142
        0x00005390:    0016        ..      DCW    22
    $t
        0x00005392:    bf00        ..      NOP      
        0x00005394:    bf00        ..      NOP      
        0x00005396:    bf00        ..      NOP      
        0x00005398:    bf00        ..      NOP      
        0x0000539a:    bf00        ..      NOP      
        0x0000539c:    48af        .H      LDR      r0,[pc,#700] ; [0x565c] = 0x200003a4
        0x0000539e:    49b3        .I      LDR      r1,[pc,#716] ; [0x566c] = 0x2000037c
        0x000053a0:    6809        .h      LDR      r1,[r1,#0]
        0x000053a2:    5c41        A\      LDRB     r1,[r0,r1]
        0x000053a4:    48ae        .H      LDR      r0,[pc,#696] ; [0x5660] = 0x2000055c
        0x000053a6:    7081        .p      STRB     r1,[r0,#2]
        0x000053a8:    2001        .       MOVS     r0,#1
        0x000053aa:    49ae        .I      LDR      r1,[pc,#696] ; [0x5664] = 0x20000374
        0x000053ac:    7008        .p      STRB     r0,[r1,#0]
        0x000053ae:    e000        ..      B        0x53b2 ; getChangeVolume + 58
        0x000053b0:    bf00        ..      NOP      
        0x000053b2:    bf00        ..      NOP      
        0x000053b4:    bd00        ..      POP      {pc}
    changeInputVolumeDown
        0x000053b6:    b510        ..      PUSH     {r4,lr}
        0x000053b8:    4604        .F      MOV      r4,r0
        0x000053ba:    48aa        .H      LDR      r0,[pc,#680] ; [0x5664] = 0x20000374
        0x000053bc:    7800        .x      LDRB     r0,[r0,#0]
        0x000053be:    2800        .(      CMP      r0,#0
        0x000053c0:    d103        ..      BNE      0x53ca ; changeInputVolumeDown + 20
        0x000053c2:    48b1        .H      LDR      r0,[pc,#708] ; [0x5688] = 0x20000375
        0x000053c4:    7800        .x      LDRB     r0,[r0,#0]
        0x000053c6:    2800        .(      CMP      r0,#0
        0x000053c8:    d000        ..      BEQ      0x53cc ; changeInputVolumeDown + 22
        0x000053ca:    bd10        ..      POP      {r4,pc}
        0x000053cc:    48a8        .H      LDR      r0,[pc,#672] ; [0x5670] = 0x20000383
        0x000053ce:    7004        .p      STRB     r4,[r0,#0]
        0x000053d0:    f7ffffd2    ....    BL       getChangeVolume ; 0x5378
        0x000053d4:    4bab        .K      LDR      r3,[pc,#684] ; [0x5684] = 0x51e9
        0x000053d6:    2200        ."      MOVS     r2,#0
        0x000053d8:    2102        .!      MOVS     r1,#2
        0x000053da:    489f        .H      LDR      r0,[pc,#636] ; [0x5658] = 0x20000567
        0x000053dc:    7800        .x      LDRB     r0,[r0,#0]
        0x000053de:    f7fdf80b    ....    BL       startATask ; 0x23f8
        0x000053e2:    bf00        ..      NOP      
        0x000053e4:    e7f1        ..      B        0x53ca ; changeInputVolumeDown + 20
    ampMuteSwitch
        0x000053e6:    b510        ..      PUSH     {r4,lr}
        0x000053e8:    48a0        .H      LDR      r0,[pc,#640] ; [0x566c] = 0x2000037c
        0x000053ea:    6800        .h      LDR      r0,[r0,#0]
        0x000053ec:    2800        .(      CMP      r0,#0
        0x000053ee:    d101        ..      BNE      0x53f4 ; ampMuteSwitch + 14
        0x000053f0:    49a6        .I      LDR      r1,[pc,#664] ; [0x568c] = 0x20000378
        0x000053f2:    6008        .`      STR      r0,[r1,#0]
        0x000053f4:    48a4        .H      LDR      r0,[pc,#656] ; [0x5688] = 0x20000375
        0x000053f6:    7800        .x      LDRB     r0,[r0,#0]
        0x000053f8:    2800        .(      CMP      r0,#0
        0x000053fa:    d10a        ..      BNE      0x5412 ; ampMuteSwitch + 44
        0x000053fc:    48a3        .H      LDR      r0,[pc,#652] ; [0x568c] = 0x20000378
        0x000053fe:    6800        .h      LDR      r0,[r0,#0]
        0x00005400:    2800        .(      CMP      r0,#0
        0x00005402:    d103        ..      BNE      0x540c ; ampMuteSwitch + 38
        0x00005404:    2004        .       MOVS     r0,#4
        0x00005406:    f7ffffd6    ....    BL       changeInputVolumeDown ; 0x53b6
        0x0000540a:    e002        ..      B        0x5412 ; ampMuteSwitch + 44
        0x0000540c:    2005        .       MOVS     r0,#5
        0x0000540e:    f7ffffd2    ....    BL       changeInputVolumeDown ; 0x53b6
        0x00005412:    bd10        ..      POP      {r4,pc}
    stopAmpDD
        0x00005414:    b510        ..      PUSH     {r4,lr}
        0x00005416:    489e        .H      LDR      r0,[pc,#632] ; [0x5690] = 0x2000055f
        0x00005418:    7800        .x      LDRB     r0,[r0,#0]
        0x0000541a:    f000f915    ....    BL       stopATask ; 0x5648
        0x0000541e:    bd10        ..      POP      {r4,pc}
    ampSetVolume
        0x00005420:    b510        ..      PUSH     {r4,lr}
        0x00005422:    4604        .F      MOV      r4,r0
        0x00005424:    a19b        ..      ADR      r1,{pc}+0x270 ; 0x5694
        0x00005426:    4620         F      MOV      r0,r4
        0x00005428:    f7fcfdca    ....    BL       uartdecode ; 0x1fc0
        0x0000542c:    2c00        .,      CMP      r4,#0
        0x0000542e:    d001        ..      BEQ      0x5434 ; ampSetVolume + 20
        0x00005430:    2c21        !,      CMP      r4,#0x21
        0x00005432:    d104        ..      BNE      0x543e ; ampSetVolume + 30
        0x00005434:    21ff        .!      MOVS     r1,#0xff
        0x00005436:    200a        .       MOVS     r0,#0xa
        0x00005438:    f7fffd12    ....    BL       ampSendCmd_38 ; 0x4e60
        0x0000543c:    e006        ..      B        0x544c ; ampSetVolume + 44
        0x0000543e:    4899        .H      LDR      r0,[pc,#612] ; [0x56a4] = 0x200003e4
        0x00005440:    5d00        .]      LDRB     r0,[r0,r4]
        0x00005442:    1f00        ..      SUBS     r0,r0,#4
        0x00005444:    b2c1        ..      UXTB     r1,r0
        0x00005446:    200a        .       MOVS     r0,#0xa
        0x00005448:    f7fffd0a    ....    BL       ampSendCmd_38 ; 0x4e60
        0x0000544c:    bd10        ..      POP      {r4,pc}
    ampDecVolume
        0x0000544e:    b510        ..      PUSH     {r4,lr}
        0x00005450:    4884        .H      LDR      r0,[pc,#528] ; [0x5664] = 0x20000374
        0x00005452:    7800        .x      LDRB     r0,[r0,#0]
        0x00005454:    2800        .(      CMP      r0,#0
        0x00005456:    d103        ..      BNE      0x5460 ; ampDecVolume + 18
        0x00005458:    488b        .H      LDR      r0,[pc,#556] ; [0x5688] = 0x20000375
        0x0000545a:    7800        .x      LDRB     r0,[r0,#0]
        0x0000545c:    2800        .(      CMP      r0,#0
        0x0000545e:    d000        ..      BEQ      0x5462 ; ampDecVolume + 20
        0x00005460:    bd10        ..      POP      {r4,pc}
        0x00005462:    487f        .H      LDR      r0,[pc,#508] ; [0x5660] = 0x2000055c
        0x00005464:    7800        .x      LDRB     r0,[r0,#0]
        0x00005466:    28a2        .(      CMP      r0,#0xa2
        0x00005468:    d107        ..      BNE      0x547a ; ampDecVolume + 44
        0x0000546a:    4b8f        .K      LDR      r3,[pc,#572] ; [0x56a8] = 0x544f
        0x0000546c:    2200        ."      MOVS     r2,#0
        0x0000546e:    2102        .!      MOVS     r1,#2
        0x00005470:    4887        .H      LDR      r0,[pc,#540] ; [0x5690] = 0x2000055f
        0x00005472:    7800        .x      LDRB     r0,[r0,#0]
        0x00005474:    f7fcffc0    ....    BL       startATask ; 0x23f8
        0x00005478:    e7f2        ..      B        0x5460 ; ampDecVolume + 18
        0x0000547a:    487c        |H      LDR      r0,[pc,#496] ; [0x566c] = 0x2000037c
        0x0000547c:    6800        .h      LDR      r0,[r0,#0]
        0x0000547e:    2800        .(      CMP      r0,#0
        0x00005480:    d00c        ..      BEQ      0x549c ; ampDecVolume + 78
        0x00005482:    487a        zH      LDR      r0,[pc,#488] ; [0x566c] = 0x2000037c
        0x00005484:    6800        .h      LDR      r0,[r0,#0]
        0x00005486:    1e40        @.      SUBS     r0,r0,#1
        0x00005488:    4978        xI      LDR      r1,[pc,#480] ; [0x566c] = 0x2000037c
        0x0000548a:    6008        .`      STR      r0,[r1,#0]
        0x0000548c:    4880        .H      LDR      r0,[pc,#512] ; [0x5690] = 0x2000055f
        0x0000548e:    7800        .x      LDRB     r0,[r0,#0]
        0x00005490:    f000f8da    ....    BL       stopATask ; 0x5648
        0x00005494:    4875        uH      LDR      r0,[pc,#468] ; [0x566c] = 0x2000037c
        0x00005496:    6800        .h      LDR      r0,[r0,#0]
        0x00005498:    f7ffffc2    ....    BL       ampSetVolume ; 0x5420
        0x0000549c:    bf00        ..      NOP      
        0x0000549e:    e7df        ..      B        0x5460 ; ampDecVolume + 18
    ampAddVolume
        0x000054a0:    b510        ..      PUSH     {r4,lr}
        0x000054a2:    4870        pH      LDR      r0,[pc,#448] ; [0x5664] = 0x20000374
        0x000054a4:    7800        .x      LDRB     r0,[r0,#0]
        0x000054a6:    2800        .(      CMP      r0,#0
        0x000054a8:    d103        ..      BNE      0x54b2 ; ampAddVolume + 18
        0x000054aa:    4877        wH      LDR      r0,[pc,#476] ; [0x5688] = 0x20000375
        0x000054ac:    7800        .x      LDRB     r0,[r0,#0]
        0x000054ae:    2800        .(      CMP      r0,#0
        0x000054b0:    d000        ..      BEQ      0x54b4 ; ampAddVolume + 20
        0x000054b2:    bd10        ..      POP      {r4,pc}
        0x000054b4:    486a        jH      LDR      r0,[pc,#424] ; [0x5660] = 0x2000055c
        0x000054b6:    7800        .x      LDRB     r0,[r0,#0]
        0x000054b8:    28a2        .(      CMP      r0,#0xa2
        0x000054ba:    d107        ..      BNE      0x54cc ; ampAddVolume + 44
        0x000054bc:    4b7b        {K      LDR      r3,[pc,#492] ; [0x56ac] = 0x54a1
        0x000054be:    2200        ."      MOVS     r2,#0
        0x000054c0:    2102        .!      MOVS     r1,#2
        0x000054c2:    4873        sH      LDR      r0,[pc,#460] ; [0x5690] = 0x2000055f
        0x000054c4:    7800        .x      LDRB     r0,[r0,#0]
        0x000054c6:    f7fcff97    ....    BL       startATask ; 0x23f8
        0x000054ca:    e7f2        ..      B        0x54b2 ; ampAddVolume + 18
        0x000054cc:    4867        gH      LDR      r0,[pc,#412] ; [0x566c] = 0x2000037c
        0x000054ce:    6800        .h      LDR      r0,[r0,#0]
        0x000054d0:    281f        .(      CMP      r0,#0x1f
        0x000054d2:    d20c        ..      BCS      0x54ee ; ampAddVolume + 78
        0x000054d4:    4865        eH      LDR      r0,[pc,#404] ; [0x566c] = 0x2000037c
        0x000054d6:    6800        .h      LDR      r0,[r0,#0]
        0x000054d8:    1c40        @.      ADDS     r0,r0,#1
        0x000054da:    4964        dI      LDR      r1,[pc,#400] ; [0x566c] = 0x2000037c
        0x000054dc:    6008        .`      STR      r0,[r1,#0]
        0x000054de:    486c        lH      LDR      r0,[pc,#432] ; [0x5690] = 0x2000055f
        0x000054e0:    7800        .x      LDRB     r0,[r0,#0]
        0x000054e2:    f000f8b1    ....    BL       stopATask ; 0x5648
        0x000054e6:    4861        aH      LDR      r0,[pc,#388] ; [0x566c] = 0x2000037c
        0x000054e8:    6800        .h      LDR      r0,[r0,#0]
        0x000054ea:    f7ffff99    ....    BL       ampSetVolume ; 0x5420
        0x000054ee:    bf00        ..      NOP      
        0x000054f0:    e7df        ..      B        0x54b2 ; ampAddVolume + 18
    unMute
        0x000054f2:    b510        ..      PUSH     {r4,lr}
        0x000054f4:    2110        .!      MOVS     r1,#0x10
        0x000054f6:    2006        .       MOVS     r0,#6
        0x000054f8:    f7fffcb2    ....    BL       ampSendCmd_38 ; 0x4e60
        0x000054fc:    bd10        ..      POP      {r4,pc}
    ampPowerDown
        0x000054fe:    b510        ..      PUSH     {r4,lr}
        0x00005500:    215c        \!      MOVS     r1,#0x5c
        0x00005502:    2005        .       MOVS     r0,#5
        0x00005504:    f7fffcac    ....    BL       ampSendCmd_38 ; 0x4e60
        0x00005508:    bd10        ..      POP      {r4,pc}
    ampPowerUp
        0x0000550a:    b510        ..      PUSH     {r4,lr}
        0x0000550c:    21dc        .!      MOVS     r1,#0xdc
        0x0000550e:    2005        .       MOVS     r0,#5
        0x00005510:    f7fffca6    ....    BL       ampSendCmd_38 ; 0x4e60
        0x00005514:    bd10        ..      POP      {r4,pc}
    ampMuteBass
        0x00005516:    b510        ..      PUSH     {r4,lr}
        0x00005518:    2118        .!      MOVS     r1,#0x18
        0x0000551a:    2006        .       MOVS     r0,#6
        0x0000551c:    f7fffca0    ....    BL       ampSendCmd_38 ; 0x4e60
        0x00005520:    2120         !      MOVS     r1,#0x20
        0x00005522:    200c        .       MOVS     r0,#0xc
        0x00005524:    f7fffc9c    ....    BL       ampSendCmd_38 ; 0x4e60
        0x00005528:    484c        LH      LDR      r0,[pc,#304] ; [0x565c] = 0x200003a4
        0x0000552a:    7801        .x      LDRB     r1,[r0,#0]
        0x0000552c:    484c        LH      LDR      r0,[pc,#304] ; [0x5660] = 0x2000055c
        0x0000552e:    7081        .p      STRB     r1,[r0,#2]
        0x00005530:    bd10        ..      POP      {r4,pc}
    ampUnMuteBass
        0x00005532:    b510        ..      PUSH     {r4,lr}
        0x00005534:    2110        .!      MOVS     r1,#0x10
        0x00005536:    2006        .       MOVS     r0,#6
        0x00005538:    f7fffc92    ....    BL       ampSendCmd_38 ; 0x4e60
        0x0000553c:    21c0        .!      MOVS     r1,#0xc0
        0x0000553e:    200c        .       MOVS     r0,#0xc
        0x00005540:    f7fffc8e    ....    BL       ampSendCmd_38 ; 0x4e60
        0x00005544:    4845        EH      LDR      r0,[pc,#276] ; [0x565c] = 0x200003a4
        0x00005546:    7801        .x      LDRB     r1,[r0,#0]
        0x00005548:    4845        EH      LDR      r0,[pc,#276] ; [0x5660] = 0x2000055c
        0x0000554a:    7081        .p      STRB     r1,[r0,#2]
        0x0000554c:    bd10        ..      POP      {r4,pc}
    ampResumeI2c
        0x0000554e:    4858        XH      LDR      r0,[pc,#352] ; [0x56b0] = 0x20000a6c
        0x00005550:    7900        .y      LDRB     r0,[r0,#4]
        0x00005552:    4957        WI      LDR      r1,[pc,#348] ; [0x56b0] = 0x20000a6c
        0x00005554:    70c8        .p      STRB     r0,[r1,#3]
        0x00005556:    20a0        .       MOVS     r0,#0xa0
        0x00005558:    4941        AI      LDR      r1,[pc,#260] ; [0x5660] = 0x2000055c
        0x0000555a:    7008        .p      STRB     r0,[r1,#0]
        0x0000555c:    4770        pG      BX       lr
    ampSetL1ATRT
        0x0000555e:    b510        ..      PUSH     {r4,lr}
        0x00005560:    4604        .F      MOV      r4,r0
        0x00005562:    4621        !F      MOV      r1,r4
        0x00005564:    2013        .       MOVS     r0,#0x13
        0x00005566:    f7fffc7b    ..{.    BL       ampSendCmd_38 ; 0x4e60
        0x0000556a:    bd10        ..      POP      {r4,pc}
    ampEQbypass
        0x0000556c:    b510        ..      PUSH     {r4,lr}
        0x0000556e:    200e        .       MOVS     r0,#0xe
        0x00005570:    f7fffc95    ....    BL       ampGetCmd_38 ; 0x4e9e
        0x00005574:    4604        .F      MOV      r4,r0
        0x00005576:    2002        .       MOVS     r0,#2
        0x00005578:    4320         C      ORRS     r0,r0,r4
        0x0000557a:    4601        .F      MOV      r1,r0
        0x0000557c:    200e        .       MOVS     r0,#0xe
        0x0000557e:    f7fffc6f    ..o.    BL       ampSendCmd_38 ; 0x4e60
        0x00005582:    200f        .       MOVS     r0,#0xf
        0x00005584:    f7fffc8b    ....    BL       ampGetCmd_38 ; 0x4e9e
        0x00005588:    4604        .F      MOV      r4,r0
        0x0000558a:    2002        .       MOVS     r0,#2
        0x0000558c:    4320         C      ORRS     r0,r0,r4
        0x0000558e:    4601        .F      MOV      r1,r0
        0x00005590:    200f        .       MOVS     r0,#0xf
        0x00005592:    f7fffc65    ..e.    BL       ampSendCmd_38 ; 0x4e60
        0x00005596:    2010        .       MOVS     r0,#0x10
        0x00005598:    f7fffc81    ....    BL       ampGetCmd_38 ; 0x4e9e
        0x0000559c:    4604        .F      MOV      r4,r0
        0x0000559e:    2002        .       MOVS     r0,#2
        0x000055a0:    4320         C      ORRS     r0,r0,r4
        0x000055a2:    4601        .F      MOV      r1,r0
        0x000055a4:    2010        .       MOVS     r0,#0x10
        0x000055a6:    f7fffc5b    ..[.    BL       ampSendCmd_38 ; 0x4e60
        0x000055aa:    bd10        ..      POP      {r4,pc}
    ampEQon
        0x000055ac:    b510        ..      PUSH     {r4,lr}
        0x000055ae:    200e        .       MOVS     r0,#0xe
        0x000055b0:    f7fffc75    ..u.    BL       ampGetCmd_38 ; 0x4e9e
        0x000055b4:    4604        .F      MOV      r4,r0
        0x000055b6:    2202        ."      MOVS     r2,#2
        0x000055b8:    4620         F      MOV      r0,r4
        0x000055ba:    4390        .C      BICS     r0,r0,r2
        0x000055bc:    4601        .F      MOV      r1,r0
        0x000055be:    200e        .       MOVS     r0,#0xe
        0x000055c0:    f7fffc4e    ..N.    BL       ampSendCmd_38 ; 0x4e60
        0x000055c4:    200f        .       MOVS     r0,#0xf
        0x000055c6:    f7fffc6a    ..j.    BL       ampGetCmd_38 ; 0x4e9e
        0x000055ca:    4604        .F      MOV      r4,r0
        0x000055cc:    2202        ."      MOVS     r2,#2
        0x000055ce:    4620         F      MOV      r0,r4
        0x000055d0:    4390        .C      BICS     r0,r0,r2
        0x000055d2:    4601        .F      MOV      r1,r0
        0x000055d4:    200f        .       MOVS     r0,#0xf
        0x000055d6:    f7fffc43    ..C.    BL       ampSendCmd_38 ; 0x4e60
        0x000055da:    2010        .       MOVS     r0,#0x10
        0x000055dc:    f7fffc5f    .._.    BL       ampGetCmd_38 ; 0x4e9e
        0x000055e0:    4604        .F      MOV      r4,r0
        0x000055e2:    2202        ."      MOVS     r2,#2
        0x000055e4:    4620         F      MOV      r0,r4
        0x000055e6:    4390        .C      BICS     r0,r0,r2
        0x000055e8:    4601        .F      MOV      r1,r0
        0x000055ea:    2010        .       MOVS     r0,#0x10
        0x000055ec:    f7fffc38    ..8.    BL       ampSendCmd_38 ; 0x4e60
        0x000055f0:    bd10        ..      POP      {r4,pc}
    stopFlashLed
        0x000055f2:    b510        ..      PUSH     {r4,lr}
        0x000055f4:    4826        &H      LDR      r0,[pc,#152] ; [0x5690] = 0x2000055f
        0x000055f6:    7800        .x      LDRB     r0,[r0,#0]
        0x000055f8:    f000f826    ..&.    BL       stopATask ; 0x5648
        0x000055fc:    bd10        ..      POP      {r4,pc}
    changeInputVolumeUp
        0x000055fe:    b510        ..      PUSH     {r4,lr}
        0x00005600:    4818        .H      LDR      r0,[pc,#96] ; [0x5664] = 0x20000374
        0x00005602:    7800        .x      LDRB     r0,[r0,#0]
        0x00005604:    2800        .(      CMP      r0,#0
        0x00005606:    d103        ..      BNE      0x5610 ; changeInputVolumeUp + 18
        0x00005608:    481f        .H      LDR      r0,[pc,#124] ; [0x5688] = 0x20000375
        0x0000560a:    7800        .x      LDRB     r0,[r0,#0]
        0x0000560c:    2800        .(      CMP      r0,#0
        0x0000560e:    d001        ..      BEQ      0x5614 ; changeInputVolumeUp + 22
        0x00005610:    2000        .       MOVS     r0,#0
        0x00005612:    bd10        ..      POP      {r4,pc}
        0x00005614:    2002        .       MOVS     r0,#2
        0x00005616:    4916        .I      LDR      r1,[pc,#88] ; [0x5670] = 0x20000383
        0x00005618:    7008        .p      STRB     r0,[r1,#0]
        0x0000561a:    4810        .H      LDR      r0,[pc,#64] ; [0x565c] = 0x200003a4
        0x0000561c:    7801        .x      LDRB     r1,[r0,#0]
        0x0000561e:    4810        .H      LDR      r0,[pc,#64] ; [0x5660] = 0x2000055c
        0x00005620:    7081        .p      STRB     r1,[r0,#2]
        0x00005622:    f7fffde1    ....    BL       ChangInputVolumeCheck ; 0x51e8
        0x00005626:    2001        .       MOVS     r0,#1
        0x00005628:    e7f3        ..      B        0x5612 ; changeInputVolumeUp + 20
    SYS_UnlockReg
        0x0000562a:    2059        Y       MOVS     r0,#0x59
        0x0000562c:    4921        !I      LDR      r1,[pc,#132] ; [0x56b4] = 0x50000100
        0x0000562e:    6008        .`      STR      r0,[r1,#0]
        0x00005630:    2016        .       MOVS     r0,#0x16
        0x00005632:    6008        .`      STR      r0,[r1,#0]
        0x00005634:    2088        .       MOVS     r0,#0x88
        0x00005636:    6008        .`      STR      r0,[r1,#0]
        0x00005638:    4770        pG      BX       lr
    WDT_TIMER_RESET
        0x0000563a:    481f        .H      LDR      r0,[pc,#124] ; [0x56b8] = 0x40004000
        0x0000563c:    6800        .h      LDR      r0,[r0,#0]
        0x0000563e:    2101        .!      MOVS     r1,#1
        0x00005640:    4308        .C      ORRS     r0,r0,r1
        0x00005642:    491d        .I      LDR      r1,[pc,#116] ; [0x56b8] = 0x40004000
        0x00005644:    6008        .`      STR      r0,[r1,#0]
        0x00005646:    4770        pG      BX       lr
    stopATask
        0x00005648:    2200        ."      MOVS     r2,#0
        0x0000564a:    210c        .!      MOVS     r1,#0xc
        0x0000564c:    4341        AC      MULS     r1,r0,r1
        0x0000564e:    4b1b        .K      LDR      r3,[pc,#108] ; [0x56bc] = 0x20000904
        0x00005650:    18c9        ..      ADDS     r1,r1,r3
        0x00005652:    704a        Jp      STRB     r2,[r1,#1]
        0x00005654:    4770        pG      BX       lr
    $d
        0x00005656:    0000        ..      DCW    0
        0x00005658:    20000567    g..     DCD    536872295
        0x0000565c:    200003a4    ...     DCD    536871844
        0x00005660:    2000055c    \..     DCD    536872284
        0x00005664:    20000374    t..     DCD    536871796
        0x00005668:    20000370    p..     DCD    536871792
        0x0000566c:    2000037c    |..     DCD    536871804
        0x00005670:    20000383    ...     DCD    536871811
        0x00005674:    200002a4    ...     DCD    536871588
        0x00005678:    40130000    ...@    DCD    1074987008
        0x0000567c:    20000584    ...     DCD    536872324
        0x00005680:    20000380    ...     DCD    536871808
        0x00005684:    000051e9    .Q..    DCD    20969
        0x00005688:    20000375    u..     DCD    536871797
        0x0000568c:    20000378    x..     DCD    536871800
        0x00005690:    2000055f    _..     DCD    536872287
        0x00005694:    6f562020      Vo    DCD    1867915296
        0x00005698:    656d756c    lume    DCD    1701672300
        0x0000569c:    7a696973    siiz    DCD    2053728627
        0x000056a0:    00203a65    e: .    DCD    2112101
        0x000056a4:    200003e4    ...     DCD    536871908
        0x000056a8:    0000544f    OT..    DCD    21583
        0x000056ac:    000054a1    .T..    DCD    21665
        0x000056b0:    20000a6c    l..     DCD    536873580
        0x000056b4:    50000100    ...P    DCD    1342177536
        0x000056b8:    40004000    .@.@    DCD    1073758208
        0x000056bc:    20000904    ...     DCD    536873220
    $t
    .text
    abs
        0x000056c0:    4601        .F      MOV      r1,r0
        0x000056c2:    2900        .)      CMP      r1,#0
        0x000056c4:    da01        ..      BGE      0x56ca ; abs + 10
        0x000056c6:    4248        HB      RSBS     r0,r1,#0
        0x000056c8:    4770        pG      BX       lr
        0x000056ca:    4608        .F      MOV      r0,r1
        0x000056cc:    e7fc        ..      B        0x56c8 ; abs + 8
    I2S_IRQHandler
        0x000056ce:    b51c        ..      PUSH     {r2-r4,lr}
        0x000056d0:    4839        9H      LDR      r0,[pc,#228] ; [0x57b8] = 0xe000e000
        0x000056d2:    6980        .i      LDR      r0,[r0,#0x18]
        0x000056d4:    4939        9I      LDR      r1,[pc,#228] ; [0x57bc] = 0x200005a0
        0x000056d6:    6008        .`      STR      r0,[r1,#0]
        0x000056d8:    bf00        ..      NOP      
        0x000056da:    4839        9H      LDR      r0,[pc,#228] ; [0x57c0] = 0x401a0000
        0x000056dc:    68c0        .h      LDR      r0,[r0,#0xc]
        0x000056de:    4939        9I      LDR      r1,[pc,#228] ; [0x57c4] = 0x20000594
        0x000056e0:    6008        .`      STR      r0,[r1,#0]
        0x000056e2:    4839        9H      LDR      r0,[pc,#228] ; [0x57c8] = 0x20000598
        0x000056e4:    6809        .h      LDR      r1,[r1,#0]
        0x000056e6:    6001        .`      STR      r1,[r0,#0]
        0x000056e8:    bf00        ..      NOP      
        0x000056ea:    4835        5H      LDR      r0,[pc,#212] ; [0x57c0] = 0x401a0000
        0x000056ec:    6940        @i      LDR      r0,[r0,#0x14]
        0x000056ee:    9001        ..      STR      r0,[sp,#4]
        0x000056f0:    bf00        ..      NOP      
        0x000056f2:    4833        3H      LDR      r0,[pc,#204] ; [0x57c0] = 0x401a0000
        0x000056f4:    6940        @i      LDR      r0,[r0,#0x14]
        0x000056f6:    9000        ..      STR      r0,[sp,#0]
        0x000056f8:    4834        4H      LDR      r0,[pc,#208] ; [0x57cc] = 0x20000099
        0x000056fa:    7800        .x      LDRB     r0,[r0,#0]
        0x000056fc:    2801        .(      CMP      r0,#1
        0x000056fe:    d14a        J.      BNE      0x5796 ; I2S_IRQHandler + 200
        0x00005700:    2000        .       MOVS     r0,#0
        0x00005702:    9001        ..      STR      r0,[sp,#4]
        0x00005704:    9000        ..      STR      r0,[sp,#0]
        0x00005706:    4830        0H      LDR      r0,[pc,#192] ; [0x57c8] = 0x20000598
        0x00005708:    6800        .h      LDR      r0,[r0,#0]
        0x0000570a:    01c0        ..      LSLS     r0,r0,#7
        0x0000570c:    0fc0        ..      LSRS     r0,r0,#31
        0x0000570e:    492e        .I      LDR      r1,[pc,#184] ; [0x57c8] = 0x20000598
        0x00005710:    6809        .h      LDR      r1,[r1,#0]
        0x00005712:    00c9        ..      LSLS     r1,r1,#3
        0x00005714:    0fc9        ..      LSRS     r1,r1,#31
        0x00005716:    4288        .B      CMP      r0,r1
        0x00005718:    d107        ..      BNE      0x572a ; I2S_IRQHandler + 92
        0x0000571a:    492a        *I      LDR      r1,[pc,#168] ; [0x57c4] = 0x20000594
        0x0000571c:    9801        ..      LDR      r0,[sp,#4]
        0x0000571e:    6008        .`      STR      r0,[r1,#0]
        0x00005720:    9800        ..      LDR      r0,[sp,#0]
        0x00005722:    9001        ..      STR      r0,[sp,#4]
        0x00005724:    4608        .F      MOV      r0,r1
        0x00005726:    6800        .h      LDR      r0,[r0,#0]
        0x00005728:    9000        ..      STR      r0,[sp,#0]
        0x0000572a:    9801        ..      LDR      r0,[sp,#4]
        0x0000572c:    0200        ..      LSLS     r0,r0,#8
        0x0000572e:    9900        ..      LDR      r1,[sp,#0]
        0x00005730:    1840        @.      ADDS     r0,r0,r1
        0x00005732:    4927        'I      LDR      r1,[pc,#156] ; [0x57d0] = 0x200005b0
        0x00005734:    6008        .`      STR      r0,[r1,#0]
        0x00005736:    9801        ..      LDR      r0,[sp,#4]
        0x00005738:    2800        .(      CMP      r0,#0
        0x0000573a:    dd01        ..      BLE      0x5740 ; I2S_IRQHandler + 114
        0x0000573c:    9801        ..      LDR      r0,[sp,#4]
        0x0000573e:    e001        ..      B        0x5744 ; I2S_IRQHandler + 118
        0x00005740:    9801        ..      LDR      r0,[sp,#4]
        0x00005742:    4240        @B      RSBS     r0,r0,#0
        0x00005744:    1400        ..      ASRS     r0,r0,#16
        0x00005746:    4923        #I      LDR      r1,[pc,#140] ; [0x57d4] = 0x200002b0
        0x00005748:    6809        .h      LDR      r1,[r1,#0]
        0x0000574a:    1840        @.      ADDS     r0,r0,r1
        0x0000574c:    4921        !I      LDR      r1,[pc,#132] ; [0x57d4] = 0x200002b0
        0x0000574e:    6008        .`      STR      r0,[r1,#0]
        0x00005750:    9800        ..      LDR      r0,[sp,#0]
        0x00005752:    2800        .(      CMP      r0,#0
        0x00005754:    dd01        ..      BLE      0x575a ; I2S_IRQHandler + 140
        0x00005756:    9800        ..      LDR      r0,[sp,#0]
        0x00005758:    e001        ..      B        0x575e ; I2S_IRQHandler + 144
        0x0000575a:    9800        ..      LDR      r0,[sp,#0]
        0x0000575c:    4240        @B      RSBS     r0,r0,#0
        0x0000575e:    1400        ..      ASRS     r0,r0,#16
        0x00005760:    491d        .I      LDR      r1,[pc,#116] ; [0x57d8] = 0x200002b4
        0x00005762:    6809        .h      LDR      r1,[r1,#0]
        0x00005764:    1840        @.      ADDS     r0,r0,r1
        0x00005766:    491c        .I      LDR      r1,[pc,#112] ; [0x57d8] = 0x200002b4
        0x00005768:    6008        .`      STR      r0,[r1,#0]
        0x0000576a:    4817        .H      LDR      r0,[pc,#92] ; [0x57c8] = 0x20000598
        0x0000576c:    7800        .x      LDRB     r0,[r0,#0]
        0x0000576e:    0700        ..      LSLS     r0,r0,#28
        0x00005770:    0fc0        ..      LSRS     r0,r0,#31
        0x00005772:    d00c        ..      BEQ      0x578e ; I2S_IRQHandler + 192
        0x00005774:    4814        .H      LDR      r0,[pc,#80] ; [0x57c8] = 0x20000598
        0x00005776:    6800        .h      LDR      r0,[r0,#0]
        0x00005778:    00c0        ..      LSLS     r0,r0,#3
        0x0000577a:    0fc0        ..      LSRS     r0,r0,#31
        0x0000577c:    d007        ..      BEQ      0x578e ; I2S_IRQHandler + 192
        0x0000577e:    4911        .I      LDR      r1,[pc,#68] ; [0x57c4] = 0x20000594
        0x00005780:    9801        ..      LDR      r0,[sp,#4]
        0x00005782:    6008        .`      STR      r0,[r1,#0]
        0x00005784:    9800        ..      LDR      r0,[sp,#0]
        0x00005786:    9001        ..      STR      r0,[sp,#4]
        0x00005788:    4608        .F      MOV      r0,r1
        0x0000578a:    6800        .h      LDR      r0,[r0,#0]
        0x0000578c:    9000        ..      STR      r0,[sp,#0]
        0x0000578e:    4669        iF      MOV      r1,sp
        0x00005790:    a801        ..      ADD      r0,sp,#4
        0x00005792:    f7fff8be    ....    BL       dealFlashEvent ; 0x4912
        0x00005796:    9800        ..      LDR      r0,[sp,#0]
        0x00005798:    f000f80a    ....    BL       I2S_SET_DATA ; 0x57b0
        0x0000579c:    9801        ..      LDR      r0,[sp,#4]
        0x0000579e:    f000f807    ....    BL       I2S_SET_DATA ; 0x57b0
        0x000057a2:    bd1c        ..      POP      {r2-r4,pc}
    filterInit
        0x000057a4:    2001        .       MOVS     r0,#1
        0x000057a6:    490d        .I      LDR      r1,[pc,#52] ; [0x57dc] = 0x2000057c
        0x000057a8:    6008        .`      STR      r0,[r1,#0]
        0x000057aa:    4770        pG      BX       lr
    filter
        0x000057ac:    4770        pG      BX       lr
    triggerFilter
        0x000057ae:    4770        pG      BX       lr
    I2S_SET_DATA
        0x000057b0:    4903        .I      LDR      r1,[pc,#12] ; [0x57c0] = 0x401a0000
        0x000057b2:    6108        .a      STR      r0,[r1,#0x10]
        0x000057b4:    4770        pG      BX       lr
    $d
        0x000057b6:    0000        ..      DCW    0
        0x000057b8:    e000e000    ....    DCD    3758153728
        0x000057bc:    200005a0    ...     DCD    536872352
        0x000057c0:    401a0000    ...@    DCD    1075445760
        0x000057c4:    20000594    ...     DCD    536872340
        0x000057c8:    20000598    ...     DCD    536872344
        0x000057cc:    20000099    ...     DCD    536871065
        0x000057d0:    200005b0    ...     DCD    536872368
        0x000057d4:    200002b0    ...     DCD    536871600
        0x000057d8:    200002b4    ...     DCD    536871604
        0x000057dc:    2000057c    |..     DCD    536872316
    $t
    .text
    GPIO_SET_MODE
        0x000057e0:    b530        0.      PUSH     {r4,r5,lr}
        0x000057e2:    6803        .h      LDR      r3,[r0,#0]
        0x000057e4:    004d        M.      LSLS     r5,r1,#1
        0x000057e6:    2403        .$      MOVS     r4,#3
        0x000057e8:    40ac        .@      LSLS     r4,r4,r5
        0x000057ea:    43a3        .C      BICS     r3,r3,r4
        0x000057ec:    004d        M.      LSLS     r5,r1,#1
        0x000057ee:    4614        .F      MOV      r4,r2
        0x000057f0:    40ac        .@      LSLS     r4,r4,r5
        0x000057f2:    4323        #C      ORRS     r3,r3,r4
        0x000057f4:    6003        .`      STR      r3,[r0,#0]
        0x000057f6:    bd30        0.      POP      {r4,r5,pc}
    delayus
        0x000057f8:    b510        ..      PUSH     {r4,lr}
        0x000057fa:    4604        .F      MOV      r4,r0
        0x000057fc:    4620         F      MOV      r0,r4
        0x000057fe:    f7fcfcf0    ....    BL       sysDelayUs ; 0x21e2
        0x00005802:    bd10        ..      POP      {r4,pc}
    i2cAck
        0x00005804:    b508        ..      PUSH     {r3,lr}
        0x00005806:    48fd        .H      LDR      r0,[pc,#1012] ; [0x5bfc] = 0x5000422c
        0x00005808:    f001f92e    ....    BL       GPIO_CLR_PIN ; 0x6a68
        0x0000580c:    2006        .       MOVS     r0,#6
        0x0000580e:    f7fffff3    ....    BL       delayus ; 0x57f8
        0x00005812:    48fa        .H      LDR      r0,[pc,#1000] ; [0x5bfc] = 0x5000422c
        0x00005814:    1f00        ..      SUBS     r0,r0,#4
        0x00005816:    f001f924    ..$.    BL       GPIO_SET_PIN ; 0x6a62
        0x0000581a:    2006        .       MOVS     r0,#6
        0x0000581c:    f7ffffec    ....    BL       delayus ; 0x57f8
        0x00005820:    48f6        .H      LDR      r0,[pc,#984] ; [0x5bfc] = 0x5000422c
        0x00005822:    f001f91e    ....    BL       GPIO_SET_PIN ; 0x6a62
        0x00005826:    2003        .       MOVS     r0,#3
        0x00005828:    f7ffffe6    ....    BL       delayus ; 0x57f8
        0x0000582c:    bf00        ..      NOP      
        0x0000582e:    48f3        .H      LDR      r0,[pc,#972] ; [0x5bfc] = 0x5000422c
        0x00005830:    1f00        ..      SUBS     r0,r0,#4
        0x00005832:    6800        .h      LDR      r0,[r0,#0]
        0x00005834:    9000        ..      STR      r0,[sp,#0]
        0x00005836:    2003        .       MOVS     r0,#3
        0x00005838:    f7ffffde    ....    BL       delayus ; 0x57f8
        0x0000583c:    48ef        .H      LDR      r0,[pc,#956] ; [0x5bfc] = 0x5000422c
        0x0000583e:    f001f913    ....    BL       GPIO_CLR_PIN ; 0x6a68
        0x00005842:    2006        .       MOVS     r0,#6
        0x00005844:    f7ffffd8    ....    BL       delayus ; 0x57f8
        0x00005848:    9800        ..      LDR      r0,[sp,#0]
        0x0000584a:    bd08        ..      POP      {r3,pc}
    ack
        0x0000584c:    b510        ..      PUSH     {r4,lr}
        0x0000584e:    48eb        .H      LDR      r0,[pc,#940] ; [0x5bfc] = 0x5000422c
        0x00005850:    f001f90a    ....    BL       GPIO_CLR_PIN ; 0x6a68
        0x00005854:    2003        .       MOVS     r0,#3
        0x00005856:    f7ffffcf    ....    BL       delayus ; 0x57f8
        0x0000585a:    48e8        .H      LDR      r0,[pc,#928] ; [0x5bfc] = 0x5000422c
        0x0000585c:    1f00        ..      SUBS     r0,r0,#4
        0x0000585e:    f001f903    ....    BL       GPIO_CLR_PIN ; 0x6a68
        0x00005862:    2003        .       MOVS     r0,#3
        0x00005864:    f7ffffc8    ....    BL       delayus ; 0x57f8
        0x00005868:    48e4        .H      LDR      r0,[pc,#912] ; [0x5bfc] = 0x5000422c
        0x0000586a:    f001f8fa    ....    BL       GPIO_SET_PIN ; 0x6a62
        0x0000586e:    2006        .       MOVS     r0,#6
        0x00005870:    f7ffffc2    ....    BL       delayus ; 0x57f8
        0x00005874:    48e1        .H      LDR      r0,[pc,#900] ; [0x5bfc] = 0x5000422c
        0x00005876:    f001f8f7    ....    BL       GPIO_CLR_PIN ; 0x6a68
        0x0000587a:    2006        .       MOVS     r0,#6
        0x0000587c:    f7ffffbc    ....    BL       delayus ; 0x57f8
        0x00005880:    48de        .H      LDR      r0,[pc,#888] ; [0x5bfc] = 0x5000422c
        0x00005882:    1f00        ..      SUBS     r0,r0,#4
        0x00005884:    f001f8ed    ....    BL       GPIO_SET_PIN ; 0x6a62
        0x00005888:    2003        .       MOVS     r0,#3
        0x0000588a:    f7ffffb5    ....    BL       delayus ; 0x57f8
        0x0000588e:    bd10        ..      POP      {r4,pc}
    nack
        0x00005890:    b510        ..      PUSH     {r4,lr}
        0x00005892:    48da        .H      LDR      r0,[pc,#872] ; [0x5bfc] = 0x5000422c
        0x00005894:    f001f8e8    ....    BL       GPIO_CLR_PIN ; 0x6a68
        0x00005898:    2003        .       MOVS     r0,#3
        0x0000589a:    f7ffffad    ....    BL       delayus ; 0x57f8
        0x0000589e:    48d7        .H      LDR      r0,[pc,#860] ; [0x5bfc] = 0x5000422c
        0x000058a0:    1f00        ..      SUBS     r0,r0,#4
        0x000058a2:    f001f8de    ....    BL       GPIO_SET_PIN ; 0x6a62
        0x000058a6:    2003        .       MOVS     r0,#3
        0x000058a8:    f7ffffa6    ....    BL       delayus ; 0x57f8
        0x000058ac:    48d3        .H      LDR      r0,[pc,#844] ; [0x5bfc] = 0x5000422c
        0x000058ae:    f001f8d8    ....    BL       GPIO_SET_PIN ; 0x6a62
        0x000058b2:    2006        .       MOVS     r0,#6
        0x000058b4:    f7ffffa0    ....    BL       delayus ; 0x57f8
        0x000058b8:    48d0        .H      LDR      r0,[pc,#832] ; [0x5bfc] = 0x5000422c
        0x000058ba:    f001f8d5    ....    BL       GPIO_CLR_PIN ; 0x6a68
        0x000058be:    2006        .       MOVS     r0,#6
        0x000058c0:    f7ffff9a    ....    BL       delayus ; 0x57f8
        0x000058c4:    48cd        .H      LDR      r0,[pc,#820] ; [0x5bfc] = 0x5000422c
        0x000058c6:    1f00        ..      SUBS     r0,r0,#4
        0x000058c8:    f001f8cb    ....    BL       GPIO_SET_PIN ; 0x6a62
        0x000058cc:    2003        .       MOVS     r0,#3
        0x000058ce:    f7ffff93    ....    BL       delayus ; 0x57f8
        0x000058d2:    bd10        ..      POP      {r4,pc}
    i2cRestart
        0x000058d4:    b510        ..      PUSH     {r4,lr}
        0x000058d6:    48c9        .H      LDR      r0,[pc,#804] ; [0x5bfc] = 0x5000422c
        0x000058d8:    f001f8c6    ....    BL       GPIO_CLR_PIN ; 0x6a68
        0x000058dc:    2006        .       MOVS     r0,#6
        0x000058de:    f7ffff8b    ....    BL       delayus ; 0x57f8
        0x000058e2:    48c6        .H      LDR      r0,[pc,#792] ; [0x5bfc] = 0x5000422c
        0x000058e4:    1f00        ..      SUBS     r0,r0,#4
        0x000058e6:    f001f8bc    ....    BL       GPIO_SET_PIN ; 0x6a62
        0x000058ea:    203c        <       MOVS     r0,#0x3c
        0x000058ec:    f7ffff84    ....    BL       delayus ; 0x57f8
        0x000058f0:    48c2        .H      LDR      r0,[pc,#776] ; [0x5bfc] = 0x5000422c
        0x000058f2:    f001f8b6    ....    BL       GPIO_SET_PIN ; 0x6a62
        0x000058f6:    2006        .       MOVS     r0,#6
        0x000058f8:    f7ffff7e    ..~.    BL       delayus ; 0x57f8
        0x000058fc:    48bf        .H      LDR      r0,[pc,#764] ; [0x5bfc] = 0x5000422c
        0x000058fe:    1f00        ..      SUBS     r0,r0,#4
        0x00005900:    f001f8b2    ....    BL       GPIO_CLR_PIN ; 0x6a68
        0x00005904:    2006        .       MOVS     r0,#6
        0x00005906:    f7ffff77    ..w.    BL       delayus ; 0x57f8
        0x0000590a:    48bc        .H      LDR      r0,[pc,#752] ; [0x5bfc] = 0x5000422c
        0x0000590c:    f001f8ac    ....    BL       GPIO_CLR_PIN ; 0x6a68
        0x00005910:    2006        .       MOVS     r0,#6
        0x00005912:    f7ffff71    ..q.    BL       delayus ; 0x57f8
        0x00005916:    bd10        ..      POP      {r4,pc}
    i2cStop
        0x00005918:    b510        ..      PUSH     {r4,lr}
        0x0000591a:    48b8        .H      LDR      r0,[pc,#736] ; [0x5bfc] = 0x5000422c
        0x0000591c:    1f00        ..      SUBS     r0,r0,#4
        0x0000591e:    f001f8a3    ....    BL       GPIO_CLR_PIN ; 0x6a68
        0x00005922:    2006        .       MOVS     r0,#6
        0x00005924:    f7ffff68    ..h.    BL       delayus ; 0x57f8
        0x00005928:    48b4        .H      LDR      r0,[pc,#720] ; [0x5bfc] = 0x5000422c
        0x0000592a:    f001f89a    ....    BL       GPIO_SET_PIN ; 0x6a62
        0x0000592e:    2006        .       MOVS     r0,#6
        0x00005930:    f7ffff62    ..b.    BL       delayus ; 0x57f8
        0x00005934:    48b1        .H      LDR      r0,[pc,#708] ; [0x5bfc] = 0x5000422c
        0x00005936:    1f00        ..      SUBS     r0,r0,#4
        0x00005938:    f001f893    ....    BL       GPIO_SET_PIN ; 0x6a62
        0x0000593c:    2006        .       MOVS     r0,#6
        0x0000593e:    f7ffff5b    ..[.    BL       delayus ; 0x57f8
        0x00005942:    bd10        ..      POP      {r4,pc}
    i2cWriteByte
        0x00005944:    b570        p.      PUSH     {r4-r6,lr}
        0x00005946:    4606        .F      MOV      r6,r0
        0x00005948:    2480        .$      MOVS     r4,#0x80
        0x0000594a:    2500        .%      MOVS     r5,#0
        0x0000594c:    e01c        ..      B        0x5988 ; i2cWriteByte + 68
        0x0000594e:    48ab        .H      LDR      r0,[pc,#684] ; [0x5bfc] = 0x5000422c
        0x00005950:    f001f88a    ....    BL       GPIO_CLR_PIN ; 0x6a68
        0x00005954:    2003        .       MOVS     r0,#3
        0x00005956:    f7ffff4f    ..O.    BL       delayus ; 0x57f8
        0x0000595a:    4630        0F      MOV      r0,r6
        0x0000595c:    4220         B      TST      r0,r4
        0x0000595e:    d004        ..      BEQ      0x596a ; i2cWriteByte + 38
        0x00005960:    48a6        .H      LDR      r0,[pc,#664] ; [0x5bfc] = 0x5000422c
        0x00005962:    1f00        ..      SUBS     r0,r0,#4
        0x00005964:    f001f87d    ..}.    BL       GPIO_SET_PIN ; 0x6a62
        0x00005968:    e003        ..      B        0x5972 ; i2cWriteByte + 46
        0x0000596a:    48a4        .H      LDR      r0,[pc,#656] ; [0x5bfc] = 0x5000422c
        0x0000596c:    1f00        ..      SUBS     r0,r0,#4
        0x0000596e:    f001f87b    ..{.    BL       GPIO_CLR_PIN ; 0x6a68
        0x00005972:    2003        .       MOVS     r0,#3
        0x00005974:    f7ffff40    ..@.    BL       delayus ; 0x57f8
        0x00005978:    48a0        .H      LDR      r0,[pc,#640] ; [0x5bfc] = 0x5000422c
        0x0000597a:    f001f872    ..r.    BL       GPIO_SET_PIN ; 0x6a62
        0x0000597e:    2006        .       MOVS     r0,#6
        0x00005980:    f7ffff3a    ..:.    BL       delayus ; 0x57f8
        0x00005984:    1064        d.      ASRS     r4,r4,#1
        0x00005986:    1c6d        m.      ADDS     r5,r5,#1
        0x00005988:    2d08        .-      CMP      r5,#8
        0x0000598a:    d3e0        ..      BCC      0x594e ; i2cWriteByte + 10
        0x0000598c:    bd70        p.      POP      {r4-r6,pc}
    i2cReadByte
        0x0000598e:    b570        p.      PUSH     {r4-r6,lr}
        0x00005990:    2600        .&      MOVS     r6,#0
        0x00005992:    2480        .$      MOVS     r4,#0x80
        0x00005994:    2500        .%      MOVS     r5,#0
        0x00005996:    e016        ..      B        0x59c6 ; i2cReadByte + 56
        0x00005998:    4898        .H      LDR      r0,[pc,#608] ; [0x5bfc] = 0x5000422c
        0x0000599a:    f001f865    ..e.    BL       GPIO_CLR_PIN ; 0x6a68
        0x0000599e:    2006        .       MOVS     r0,#6
        0x000059a0:    f7ffff2a    ..*.    BL       delayus ; 0x57f8
        0x000059a4:    4895        .H      LDR      r0,[pc,#596] ; [0x5bfc] = 0x5000422c
        0x000059a6:    f001f85c    ..\.    BL       GPIO_SET_PIN ; 0x6a62
        0x000059aa:    2006        .       MOVS     r0,#6
        0x000059ac:    f7ffff24    ..$.    BL       delayus ; 0x57f8
        0x000059b0:    bf00        ..      NOP      
        0x000059b2:    4892        .H      LDR      r0,[pc,#584] ; [0x5bfc] = 0x5000422c
        0x000059b4:    1f00        ..      SUBS     r0,r0,#4
        0x000059b6:    6800        .h      LDR      r0,[r0,#0]
        0x000059b8:    2800        .(      CMP      r0,#0
        0x000059ba:    d002        ..      BEQ      0x59c2 ; i2cReadByte + 52
        0x000059bc:    4630        0F      MOV      r0,r6
        0x000059be:    4320         C      ORRS     r0,r0,r4
        0x000059c0:    4606        .F      MOV      r6,r0
        0x000059c2:    1064        d.      ASRS     r4,r4,#1
        0x000059c4:    1c6d        m.      ADDS     r5,r5,#1
        0x000059c6:    2d08        .-      CMP      r5,#8
        0x000059c8:    d3e6        ..      BCC      0x5998 ; i2cReadByte + 10
        0x000059ca:    4630        0F      MOV      r0,r6
        0x000059cc:    bd70        p.      POP      {r4-r6,pc}
    i2cStart
        0x000059ce:    b510        ..      PUSH     {r4,lr}
        0x000059d0:    4604        .F      MOV      r4,r0
        0x000059d2:    488a        .H      LDR      r0,[pc,#552] ; [0x5bfc] = 0x5000422c
        0x000059d4:    1f00        ..      SUBS     r0,r0,#4
        0x000059d6:    f001f844    ..D.    BL       GPIO_SET_PIN ; 0x6a62
        0x000059da:    4888        .H      LDR      r0,[pc,#544] ; [0x5bfc] = 0x5000422c
        0x000059dc:    f001f841    ..A.    BL       GPIO_SET_PIN ; 0x6a62
        0x000059e0:    2202        ."      MOVS     r2,#2
        0x000059e2:    210a        .!      MOVS     r1,#0xa
        0x000059e4:    4886        .H      LDR      r0,[pc,#536] ; [0x5c00] = 0x50004000
        0x000059e6:    f7fffefb    ....    BL       GPIO_SET_MODE ; 0x57e0
        0x000059ea:    2202        ."      MOVS     r2,#2
        0x000059ec:    210b        .!      MOVS     r1,#0xb
        0x000059ee:    4884        .H      LDR      r0,[pc,#528] ; [0x5c00] = 0x50004000
        0x000059f0:    f7fffef6    ....    BL       GPIO_SET_MODE ; 0x57e0
        0x000059f4:    2001        .       MOVS     r0,#1
        0x000059f6:    4983        .I      LDR      r1,[pc,#524] ; [0x5c04] = 0x200005bc
        0x000059f8:    6008        .`      STR      r0,[r1,#0]
        0x000059fa:    200a        .       MOVS     r0,#0xa
        0x000059fc:    f7fcfbf1    ....    BL       sysDelayUs ; 0x21e2
        0x00005a00:    487e        ~H      LDR      r0,[pc,#504] ; [0x5bfc] = 0x5000422c
        0x00005a02:    1f00        ..      SUBS     r0,r0,#4
        0x00005a04:    f001f830    ..0.    BL       GPIO_CLR_PIN ; 0x6a68
        0x00005a08:    2014        .       MOVS     r0,#0x14
        0x00005a0a:    f7fffef5    ....    BL       delayus ; 0x57f8
        0x00005a0e:    4620         F      MOV      r0,r4
        0x00005a10:    f7ffff98    ....    BL       i2cWriteByte ; 0x5944
        0x00005a14:    f7fffef6    ....    BL       i2cAck ; 0x5804
        0x00005a18:    2800        .(      CMP      r0,#0
        0x00005a1a:    d001        ..      BEQ      0x5a20 ; i2cStart + 82
        0x00005a1c:    2001        .       MOVS     r0,#1
        0x00005a1e:    bd10        ..      POP      {r4,pc}
        0x00005a20:    2000        .       MOVS     r0,#0
        0x00005a22:    e7fc        ..      B        0x5a1e ; i2cStart + 80
    exitGpioI2c
        0x00005a24:    4770        pG      BX       lr
    readDwhp83
        0x00005a26:    b570        p.      PUSH     {r4-r6,lr}
        0x00005a28:    4605        .F      MOV      r5,r0
        0x00005a2a:    460e        .F      MOV      r6,r1
        0x00005a2c:    2000        .       MOVS     r0,#0
        0x00005a2e:    4976        vI      LDR      r1,[pc,#472] ; [0x5c08] = 0x200005c0
        0x00005a30:    7008        .p      STRB     r0,[r1,#0]
        0x00005a32:    2080        .       MOVS     r0,#0x80
        0x00005a34:    f7ffffcb    ....    BL       i2cStart ; 0x59ce
        0x00005a38:    2800        .(      CMP      r0,#0
        0x00005a3a:    d13b        ;.      BNE      0x5ab4 ; readDwhp83 + 142
        0x00005a3c:    200a        .       MOVS     r0,#0xa
        0x00005a3e:    f7fffedb    ....    BL       delayus ; 0x57f8
        0x00005a42:    b2e8        ..      UXTB     r0,r5
        0x00005a44:    f7ffff7e    ..~.    BL       i2cWriteByte ; 0x5944
        0x00005a48:    f7fffedc    ....    BL       i2cAck ; 0x5804
        0x00005a4c:    2801        .(      CMP      r0,#1
        0x00005a4e:    d104        ..      BNE      0x5a5a ; readDwhp83 + 52
        0x00005a50:    496d        mI      LDR      r1,[pc,#436] ; [0x5c08] = 0x200005c0
        0x00005a52:    7008        .p      STRB     r0,[r1,#0]
        0x00005a54:    f7ffff60    ..`.    BL       i2cStop ; 0x5918
        0x00005a58:    bd70        p.      POP      {r4-r6,pc}
        0x00005a5a:    200a        .       MOVS     r0,#0xa
        0x00005a5c:    f7fffecc    ....    BL       delayus ; 0x57f8
        0x00005a60:    f7ffff38    ..8.    BL       i2cRestart ; 0x58d4
        0x00005a64:    2081        .       MOVS     r0,#0x81
        0x00005a66:    f7ffff6d    ..m.    BL       i2cWriteByte ; 0x5944
        0x00005a6a:    f7fffecb    ....    BL       i2cAck ; 0x5804
        0x00005a6e:    2800        .(      CMP      r0,#0
        0x00005a70:    d11a        ..      BNE      0x5aa8 ; readDwhp83 + 130
        0x00005a72:    2400        .$      MOVS     r4,#0
        0x00005a74:    e009        ..      B        0x5a8a ; readDwhp83 + 100
        0x00005a76:    20fa        .       MOVS     r0,#0xfa
        0x00005a78:    f7fffebe    ....    BL       delayus ; 0x57f8
        0x00005a7c:    f7ffff87    ....    BL       i2cReadByte ; 0x598e
        0x00005a80:    4962        bI      LDR      r1,[pc,#392] ; [0x5c0c] = 0x20000ae6
        0x00005a82:    5508        .U      STRB     r0,[r1,r4]
        0x00005a84:    f7fffee2    ....    BL       ack ; 0x584c
        0x00005a88:    1c64        d.      ADDS     r4,r4,#1
        0x00005a8a:    1e70        p.      SUBS     r0,r6,#1
        0x00005a8c:    42a0        .B      CMP      r0,r4
        0x00005a8e:    d8f2        ..      BHI      0x5a76 ; readDwhp83 + 80
        0x00005a90:    20fa        .       MOVS     r0,#0xfa
        0x00005a92:    f7fffeb1    ....    BL       delayus ; 0x57f8
        0x00005a96:    f7ffff7a    ..z.    BL       i2cReadByte ; 0x598e
        0x00005a9a:    495c        \I      LDR      r1,[pc,#368] ; [0x5c0c] = 0x20000ae6
        0x00005a9c:    5508        .U      STRB     r0,[r1,r4]
        0x00005a9e:    f7fffef7    ....    BL       nack ; 0x5890
        0x00005aa2:    f7ffff39    ..9.    BL       i2cStop ; 0x5918
        0x00005aa6:    e7d7        ..      B        0x5a58 ; readDwhp83 + 50
        0x00005aa8:    2001        .       MOVS     r0,#1
        0x00005aaa:    4957        WI      LDR      r1,[pc,#348] ; [0x5c08] = 0x200005c0
        0x00005aac:    7008        .p      STRB     r0,[r1,#0]
        0x00005aae:    f7ffff33    ..3.    BL       i2cStop ; 0x5918
        0x00005ab2:    e004        ..      B        0x5abe ; readDwhp83 + 152
        0x00005ab4:    2001        .       MOVS     r0,#1
        0x00005ab6:    4954        TI      LDR      r1,[pc,#336] ; [0x5c08] = 0x200005c0
        0x00005ab8:    7008        .p      STRB     r0,[r1,#0]
        0x00005aba:    f7ffff2d    ..-.    BL       i2cStop ; 0x5918
        0x00005abe:    bf00        ..      NOP      
        0x00005ac0:    e7ca        ..      B        0x5a58 ; readDwhp83 + 50
    writeDwhp83
        0x00005ac2:    b5f7        ..      PUSH     {r0-r2,r4-r7,lr}
        0x00005ac4:    4605        .F      MOV      r5,r0
        0x00005ac6:    4616        .F      MOV      r6,r2
        0x00005ac8:    2000        .       MOVS     r0,#0
        0x00005aca:    494f        OI      LDR      r1,[pc,#316] ; [0x5c08] = 0x200005c0
        0x00005acc:    7008        .p      STRB     r0,[r1,#0]
        0x00005ace:    2080        .       MOVS     r0,#0x80
        0x00005ad0:    f7ffff7d    ..}.    BL       i2cStart ; 0x59ce
        0x00005ad4:    2800        .(      CMP      r0,#0
        0x00005ad6:    d12c        ,.      BNE      0x5b32 ; writeDwhp83 + 112
        0x00005ad8:    4668        hF      MOV      r0,sp
        0x00005ada:    7900        .y      LDRB     r0,[r0,#4]
        0x00005adc:    f7ffff32    ..2.    BL       i2cWriteByte ; 0x5944
        0x00005ae0:    f7fffe90    ....    BL       i2cAck ; 0x5804
        0x00005ae4:    2801        .(      CMP      r0,#1
        0x00005ae6:    d104        ..      BNE      0x5af2 ; writeDwhp83 + 48
        0x00005ae8:    4947        GI      LDR      r1,[pc,#284] ; [0x5c08] = 0x200005c0
        0x00005aea:    7008        .p      STRB     r0,[r1,#0]
        0x00005aec:    f7ffff14    ....    BL       i2cStop ; 0x5918
        0x00005af0:    bdfe        ..      POP      {r1-r7,pc}
        0x00005af2:    2032        2       MOVS     r0,#0x32
        0x00005af4:    f7fffe80    ....    BL       delayus ; 0x57f8
        0x00005af8:    2d00        .-      CMP      r5,#0
        0x00005afa:    d016        ..      BEQ      0x5b2a ; writeDwhp83 + 104
        0x00005afc:    2400        .$      MOVS     r4,#0
        0x00005afe:    e012        ..      B        0x5b26 ; writeDwhp83 + 100
        0x00005b00:    483e        >H      LDR      r0,[pc,#248] ; [0x5bfc] = 0x5000422c
        0x00005b02:    f000ffb1    ....    BL       GPIO_CLR_PIN ; 0x6a68
        0x00005b06:    5d28        (]      LDRB     r0,[r5,r4]
        0x00005b08:    f7ffff1c    ....    BL       i2cWriteByte ; 0x5944
        0x00005b0c:    f7fffe7a    ..z.    BL       i2cAck ; 0x5804
        0x00005b10:    2801        .(      CMP      r0,#1
        0x00005b12:    d104        ..      BNE      0x5b1e ; writeDwhp83 + 92
        0x00005b14:    493c        <I      LDR      r1,[pc,#240] ; [0x5c08] = 0x200005c0
        0x00005b16:    7008        .p      STRB     r0,[r1,#0]
        0x00005b18:    f7fffefe    ....    BL       i2cStop ; 0x5918
        0x00005b1c:    e7e8        ..      B        0x5af0 ; writeDwhp83 + 46
        0x00005b1e:    20fa        .       MOVS     r0,#0xfa
        0x00005b20:    f7fffe6a    ..j.    BL       delayus ; 0x57f8
        0x00005b24:    1c64        d.      ADDS     r4,r4,#1
        0x00005b26:    42b4        .B      CMP      r4,r6
        0x00005b28:    d3ea        ..      BCC      0x5b00 ; writeDwhp83 + 62
        0x00005b2a:    2000        .       MOVS     r0,#0
        0x00005b2c:    4936        6I      LDR      r1,[pc,#216] ; [0x5c08] = 0x200005c0
        0x00005b2e:    7008        .p      STRB     r0,[r1,#0]
        0x00005b30:    e002        ..      B        0x5b38 ; writeDwhp83 + 118
        0x00005b32:    2001        .       MOVS     r0,#1
        0x00005b34:    4934        4I      LDR      r1,[pc,#208] ; [0x5c08] = 0x200005c0
        0x00005b36:    7008        .p      STRB     r0,[r1,#0]
        0x00005b38:    f7fffeee    ....    BL       i2cStop ; 0x5918
        0x00005b3c:    bf00        ..      NOP      
        0x00005b3e:    e7d7        ..      B        0x5af0 ; writeDwhp83 + 46
    writeAmp38Cmd
        0x00005b40:    b570        p.      PUSH     {r4-r6,lr}
        0x00005b42:    4605        .F      MOV      r5,r0
        0x00005b44:    460c        .F      MOV      r4,r1
        0x00005b46:    2000        .       MOVS     r0,#0
        0x00005b48:    492f        /I      LDR      r1,[pc,#188] ; [0x5c08] = 0x200005c0
        0x00005b4a:    7008        .p      STRB     r0,[r1,#0]
        0x00005b4c:    2038        8       MOVS     r0,#0x38
        0x00005b4e:    f7ffff3e    ..>.    BL       i2cStart ; 0x59ce
        0x00005b52:    2800        .(      CMP      r0,#0
        0x00005b54:    d11b        ..      BNE      0x5b8e ; writeAmp38Cmd + 78
        0x00005b56:    4628        (F      MOV      r0,r5
        0x00005b58:    f7fffef4    ....    BL       i2cWriteByte ; 0x5944
        0x00005b5c:    f7fffe52    ..R.    BL       i2cAck ; 0x5804
        0x00005b60:    2801        .(      CMP      r0,#1
        0x00005b62:    d104        ..      BNE      0x5b6e ; writeAmp38Cmd + 46
        0x00005b64:    4928        (I      LDR      r1,[pc,#160] ; [0x5c08] = 0x200005c0
        0x00005b66:    7008        .p      STRB     r0,[r1,#0]
        0x00005b68:    f7fffed6    ....    BL       i2cStop ; 0x5918
        0x00005b6c:    bd70        p.      POP      {r4-r6,pc}
        0x00005b6e:    4823        #H      LDR      r0,[pc,#140] ; [0x5bfc] = 0x5000422c
        0x00005b70:    f000ff7a    ..z.    BL       GPIO_CLR_PIN ; 0x6a68
        0x00005b74:    2006        .       MOVS     r0,#6
        0x00005b76:    f7fffe3f    ..?.    BL       delayus ; 0x57f8
        0x00005b7a:    4620         F      MOV      r0,r4
        0x00005b7c:    f7fffee2    ....    BL       i2cWriteByte ; 0x5944
        0x00005b80:    f7fffe40    ..@.    BL       i2cAck ; 0x5804
        0x00005b84:    2801        .(      CMP      r0,#1
        0x00005b86:    d102        ..      BNE      0x5b8e ; writeAmp38Cmd + 78
        0x00005b88:    491f        .I      LDR      r1,[pc,#124] ; [0x5c08] = 0x200005c0
        0x00005b8a:    7008        .p      STRB     r0,[r1,#0]
        0x00005b8c:    e7ee        ..      B        0x5b6c ; writeAmp38Cmd + 44
        0x00005b8e:    f7fffec3    ....    BL       i2cStop ; 0x5918
        0x00005b92:    bf00        ..      NOP      
        0x00005b94:    e7ea        ..      B        0x5b6c ; writeAmp38Cmd + 44
    Dwhp83EnterPairing
        0x00005b96:    b508        ..      PUSH     {r3,lr}
        0x00005b98:    2001        .       MOVS     r0,#1
        0x00005b9a:    9000        ..      STR      r0,[sp,#0]
        0x00005b9c:    2201        ."      MOVS     r2,#1
        0x00005b9e:    21c2        .!      MOVS     r1,#0xc2
        0x00005ba0:    4668        hF      MOV      r0,sp
        0x00005ba2:    f7ffff8e    ....    BL       writeDwhp83 ; 0x5ac2
        0x00005ba6:    f7ffff3d    ..=.    BL       exitGpioI2c ; 0x5a24
        0x00005baa:    bd08        ..      POP      {r3,pc}
    Dwhp83GetStatus
        0x00005bac:    b510        ..      PUSH     {r4,lr}
        0x00005bae:    2103        .!      MOVS     r1,#3
        0x00005bb0:    203f        ?       MOVS     r0,#0x3f
        0x00005bb2:    f7ffff38    ..8.    BL       readDwhp83 ; 0x5a26
        0x00005bb6:    4815        .H      LDR      r0,[pc,#84] ; [0x5c0c] = 0x20000ae6
        0x00005bb8:    7800        .x      LDRB     r0,[r0,#0]
        0x00005bba:    4914        .I      LDR      r1,[pc,#80] ; [0x5c0c] = 0x20000ae6
        0x00005bbc:    7849        Ix      LDRB     r1,[r1,#1]
        0x00005bbe:    1840        @.      ADDS     r0,r0,r1
        0x00005bc0:    4912        .I      LDR      r1,[pc,#72] ; [0x5c0c] = 0x20000ae6
        0x00005bc2:    7889        .x      LDRB     r1,[r1,#2]
        0x00005bc4:    4288        .B      CMP      r0,r1
        0x00005bc6:    d116        ..      BNE      0x5bf6 ; Dwhp83GetStatus + 74
        0x00005bc8:    4810        .H      LDR      r0,[pc,#64] ; [0x5c0c] = 0x20000ae6
        0x00005bca:    7800        .x      LDRB     r0,[r0,#0]
        0x00005bcc:    07c0        ..      LSLS     r0,r0,#31
        0x00005bce:    0fc0        ..      LSRS     r0,r0,#31
        0x00005bd0:    490f        .I      LDR      r1,[pc,#60] ; [0x5c10] = 0x200005f4
        0x00005bd2:    7008        .p      STRB     r0,[r1,#0]
        0x00005bd4:    480d        .H      LDR      r0,[pc,#52] ; [0x5c0c] = 0x20000ae6
        0x00005bd6:    7840        @x      LDRB     r0,[r0,#1]
        0x00005bd8:    2104        .!      MOVS     r1,#4
        0x00005bda:    4008        .@      ANDS     r0,r0,r1
        0x00005bdc:    490c        .I      LDR      r1,[pc,#48] ; [0x5c10] = 0x200005f4
        0x00005bde:    7088        .p      STRB     r0,[r1,#2]
        0x00005be0:    480a        .H      LDR      r0,[pc,#40] ; [0x5c0c] = 0x20000ae6
        0x00005be2:    7840        @x      LDRB     r0,[r0,#1]
        0x00005be4:    2108        .!      MOVS     r1,#8
        0x00005be6:    4008        .@      ANDS     r0,r0,r1
        0x00005be8:    4909        .I      LDR      r1,[pc,#36] ; [0x5c10] = 0x200005f4
        0x00005bea:    7048        Hp      STRB     r0,[r1,#1]
        0x00005bec:    4807        .H      LDR      r0,[pc,#28] ; [0x5c0c] = 0x20000ae6
        0x00005bee:    7880        .x      LDRB     r0,[r0,#2]
        0x00005bf0:    07c0        ..      LSLS     r0,r0,#31
        0x00005bf2:    0fc0        ..      LSRS     r0,r0,#31
        0x00005bf4:    70c8        .p      STRB     r0,[r1,#3]
        0x00005bf6:    f7ffff15    ....    BL       exitGpioI2c ; 0x5a24
        0x00005bfa:    bd10        ..      POP      {r4,pc}
    $d
        0x00005bfc:    5000422c    ,B.P    DCD    1342194220
        0x00005c00:    50004000    .@.P    DCD    1342193664
        0x00005c04:    200005bc    ...     DCD    536872380
        0x00005c08:    200005c0    ...     DCD    536872384
        0x00005c0c:    20000ae6    ...     DCD    536873702
        0x00005c10:    200005f4    ...     DCD    536872436
    $t
    Dwhp83Slave
        0x00005c14:    b508        ..      PUSH     {r3,lr}
        0x00005c16:    2000        .       MOVS     r0,#0
        0x00005c18:    9000        ..      STR      r0,[sp,#0]
        0x00005c1a:    2201        ."      MOVS     r2,#1
        0x00005c1c:    21ca        .!      MOVS     r1,#0xca
        0x00005c1e:    4668        hF      MOV      r0,sp
        0x00005c20:    f7ffff4f    ..O.    BL       writeDwhp83 ; 0x5ac2
        0x00005c24:    f7fffefe    ....    BL       exitGpioI2c ; 0x5a24
        0x00005c28:    bd08        ..      POP      {r3,pc}
    DWP83CuPowerOn
        0x00005c2a:    2000        .       MOVS     r0,#0
        0x00005c2c:    e003        ..      B        0x5c36 ; DWP83CuPowerOn + 12
        0x00005c2e:    2205        ."      MOVS     r2,#5
        0x00005c30:    49f9        .I      LDR      r1,[pc,#996] ; [0x6018] = 0x20000b46
        0x00005c32:    540a        .T      STRB     r2,[r1,r0]
        0x00005c34:    1c40        @.      ADDS     r0,r0,#1
        0x00005c36:    280c        .(      CMP      r0,#0xc
        0x00005c38:    d3f9        ..      BCC      0x5c2e ; DWP83CuPowerOn + 4
        0x00005c3a:    4770        pG      BX       lr
    Dwhp83Master
        0x00005c3c:    b508        ..      PUSH     {r3,lr}
        0x00005c3e:    2001        .       MOVS     r0,#1
        0x00005c40:    9000        ..      STR      r0,[sp,#0]
        0x00005c42:    2201        ."      MOVS     r2,#1
        0x00005c44:    21ca        .!      MOVS     r1,#0xca
        0x00005c46:    4668        hF      MOV      r0,sp
        0x00005c48:    f7ffff3b    ..;.    BL       writeDwhp83 ; 0x5ac2
        0x00005c4c:    f7fffeea    ....    BL       exitGpioI2c ; 0x5a24
        0x00005c50:    f7ffffeb    ....    BL       DWP83CuPowerOn ; 0x5c2a
        0x00005c54:    bd08        ..      POP      {r3,pc}
    Dwhp83SendCoCo
        0x00005c56:    b51c        ..      PUSH     {r2-r4,lr}
        0x00005c58:    49f0        .I      LDR      r1,[pc,#960] ; [0x601c] = 0x6edc
        0x00005c5a:    c903        ..      LDM      r1,{r0,r1}
        0x00005c5c:    9101        ..      STR      r1,[sp,#4]
        0x00005c5e:    9000        ..      STR      r0,[sp,#0]
        0x00005c60:    48ef        .H      LDR      r0,[pc,#956] ; [0x6020] = 0x200005c1
        0x00005c62:    7801        .x      LDRB     r1,[r0,#0]
        0x00005c64:    4668        hF      MOV      r0,sp
        0x00005c66:    7141        Aq      STRB     r1,[r0,#5]
        0x00005c68:    48ed        .H      LDR      r0,[pc,#948] ; [0x6020] = 0x200005c1
        0x00005c6a:    7841        Ax      LDRB     r1,[r0,#1]
        0x00005c6c:    4668        hF      MOV      r0,sp
        0x00005c6e:    7181        .q      STRB     r1,[r0,#6]
        0x00005c70:    48eb        .H      LDR      r0,[pc,#940] ; [0x6020] = 0x200005c1
        0x00005c72:    7881        .x      LDRB     r1,[r0,#2]
        0x00005c74:    4668        hF      MOV      r0,sp
        0x00005c76:    71c1        .q      STRB     r1,[r0,#7]
        0x00005c78:    2208        ."      MOVS     r2,#8
        0x00005c7a:    2102        .!      MOVS     r1,#2
        0x00005c7c:    f7ffff21    ..!.    BL       writeDwhp83 ; 0x5ac2
        0x00005c80:    f7fffed0    ....    BL       exitGpioI2c ; 0x5a24
        0x00005c84:    bd1c        ..      POP      {r2-r4,pc}
    DWHP83Mute
        0x00005c86:    b508        ..      PUSH     {r3,lr}
        0x00005c88:    2000        .       MOVS     r0,#0
        0x00005c8a:    9000        ..      STR      r0,[sp,#0]
        0x00005c8c:    2201        ."      MOVS     r2,#1
        0x00005c8e:    21c3        .!      MOVS     r1,#0xc3
        0x00005c90:    4668        hF      MOV      r0,sp
        0x00005c92:    f7ffff16    ....    BL       writeDwhp83 ; 0x5ac2
        0x00005c96:    f7fffec5    ....    BL       exitGpioI2c ; 0x5a24
        0x00005c9a:    bd08        ..      POP      {r3,pc}
    Dwhp83WriteCoCo
        0x00005c9c:    b510        ..      PUSH     {r4,lr}
        0x00005c9e:    2203        ."      MOVS     r2,#3
        0x00005ca0:    21c6        .!      MOVS     r1,#0xc6
        0x00005ca2:    48df        .H      LDR      r0,[pc,#892] ; [0x6020] = 0x200005c1
        0x00005ca4:    f7ffff0d    ....    BL       writeDwhp83 ; 0x5ac2
        0x00005ca8:    2014        .       MOVS     r0,#0x14
        0x00005caa:    f7fcfaac    ....    BL       sysDelayMs ; 0x2206
        0x00005cae:    f7fffeb9    ....    BL       exitGpioI2c ; 0x5a24
        0x00005cb2:    bd10        ..      POP      {r4,pc}
    saveCoCo
        0x00005cb4:    b510        ..      PUSH     {r4,lr}
        0x00005cb6:    2103        .!      MOVS     r1,#3
        0x00005cb8:    203d        =       MOVS     r0,#0x3d
        0x00005cba:    f7fffeb4    ....    BL       readDwhp83 ; 0x5a26
        0x00005cbe:    f7fffeb1    ....    BL       exitGpioI2c ; 0x5a24
        0x00005cc2:    48d8        .H      LDR      r0,[pc,#864] ; [0x6024] = 0x20000ae6
        0x00005cc4:    7800        .x      LDRB     r0,[r0,#0]
        0x00005cc6:    49d6        .I      LDR      r1,[pc,#856] ; [0x6020] = 0x200005c1
        0x00005cc8:    7008        .p      STRB     r0,[r1,#0]
        0x00005cca:    48d6        .H      LDR      r0,[pc,#856] ; [0x6024] = 0x20000ae6
        0x00005ccc:    7840        @x      LDRB     r0,[r0,#1]
        0x00005cce:    7048        Hp      STRB     r0,[r1,#1]
        0x00005cd0:    48d4        .H      LDR      r0,[pc,#848] ; [0x6024] = 0x20000ae6
        0x00005cd2:    7880        .x      LDRB     r0,[r0,#2]
        0x00005cd4:    7088        .p      STRB     r0,[r1,#2]
        0x00005cd6:    bd10        ..      POP      {r4,pc}
    soundbar_coco_check
        0x00005cd8:    b510        ..      PUSH     {r4,lr}
        0x00005cda:    2103        .!      MOVS     r1,#3
        0x00005cdc:    203d        =       MOVS     r0,#0x3d
        0x00005cde:    f7fffea2    ....    BL       readDwhp83 ; 0x5a26
        0x00005ce2:    f7fffe9f    ....    BL       exitGpioI2c ; 0x5a24
        0x00005ce6:    48cf        .H      LDR      r0,[pc,#828] ; [0x6024] = 0x20000ae6
        0x00005ce8:    7800        .x      LDRB     r0,[r0,#0]
        0x00005cea:    49cd        .I      LDR      r1,[pc,#820] ; [0x6020] = 0x200005c1
        0x00005cec:    7008        .p      STRB     r0,[r1,#0]
        0x00005cee:    48cd        .H      LDR      r0,[pc,#820] ; [0x6024] = 0x20000ae6
        0x00005cf0:    7840        @x      LDRB     r0,[r0,#1]
        0x00005cf2:    7048        Hp      STRB     r0,[r1,#1]
        0x00005cf4:    48cb        .H      LDR      r0,[pc,#812] ; [0x6024] = 0x20000ae6
        0x00005cf6:    7880        .x      LDRB     r0,[r0,#2]
        0x00005cf8:    7088        .p      STRB     r0,[r1,#2]
        0x00005cfa:    4608        .F      MOV      r0,r1
        0x00005cfc:    7800        .x      LDRB     r0,[r0,#0]
        0x00005cfe:    2804        .(      CMP      r0,#4
        0x00005d00:    dd01        ..      BLE      0x5d06 ; soundbar_coco_check + 46
        0x00005d02:    2001        .       MOVS     r0,#1
        0x00005d04:    bd10        ..      POP      {r4,pc}
        0x00005d06:    2000        .       MOVS     r0,#0
        0x00005d08:    e7fc        ..      B        0x5d04 ; soundbar_coco_check + 44
    local_coco_check
        0x00005d0a:    b510        ..      PUSH     {r4,lr}
        0x00005d0c:    2103        .!      MOVS     r1,#3
        0x00005d0e:    203d        =       MOVS     r0,#0x3d
        0x00005d10:    f7fffe89    ....    BL       readDwhp83 ; 0x5a26
        0x00005d14:    f7fffe86    ....    BL       exitGpioI2c ; 0x5a24
        0x00005d18:    48c2        .H      LDR      r0,[pc,#776] ; [0x6024] = 0x20000ae6
        0x00005d1a:    7800        .x      LDRB     r0,[r0,#0]
        0x00005d1c:    49c0        .I      LDR      r1,[pc,#768] ; [0x6020] = 0x200005c1
        0x00005d1e:    7008        .p      STRB     r0,[r1,#0]
        0x00005d20:    48c0        .H      LDR      r0,[pc,#768] ; [0x6024] = 0x20000ae6
        0x00005d22:    7840        @x      LDRB     r0,[r0,#1]
        0x00005d24:    7048        Hp      STRB     r0,[r1,#1]
        0x00005d26:    48bf        .H      LDR      r0,[pc,#764] ; [0x6024] = 0x20000ae6
        0x00005d28:    7880        .x      LDRB     r0,[r0,#2]
        0x00005d2a:    7088        .p      STRB     r0,[r1,#2]
        0x00005d2c:    4608        .F      MOV      r0,r1
        0x00005d2e:    7800        .x      LDRB     r0,[r0,#0]
        0x00005d30:    2804        .(      CMP      r0,#4
        0x00005d32:    dc03        ..      BGT      0x5d3c ; local_coco_check + 50
        0x00005d34:    4608        .F      MOV      r0,r1
        0x00005d36:    7800        .x      LDRB     r0,[r0,#0]
        0x00005d38:    2801        .(      CMP      r0,#1
        0x00005d3a:    da01        ..      BGE      0x5d40 ; local_coco_check + 54
        0x00005d3c:    2000        .       MOVS     r0,#0
        0x00005d3e:    bd10        ..      POP      {r4,pc}
        0x00005d40:    2001        .       MOVS     r0,#1
        0x00005d42:    e7fc        ..      B        0x5d3e ; local_coco_check + 52
    DWHP83UnMute
        0x00005d44:    b508        ..      PUSH     {r3,lr}
        0x00005d46:    2001        .       MOVS     r0,#1
        0x00005d48:    9000        ..      STR      r0,[sp,#0]
        0x00005d4a:    2201        ."      MOVS     r2,#1
        0x00005d4c:    21c3        .!      MOVS     r1,#0xc3
        0x00005d4e:    4668        hF      MOV      r0,sp
        0x00005d50:    f7fffeb7    ....    BL       writeDwhp83 ; 0x5ac2
        0x00005d54:    f7fffe66    ..f.    BL       exitGpioI2c ; 0x5a24
        0x00005d58:    bd08        ..      POP      {r3,pc}
    Dwhp83CuMuDetect
        0x00005d5a:    b510        ..      PUSH     {r4,lr}
        0x00005d5c:    2101        .!      MOVS     r1,#1
        0x00005d5e:    2021        !       MOVS     r0,#0x21
        0x00005d60:    f7fffe61    ..a.    BL       readDwhp83 ; 0x5a26
        0x00005d64:    f7fffe5e    ..^.    BL       exitGpioI2c ; 0x5a24
        0x00005d68:    48af        .H      LDR      r0,[pc,#700] ; [0x6028] = 0x200005c0
        0x00005d6a:    7800        .x      LDRB     r0,[r0,#0]
        0x00005d6c:    2801        .(      CMP      r0,#1
        0x00005d6e:    d101        ..      BNE      0x5d74 ; Dwhp83CuMuDetect + 26
        0x00005d70:    2000        .       MOVS     r0,#0
        0x00005d72:    bd10        ..      POP      {r4,pc}
        0x00005d74:    48ab        .H      LDR      r0,[pc,#684] ; [0x6024] = 0x20000ae6
        0x00005d76:    7800        .x      LDRB     r0,[r0,#0]
        0x00005d78:    28cc        .(      CMP      r0,#0xcc
        0x00005d7a:    d103        ..      BNE      0x5d84 ; Dwhp83CuMuDetect + 42
        0x00005d7c:    48ab        .H      LDR      r0,[pc,#684] ; [0x602c] = 0x55aa
        0x00005d7e:    49ac        .I      LDR      r1,[pc,#688] ; [0x6030] = 0x200005c8
        0x00005d80:    6008        .`      STR      r0,[r1,#0]
        0x00005d82:    e006        ..      B        0x5d92 ; Dwhp83CuMuDetect + 56
        0x00005d84:    48a7        .H      LDR      r0,[pc,#668] ; [0x6024] = 0x20000ae6
        0x00005d86:    7800        .x      LDRB     r0,[r0,#0]
        0x00005d88:    2855        U(      CMP      r0,#0x55
        0x00005d8a:    d102        ..      BNE      0x5d92 ; Dwhp83CuMuDetect + 56
        0x00005d8c:    48a9        .H      LDR      r0,[pc,#676] ; [0x6034] = 0xaa55
        0x00005d8e:    49a8        .I      LDR      r1,[pc,#672] ; [0x6030] = 0x200005c8
        0x00005d90:    6008        .`      STR      r0,[r1,#0]
        0x00005d92:    2001        .       MOVS     r0,#1
        0x00005d94:    e7ed        ..      B        0x5d72 ; Dwhp83CuMuDetect + 24
    dwph83Check
        0x00005d96:    b510        ..      PUSH     {r4,lr}
        0x00005d98:    48a4        .H      LDR      r0,[pc,#656] ; [0x602c] = 0x55aa
        0x00005d9a:    49a5        .I      LDR      r1,[pc,#660] ; [0x6030] = 0x200005c8
        0x00005d9c:    6008        .`      STR      r0,[r1,#0]
        0x00005d9e:    f7ffffdc    ....    BL       Dwhp83CuMuDetect ; 0x5d5a
        0x00005da2:    48a3        .H      LDR      r0,[pc,#652] ; [0x6030] = 0x200005c8
        0x00005da4:    6800        .h      LDR      r0,[r0,#0]
        0x00005da6:    49a1        .I      LDR      r1,[pc,#644] ; [0x602c] = 0x55aa
        0x00005da8:    4288        .B      CMP      r0,r1
        0x00005daa:    d10b        ..      BNE      0x5dc4 ; dwph83Check + 46
        0x00005dac:    f7ffff32    ..2.    BL       Dwhp83Slave ; 0x5c14
        0x00005db0:    2032        2       MOVS     r0,#0x32
        0x00005db2:    f7fcfa28    ..(.    BL       sysDelayMs ; 0x2206
        0x00005db6:    4ba0        .K      LDR      r3,[pc,#640] ; [0x6038] = 0x5d97
        0x00005db8:    2200        ."      MOVS     r2,#0
        0x00005dba:    49a0        .I      LDR      r1,[pc,#640] ; [0x603c] = 0x9c4
        0x00005dbc:    48a0        .H      LDR      r0,[pc,#640] ; [0x6040] = 0x200005fa
        0x00005dbe:    7800        .x      LDRB     r0,[r0,#0]
        0x00005dc0:    f7fcfb1a    ....    BL       startATask ; 0x23f8
        0x00005dc4:    bd10        ..      POP      {r4,pc}
    changetoWirelessSlave
        0x00005dc6:    b510        ..      PUSH     {r4,lr}
        0x00005dc8:    2000        .       MOVS     r0,#0
        0x00005dca:    499e        .I      LDR      r1,[pc,#632] ; [0x6044] = 0x200005cc
        0x00005dcc:    6008        .`      STR      r0,[r1,#0]
        0x00005dce:    2001        .       MOVS     r0,#1
        0x00005dd0:    499d        .I      LDR      r1,[pc,#628] ; [0x6048] = 0x20000566
        0x00005dd2:    7008        .p      STRB     r0,[r1,#0]
        0x00005dd4:    f000ff77    ..w.    BL       changeInputChannel ; 0x6cc6
        0x00005dd8:    4b97        .K      LDR      r3,[pc,#604] ; [0x6038] = 0x5d97
        0x00005dda:    2200        ."      MOVS     r2,#0
        0x00005ddc:    499b        .I      LDR      r1,[pc,#620] ; [0x604c] = 0xbb8
        0x00005dde:    4898        .H      LDR      r0,[pc,#608] ; [0x6040] = 0x200005fa
        0x00005de0:    7800        .x      LDRB     r0,[r0,#0]
        0x00005de2:    f7fcfb09    ....    BL       startATask ; 0x23f8
        0x00005de6:    bd10        ..      POP      {r4,pc}
    DWHP83RxtoTxMsg
        0x00005de8:    b510        ..      PUSH     {r4,lr}
        0x00005dea:    2002        .       MOVS     r0,#2
        0x00005dec:    498d        .I      LDR      r1,[pc,#564] ; [0x6024] = 0x20000ae6
        0x00005dee:    7008        .p      STRB     r0,[r1,#0]
        0x00005df0:    2000        .       MOVS     r0,#0
        0x00005df2:    7048        Hp      STRB     r0,[r1,#1]
        0x00005df4:    7088        .p      STRB     r0,[r1,#2]
        0x00005df6:    70c8        .p      STRB     r0,[r1,#3]
        0x00005df8:    2010        .       MOVS     r0,#0x10
        0x00005dfa:    7108        .q      STRB     r0,[r1,#4]
        0x00005dfc:    20cf        .       MOVS     r0,#0xcf
        0x00005dfe:    7148        Hq      STRB     r0,[r1,#5]
        0x00005e00:    2013        .       MOVS     r0,#0x13
        0x00005e02:    7188        .q      STRB     r0,[r1,#6]
        0x00005e04:    20aa        .       MOVS     r0,#0xaa
        0x00005e06:    71c8        .q      STRB     r0,[r1,#7]
        0x00005e08:    20bb        .       MOVS     r0,#0xbb
        0x00005e0a:    7208        .r      STRB     r0,[r1,#8]
        0x00005e0c:    4608        .F      MOV      r0,r1
        0x00005e0e:    7801        .x      LDRB     r1,[r0,#0]
        0x00005e10:    2208        ."      MOVS     r2,#8
        0x00005e12:    1c40        @.      ADDS     r0,r0,#1
        0x00005e14:    f7fffe55    ..U.    BL       writeDwhp83 ; 0x5ac2
        0x00005e18:    bd10        ..      POP      {r4,pc}
    RX_SB_alive
        0x00005e1a:    b510        ..      PUSH     {r4,lr}
        0x00005e1c:    2000        .       MOVS     r0,#0
        0x00005e1e:    4981        .I      LDR      r1,[pc,#516] ; [0x6024] = 0x20000ae6
        0x00005e20:    7008        .p      STRB     r0,[r1,#0]
        0x00005e22:    7048        Hp      STRB     r0,[r1,#1]
        0x00005e24:    7088        .p      STRB     r0,[r1,#2]
        0x00005e26:    70c8        .p      STRB     r0,[r1,#3]
        0x00005e28:    2010        .       MOVS     r0,#0x10
        0x00005e2a:    7108        .q      STRB     r0,[r1,#4]
        0x00005e2c:    2000        .       MOVS     r0,#0
        0x00005e2e:    7148        Hq      STRB     r0,[r1,#5]
        0x00005e30:    205a        Z       MOVS     r0,#0x5a
        0x00005e32:    7188        .q      STRB     r0,[r1,#6]
        0x00005e34:    71c8        .q      STRB     r0,[r1,#7]
        0x00005e36:    7208        .r      STRB     r0,[r1,#8]
        0x00005e38:    4608        .F      MOV      r0,r1
        0x00005e3a:    7801        .x      LDRB     r1,[r0,#0]
        0x00005e3c:    2208        ."      MOVS     r2,#8
        0x00005e3e:    1c40        @.      ADDS     r0,r0,#1
        0x00005e40:    f7fffe3f    ..?.    BL       writeDwhp83 ; 0x5ac2
        0x00005e44:    bd10        ..      POP      {r4,pc}
    TX_SB_alive
        0x00005e46:    b510        ..      PUSH     {r4,lr}
        0x00005e48:    2000        .       MOVS     r0,#0
        0x00005e4a:    4976        vI      LDR      r1,[pc,#472] ; [0x6024] = 0x20000ae6
        0x00005e4c:    7008        .p      STRB     r0,[r1,#0]
        0x00005e4e:    7048        Hp      STRB     r0,[r1,#1]
        0x00005e50:    7088        .p      STRB     r0,[r1,#2]
        0x00005e52:    70c8        .p      STRB     r0,[r1,#3]
        0x00005e54:    2010        .       MOVS     r0,#0x10
        0x00005e56:    7108        .q      STRB     r0,[r1,#4]
        0x00005e58:    2000        .       MOVS     r0,#0
        0x00005e5a:    7148        Hq      STRB     r0,[r1,#5]
        0x00005e5c:    20a5        .       MOVS     r0,#0xa5
        0x00005e5e:    7188        .q      STRB     r0,[r1,#6]
        0x00005e60:    71c8        .q      STRB     r0,[r1,#7]
        0x00005e62:    7208        .r      STRB     r0,[r1,#8]
        0x00005e64:    4608        .F      MOV      r0,r1
        0x00005e66:    7801        .x      LDRB     r1,[r0,#0]
        0x00005e68:    2208        ."      MOVS     r2,#8
        0x00005e6a:    1c40        @.      ADDS     r0,r0,#1
        0x00005e6c:    f7fffe29    ..).    BL       writeDwhp83 ; 0x5ac2
        0x00005e70:    bd10        ..      POP      {r4,pc}
    SB_volume_mute
        0x00005e72:    b510        ..      PUSH     {r4,lr}
        0x00005e74:    2000        .       MOVS     r0,#0
        0x00005e76:    496b        kI      LDR      r1,[pc,#428] ; [0x6024] = 0x20000ae6
        0x00005e78:    7008        .p      STRB     r0,[r1,#0]
        0x00005e7a:    7048        Hp      STRB     r0,[r1,#1]
        0x00005e7c:    7088        .p      STRB     r0,[r1,#2]
        0x00005e7e:    70c8        .p      STRB     r0,[r1,#3]
        0x00005e80:    2010        .       MOVS     r0,#0x10
        0x00005e82:    7108        .q      STRB     r0,[r1,#4]
        0x00005e84:    2000        .       MOVS     r0,#0
        0x00005e86:    7148        Hq      STRB     r0,[r1,#5]
        0x00005e88:    20ef        .       MOVS     r0,#0xef
        0x00005e8a:    7188        .q      STRB     r0,[r1,#6]
        0x00005e8c:    71c8        .q      STRB     r0,[r1,#7]
        0x00005e8e:    7208        .r      STRB     r0,[r1,#8]
        0x00005e90:    4608        .F      MOV      r0,r1
        0x00005e92:    7801        .x      LDRB     r1,[r0,#0]
        0x00005e94:    2208        ."      MOVS     r2,#8
        0x00005e96:    1c40        @.      ADDS     r0,r0,#1
        0x00005e98:    f7fffe13    ....    BL       writeDwhp83 ; 0x5ac2
        0x00005e9c:    bd10        ..      POP      {r4,pc}
    SUB_volume_mute
        0x00005e9e:    b510        ..      PUSH     {r4,lr}
        0x00005ea0:    2000        .       MOVS     r0,#0
        0x00005ea2:    4960        `I      LDR      r1,[pc,#384] ; [0x6024] = 0x20000ae6
        0x00005ea4:    7008        .p      STRB     r0,[r1,#0]
        0x00005ea6:    7048        Hp      STRB     r0,[r1,#1]
        0x00005ea8:    7088        .p      STRB     r0,[r1,#2]
        0x00005eaa:    70c8        .p      STRB     r0,[r1,#3]
        0x00005eac:    2010        .       MOVS     r0,#0x10
        0x00005eae:    7108        .q      STRB     r0,[r1,#4]
        0x00005eb0:    2000        .       MOVS     r0,#0
        0x00005eb2:    7148        Hq      STRB     r0,[r1,#5]
        0x00005eb4:    20fe        .       MOVS     r0,#0xfe
        0x00005eb6:    7188        .q      STRB     r0,[r1,#6]
        0x00005eb8:    71c8        .q      STRB     r0,[r1,#7]
        0x00005eba:    7208        .r      STRB     r0,[r1,#8]
        0x00005ebc:    4608        .F      MOV      r0,r1
        0x00005ebe:    7801        .x      LDRB     r1,[r0,#0]
        0x00005ec0:    2208        ."      MOVS     r2,#8
        0x00005ec2:    1c40        @.      ADDS     r0,r0,#1
        0x00005ec4:    f7fffdfd    ....    BL       writeDwhp83 ; 0x5ac2
        0x00005ec8:    bd10        ..      POP      {r4,pc}
    SUB_volume_unmute
        0x00005eca:    b510        ..      PUSH     {r4,lr}
        0x00005ecc:    2000        .       MOVS     r0,#0
        0x00005ece:    4955        UI      LDR      r1,[pc,#340] ; [0x6024] = 0x20000ae6
        0x00005ed0:    7008        .p      STRB     r0,[r1,#0]
        0x00005ed2:    7048        Hp      STRB     r0,[r1,#1]
        0x00005ed4:    7088        .p      STRB     r0,[r1,#2]
        0x00005ed6:    70c8        .p      STRB     r0,[r1,#3]
        0x00005ed8:    2010        .       MOVS     r0,#0x10
        0x00005eda:    7108        .q      STRB     r0,[r1,#4]
        0x00005edc:    2000        .       MOVS     r0,#0
        0x00005ede:    7148        Hq      STRB     r0,[r1,#5]
        0x00005ee0:    20dc        .       MOVS     r0,#0xdc
        0x00005ee2:    7188        .q      STRB     r0,[r1,#6]
        0x00005ee4:    71c8        .q      STRB     r0,[r1,#7]
        0x00005ee6:    7208        .r      STRB     r0,[r1,#8]
        0x00005ee8:    4608        .F      MOV      r0,r1
        0x00005eea:    7801        .x      LDRB     r1,[r0,#0]
        0x00005eec:    2208        ."      MOVS     r2,#8
        0x00005eee:    1c40        @.      ADDS     r0,r0,#1
        0x00005ef0:    f7fffde7    ....    BL       writeDwhp83 ; 0x5ac2
        0x00005ef4:    bd10        ..      POP      {r4,pc}
    SB_volume_unmute
        0x00005ef6:    b510        ..      PUSH     {r4,lr}
        0x00005ef8:    2000        .       MOVS     r0,#0
        0x00005efa:    494a        JI      LDR      r1,[pc,#296] ; [0x6024] = 0x20000ae6
        0x00005efc:    7008        .p      STRB     r0,[r1,#0]
        0x00005efe:    7048        Hp      STRB     r0,[r1,#1]
        0x00005f00:    7088        .p      STRB     r0,[r1,#2]
        0x00005f02:    70c8        .p      STRB     r0,[r1,#3]
        0x00005f04:    2010        .       MOVS     r0,#0x10
        0x00005f06:    7108        .q      STRB     r0,[r1,#4]
        0x00005f08:    2000        .       MOVS     r0,#0
        0x00005f0a:    7148        Hq      STRB     r0,[r1,#5]
        0x00005f0c:    20cd        .       MOVS     r0,#0xcd
        0x00005f0e:    7188        .q      STRB     r0,[r1,#6]
        0x00005f10:    71c8        .q      STRB     r0,[r1,#7]
        0x00005f12:    7208        .r      STRB     r0,[r1,#8]
        0x00005f14:    4608        .F      MOV      r0,r1
        0x00005f16:    7801        .x      LDRB     r1,[r0,#0]
        0x00005f18:    2208        ."      MOVS     r2,#8
        0x00005f1a:    1c40        @.      ADDS     r0,r0,#1
        0x00005f1c:    f7fffdd1    ....    BL       writeDwhp83 ; 0x5ac2
        0x00005f20:    bd10        ..      POP      {r4,pc}
    change_to_local_coco
        0x00005f22:    b510        ..      PUSH     {r4,lr}
        0x00005f24:    2000        .       MOVS     r0,#0
        0x00005f26:    493f        ?I      LDR      r1,[pc,#252] ; [0x6024] = 0x20000ae6
        0x00005f28:    7008        .p      STRB     r0,[r1,#0]
        0x00005f2a:    7048        Hp      STRB     r0,[r1,#1]
        0x00005f2c:    7088        .p      STRB     r0,[r1,#2]
        0x00005f2e:    70c8        .p      STRB     r0,[r1,#3]
        0x00005f30:    2010        .       MOVS     r0,#0x10
        0x00005f32:    7108        .q      STRB     r0,[r1,#4]
        0x00005f34:    2000        .       MOVS     r0,#0
        0x00005f36:    7148        Hq      STRB     r0,[r1,#5]
        0x00005f38:    2022        "       MOVS     r0,#0x22
        0x00005f3a:    7188        .q      STRB     r0,[r1,#6]
        0x00005f3c:    71c8        .q      STRB     r0,[r1,#7]
        0x00005f3e:    7208        .r      STRB     r0,[r1,#8]
        0x00005f40:    4608        .F      MOV      r0,r1
        0x00005f42:    7801        .x      LDRB     r1,[r0,#0]
        0x00005f44:    2208        ."      MOVS     r2,#8
        0x00005f46:    1c40        @.      ADDS     r0,r0,#1
        0x00005f48:    f7fffdbb    ....    BL       writeDwhp83 ; 0x5ac2
        0x00005f4c:    bd10        ..      POP      {r4,pc}
    DWHP83toEXT_MCU
        0x00005f4e:    b510        ..      PUSH     {r4,lr}
        0x00005f50:    2000        .       MOVS     r0,#0
        0x00005f52:    4934        4I      LDR      r1,[pc,#208] ; [0x6024] = 0x20000ae6
        0x00005f54:    7008        .p      STRB     r0,[r1,#0]
        0x00005f56:    7048        Hp      STRB     r0,[r1,#1]
        0x00005f58:    7088        .p      STRB     r0,[r1,#2]
        0x00005f5a:    70c8        .p      STRB     r0,[r1,#3]
        0x00005f5c:    2010        .       MOVS     r0,#0x10
        0x00005f5e:    7108        .q      STRB     r0,[r1,#4]
        0x00005f60:    2000        .       MOVS     r0,#0
        0x00005f62:    7148        Hq      STRB     r0,[r1,#5]
        0x00005f64:    2055        U       MOVS     r0,#0x55
        0x00005f66:    7188        .q      STRB     r0,[r1,#6]
        0x00005f68:    71c8        .q      STRB     r0,[r1,#7]
        0x00005f6a:    7208        .r      STRB     r0,[r1,#8]
        0x00005f6c:    4608        .F      MOV      r0,r1
        0x00005f6e:    7801        .x      LDRB     r1,[r0,#0]
        0x00005f70:    2208        ."      MOVS     r2,#8
        0x00005f72:    1c40        @.      ADDS     r0,r0,#1
        0x00005f74:    f7fffda5    ....    BL       writeDwhp83 ; 0x5ac2
        0x00005f78:    bd10        ..      POP      {r4,pc}
    MU_tell_CU_change
        0x00005f7a:    b510        ..      PUSH     {r4,lr}
        0x00005f7c:    a034        4.      ADR      r0,{pc}+0xd4 ; 0x6050
        0x00005f7e:    f7fbfd91    ....    BL       iputs ; 0x1aa4
        0x00005f82:    2000        .       MOVS     r0,#0
        0x00005f84:    4927        'I      LDR      r1,[pc,#156] ; [0x6024] = 0x20000ae6
        0x00005f86:    7008        .p      STRB     r0,[r1,#0]
        0x00005f88:    7048        Hp      STRB     r0,[r1,#1]
        0x00005f8a:    7088        .p      STRB     r0,[r1,#2]
        0x00005f8c:    70c8        .p      STRB     r0,[r1,#3]
        0x00005f8e:    2010        .       MOVS     r0,#0x10
        0x00005f90:    7108        .q      STRB     r0,[r1,#4]
        0x00005f92:    2000        .       MOVS     r0,#0
        0x00005f94:    7148        Hq      STRB     r0,[r1,#5]
        0x00005f96:    2077        w       MOVS     r0,#0x77
        0x00005f98:    7188        .q      STRB     r0,[r1,#6]
        0x00005f9a:    71c8        .q      STRB     r0,[r1,#7]
        0x00005f9c:    7208        .r      STRB     r0,[r1,#8]
        0x00005f9e:    4608        .F      MOV      r0,r1
        0x00005fa0:    7801        .x      LDRB     r1,[r0,#0]
        0x00005fa2:    2208        ."      MOVS     r2,#8
        0x00005fa4:    1c40        @.      ADDS     r0,r0,#1
        0x00005fa6:    f7fffd8c    ....    BL       writeDwhp83 ; 0x5ac2
        0x00005faa:    bd10        ..      POP      {r4,pc}
    set_local_coco
        0x00005fac:    b508        ..      PUSH     {r3,lr}
        0x00005fae:    a02f        /.      ADR      r0,{pc}+0xbe ; 0x606c
        0x00005fb0:    6800        .h      LDR      r0,[r0,#0]
        0x00005fb2:    9000        ..      STR      r0,[sp,#0]
        0x00005fb4:    482e        .H      LDR      r0,[pc,#184] ; [0x6070] = 0x200005c4
        0x00005fb6:    7801        .x      LDRB     r1,[r0,#0]
        0x00005fb8:    4668        hF      MOV      r0,sp
        0x00005fba:    7001        .p      STRB     r1,[r0,#0]
        0x00005fbc:    482c        ,H      LDR      r0,[pc,#176] ; [0x6070] = 0x200005c4
        0x00005fbe:    7801        .x      LDRB     r1,[r0,#0]
        0x00005fc0:    4668        hF      MOV      r0,sp
        0x00005fc2:    7041        Ap      STRB     r1,[r0,#1]
        0x00005fc4:    482a        *H      LDR      r0,[pc,#168] ; [0x6070] = 0x200005c4
        0x00005fc6:    7801        .x      LDRB     r1,[r0,#0]
        0x00005fc8:    4668        hF      MOV      r0,sp
        0x00005fca:    7081        .p      STRB     r1,[r0,#2]
        0x00005fcc:    2203        ."      MOVS     r2,#3
        0x00005fce:    21c6        .!      MOVS     r1,#0xc6
        0x00005fd0:    f7fffd77    ..w.    BL       writeDwhp83 ; 0x5ac2
        0x00005fd4:    2014        .       MOVS     r0,#0x14
        0x00005fd6:    f7fcf916    ....    BL       sysDelayMs ; 0x2206
        0x00005fda:    bd08        ..      POP      {r3,pc}
    set_soundbar_coco
        0x00005fdc:    b508        ..      PUSH     {r3,lr}
        0x00005fde:    a025        %.      ADR      r0,{pc}+0x96 ; 0x6074
        0x00005fe0:    6800        .h      LDR      r0,[r0,#0]
        0x00005fe2:    9000        ..      STR      r0,[sp,#0]
        0x00005fe4:    4822        "H      LDR      r0,[pc,#136] ; [0x6070] = 0x200005c4
        0x00005fe6:    7800        .x      LDRB     r0,[r0,#0]
        0x00005fe8:    1d00        ..      ADDS     r0,r0,#4
        0x00005fea:    b2c1        ..      UXTB     r1,r0
        0x00005fec:    4668        hF      MOV      r0,sp
        0x00005fee:    7001        .p      STRB     r1,[r0,#0]
        0x00005ff0:    481f        .H      LDR      r0,[pc,#124] ; [0x6070] = 0x200005c4
        0x00005ff2:    7800        .x      LDRB     r0,[r0,#0]
        0x00005ff4:    1d00        ..      ADDS     r0,r0,#4
        0x00005ff6:    b2c1        ..      UXTB     r1,r0
        0x00005ff8:    4668        hF      MOV      r0,sp
        0x00005ffa:    7041        Ap      STRB     r1,[r0,#1]
        0x00005ffc:    481c        .H      LDR      r0,[pc,#112] ; [0x6070] = 0x200005c4
        0x00005ffe:    7800        .x      LDRB     r0,[r0,#0]
        0x00006000:    1d00        ..      ADDS     r0,r0,#4
        0x00006002:    b2c1        ..      UXTB     r1,r0
        0x00006004:    4668        hF      MOV      r0,sp
        0x00006006:    7081        .p      STRB     r1,[r0,#2]
        0x00006008:    2203        ."      MOVS     r2,#3
        0x0000600a:    21c6        .!      MOVS     r1,#0xc6
        0x0000600c:    f7fffd59    ..Y.    BL       writeDwhp83 ; 0x5ac2
        0x00006010:    2014        .       MOVS     r0,#0x14
        0x00006012:    f7fcf8f8    ....    BL       sysDelayMs ; 0x2206
        0x00006016:    bd08        ..      POP      {r3,pc}
    $d
        0x00006018:    20000b46    F..     DCD    536873798
        0x0000601c:    00006edc    .n..    DCD    28380
        0x00006020:    200005c1    ...     DCD    536872385
        0x00006024:    20000ae6    ...     DCD    536873702
        0x00006028:    200005c0    ...     DCD    536872384
        0x0000602c:    000055aa    .U..    DCD    21930
        0x00006030:    200005c8    ...     DCD    536872392
        0x00006034:    0000aa55    U...    DCD    43605
        0x00006038:    00005d97    .]..    DCD    23959
        0x0000603c:    000009c4    ....    DCD    2500
        0x00006040:    200005fa    ...     DCD    536872442
        0x00006044:    200005cc    ...     DCD    536872396
        0x00006048:    20000566    f..     DCD    536872294
        0x0000604c:    00000bb8    ....    DCD    3000
        0x00006050:    4d200a0d    .. M    DCD    1293945357
        0x00006054:    65745f55    U_te    DCD    1702125397
        0x00006058:    435f6c6c    ll_C    DCD    1130327148
        0x0000605c:    68635f55    U_ch    DCD    1751342933
        0x00006060:    65676e61    ange    DCD    1701277281
        0x00006064:    31302d2d    --01    DCD    825240877
        0x00006068:    000a0d2e    ....    DCD    658734
        0x0000606c:    00010101    ....    DCD    65793
        0x00006070:    200005c4    ...     DCD    536872388
        0x00006074:    00050505    ....    DCD    328965
    $t
    DWHP83toSUB
        0x00006078:    b510        ..      PUSH     {r4,lr}
        0x0000607a:    2000        .       MOVS     r0,#0
        0x0000607c:    49f9        .I      LDR      r1,[pc,#996] ; [0x6464] = 0x20000ae6
        0x0000607e:    7008        .p      STRB     r0,[r1,#0]
        0x00006080:    7048        Hp      STRB     r0,[r1,#1]
        0x00006082:    7088        .p      STRB     r0,[r1,#2]
        0x00006084:    70c8        .p      STRB     r0,[r1,#3]
        0x00006086:    2010        .       MOVS     r0,#0x10
        0x00006088:    7108        .q      STRB     r0,[r1,#4]
        0x0000608a:    2000        .       MOVS     r0,#0
        0x0000608c:    7148        Hq      STRB     r0,[r1,#5]
        0x0000608e:    2066        f       MOVS     r0,#0x66
        0x00006090:    7188        .q      STRB     r0,[r1,#6]
        0x00006092:    71c8        .q      STRB     r0,[r1,#7]
        0x00006094:    7208        .r      STRB     r0,[r1,#8]
        0x00006096:    4608        .F      MOV      r0,r1
        0x00006098:    7801        .x      LDRB     r1,[r0,#0]
        0x0000609a:    2208        ."      MOVS     r2,#8
        0x0000609c:    1c40        @.      ADDS     r0,r0,#1
        0x0000609e:    f7fffd10    ....    BL       writeDwhp83 ; 0x5ac2
        0x000060a2:    bd10        ..      POP      {r4,pc}
    DWHP83SendCmd
        0x000060a4:    b570        p.      PUSH     {r4-r6,lr}
        0x000060a6:    4604        .F      MOV      r4,r0
        0x000060a8:    460d        .F      MOV      r5,r1
        0x000060aa:    4616        .F      MOV      r6,r2
        0x000060ac:    a1ee        ..      ADR      r1,{pc}+0x3bc ; 0x6468
        0x000060ae:    4620         F      MOV      r0,r4
        0x000060b0:    f7fbff86    ....    BL       uartdecode ; 0x1fc0
        0x000060b4:    2002        .       MOVS     r0,#2
        0x000060b6:    49f0        .I      LDR      r1,[pc,#960] ; [0x6478] = 0x20000b6a
        0x000060b8:    7008        .p      STRB     r0,[r1,#0]
        0x000060ba:    2000        .       MOVS     r0,#0
        0x000060bc:    7048        Hp      STRB     r0,[r1,#1]
        0x000060be:    7088        .p      STRB     r0,[r1,#2]
        0x000060c0:    70c8        .p      STRB     r0,[r1,#3]
        0x000060c2:    2010        .       MOVS     r0,#0x10
        0x000060c4:    7108        .q      STRB     r0,[r1,#4]
        0x000060c6:    21cf        .!      MOVS     r1,#0xcf
        0x000060c8:    48eb        .H      LDR      r0,[pc,#940] ; [0x6478] = 0x20000b6a
        0x000060ca:    7141        Aq      STRB     r1,[r0,#5]
        0x000060cc:    2113        .!      MOVS     r1,#0x13
        0x000060ce:    7181        .q      STRB     r1,[r0,#6]
        0x000060d0:    48ea        .H      LDR      r0,[pc,#936] ; [0x647c] = 0x200005d8
        0x000060d2:    8800        ..      LDRH     r0,[r0,#0]
        0x000060d4:    1c40        @.      ADDS     r0,r0,#1
        0x000060d6:    b281        ..      UXTH     r1,r0
        0x000060d8:    48e8        .H      LDR      r0,[pc,#928] ; [0x647c] = 0x200005d8
        0x000060da:    8001        ..      STRH     r1,[r0,#0]
        0x000060dc:    48e6        .H      LDR      r0,[pc,#920] ; [0x6478] = 0x20000b6a
        0x000060de:    7241        Ar      STRB     r1,[r0,#9]
        0x000060e0:    0a09        ..      LSRS     r1,r1,#8
        0x000060e2:    7281        .r      STRB     r1,[r0,#0xa]
        0x000060e4:    71c6        .q      STRB     r6,[r0,#7]
        0x000060e6:    0a31        1.      LSRS     r1,r6,#8
        0x000060e8:    7201        .r      STRB     r1,[r0,#8]
        0x000060ea:    72c4        .r      STRB     r4,[r0,#0xb]
        0x000060ec:    7305        .s      STRB     r5,[r0,#0xc]
        0x000060ee:    48e4        .H      LDR      r0,[pc,#912] ; [0x6480] = 0x20000b81
        0x000060f0:    7981        .y      LDRB     r1,[r0,#6]
        0x000060f2:    48e1        .H      LDR      r0,[pc,#900] ; [0x6478] = 0x20000b6a
        0x000060f4:    7341        As      STRB     r1,[r0,#0xd]
        0x000060f6:    49e3        .I      LDR      r1,[pc,#908] ; [0x6484] = 0x200005e4
        0x000060f8:    6008        .`      STR      r0,[r1,#0]
        0x000060fa:    4608        .F      MOV      r0,r1
        0x000060fc:    6800        .h      LDR      r0,[r0,#0]
        0x000060fe:    1dc0        ..      ADDS     r0,r0,#7
        0x00006100:    6008        .`      STR      r0,[r1,#0]
        0x00006102:    2100        .!      MOVS     r1,#0
        0x00006104:    48dc        .H      LDR      r0,[pc,#880] ; [0x6478] = 0x20000b6a
        0x00006106:    7381        .s      STRB     r1,[r0,#0xe]
        0x00006108:    48de        .H      LDR      r0,[pc,#888] ; [0x6484] = 0x200005e4
        0x0000610a:    6800        .h      LDR      r0,[r0,#0]
        0x0000610c:    7800        .x      LDRB     r0,[r0,#0]
        0x0000610e:    49dd        .I      LDR      r1,[pc,#884] ; [0x6484] = 0x200005e4
        0x00006110:    6809        .h      LDR      r1,[r1,#0]
        0x00006112:    7849        Ix      LDRB     r1,[r1,#1]
        0x00006114:    1840        @.      ADDS     r0,r0,r1
        0x00006116:    49db        .I      LDR      r1,[pc,#876] ; [0x6484] = 0x200005e4
        0x00006118:    6809        .h      LDR      r1,[r1,#0]
        0x0000611a:    7889        .x      LDRB     r1,[r1,#2]
        0x0000611c:    1840        @.      ADDS     r0,r0,r1
        0x0000611e:    49d9        .I      LDR      r1,[pc,#868] ; [0x6484] = 0x200005e4
        0x00006120:    6809        .h      LDR      r1,[r1,#0]
        0x00006122:    78c9        .x      LDRB     r1,[r1,#3]
        0x00006124:    1840        @.      ADDS     r0,r0,r1
        0x00006126:    49d7        .I      LDR      r1,[pc,#860] ; [0x6484] = 0x200005e4
        0x00006128:    6809        .h      LDR      r1,[r1,#0]
        0x0000612a:    7909        .y      LDRB     r1,[r1,#4]
        0x0000612c:    1840        @.      ADDS     r0,r0,r1
        0x0000612e:    49d5        .I      LDR      r1,[pc,#852] ; [0x6484] = 0x200005e4
        0x00006130:    6809        .h      LDR      r1,[r1,#0]
        0x00006132:    7949        Iy      LDRB     r1,[r1,#5]
        0x00006134:    1840        @.      ADDS     r0,r0,r1
        0x00006136:    49d3        .I      LDR      r1,[pc,#844] ; [0x6484] = 0x200005e4
        0x00006138:    6809        .h      LDR      r1,[r1,#0]
        0x0000613a:    7989        .y      LDRB     r1,[r1,#6]
        0x0000613c:    1840        @.      ADDS     r0,r0,r1
        0x0000613e:    49d1        .I      LDR      r1,[pc,#836] ; [0x6484] = 0x200005e4
        0x00006140:    6809        .h      LDR      r1,[r1,#0]
        0x00006142:    79c9        .y      LDRB     r1,[r1,#7]
        0x00006144:    1840        @.      ADDS     r0,r0,r1
        0x00006146:    b2c1        ..      UXTB     r1,r0
        0x00006148:    48cb        .H      LDR      r0,[pc,#812] ; [0x6478] = 0x20000b6a
        0x0000614a:    7381        .s      STRB     r1,[r0,#0xe]
        0x0000614c:    7801        .x      LDRB     r1,[r0,#0]
        0x0000614e:    220f        ."      MOVS     r2,#0xf
        0x00006150:    1c40        @.      ADDS     r0,r0,#1
        0x00006152:    f7fffcb6    ....    BL       writeDwhp83 ; 0x5ac2
        0x00006156:    48cc        .H      LDR      r0,[pc,#816] ; [0x6488] = 0x200005b5
        0x00006158:    7800        .x      LDRB     r0,[r0,#0]
        0x0000615a:    2801        .(      CMP      r0,#1
        0x0000615c:    da0b        ..      BGE      0x6176 ; DWHP83SendCmd + 210
        0x0000615e:    a0cb        ..      ADR      r0,{pc}+0x32e ; 0x648c
        0x00006160:    f7fbfca0    ....    BL       iputs ; 0x1aa4
        0x00006164:    220f        ."      MOVS     r2,#0xf
        0x00006166:    49c4        .I      LDR      r1,[pc,#784] ; [0x6478] = 0x20000b6a
        0x00006168:    1c49        I.      ADDS     r1,r1,#1
        0x0000616a:    48cc        .H      LDR      r0,[pc,#816] ; [0x649c] = 0x20000ac5
        0x0000616c:    f000fe4c    ..L.    BL       __aeabi_memcpy ; 0x6e08
        0x00006170:    2001        .       MOVS     r0,#1
        0x00006172:    49c5        .I      LDR      r1,[pc,#788] ; [0x6488] = 0x200005b5
        0x00006174:    7008        .p      STRB     r0,[r1,#0]
        0x00006176:    f7fffc55    ..U.    BL       exitGpioI2c ; 0x5a24
        0x0000617a:    bd70        p.      POP      {r4-r6,pc}
    DWHP83SendCmd2
        0x0000617c:    b5f8        ..      PUSH     {r3-r7,lr}
        0x0000617e:    4604        .F      MOV      r4,r0
        0x00006180:    460d        .F      MOV      r5,r1
        0x00006182:    4616        .F      MOV      r6,r2
        0x00006184:    461f        .F      MOV      r7,r3
        0x00006186:    a1b8        ..      ADR      r1,{pc}+0x2e2 ; 0x6468
        0x00006188:    4620         F      MOV      r0,r4
        0x0000618a:    f7fbff19    ....    BL       uartdecode ; 0x1fc0
        0x0000618e:    2002        .       MOVS     r0,#2
        0x00006190:    49b9        .I      LDR      r1,[pc,#740] ; [0x6478] = 0x20000b6a
        0x00006192:    7008        .p      STRB     r0,[r1,#0]
        0x00006194:    2000        .       MOVS     r0,#0
        0x00006196:    7048        Hp      STRB     r0,[r1,#1]
        0x00006198:    7088        .p      STRB     r0,[r1,#2]
        0x0000619a:    70c8        .p      STRB     r0,[r1,#3]
        0x0000619c:    2010        .       MOVS     r0,#0x10
        0x0000619e:    7108        .q      STRB     r0,[r1,#4]
        0x000061a0:    21cf        .!      MOVS     r1,#0xcf
        0x000061a2:    48b5        .H      LDR      r0,[pc,#724] ; [0x6478] = 0x20000b6a
        0x000061a4:    7141        Aq      STRB     r1,[r0,#5]
        0x000061a6:    2113        .!      MOVS     r1,#0x13
        0x000061a8:    7181        .q      STRB     r1,[r0,#6]
        0x000061aa:    48b4        .H      LDR      r0,[pc,#720] ; [0x647c] = 0x200005d8
        0x000061ac:    8800        ..      LDRH     r0,[r0,#0]
        0x000061ae:    1c40        @.      ADDS     r0,r0,#1
        0x000061b0:    b281        ..      UXTH     r1,r0
        0x000061b2:    48b2        .H      LDR      r0,[pc,#712] ; [0x647c] = 0x200005d8
        0x000061b4:    8001        ..      STRH     r1,[r0,#0]
        0x000061b6:    48b0        .H      LDR      r0,[pc,#704] ; [0x6478] = 0x20000b6a
        0x000061b8:    7241        Ar      STRB     r1,[r0,#9]
        0x000061ba:    0a09        ..      LSRS     r1,r1,#8
        0x000061bc:    7281        .r      STRB     r1,[r0,#0xa]
        0x000061be:    71c6        .q      STRB     r6,[r0,#7]
        0x000061c0:    0a31        1.      LSRS     r1,r6,#8
        0x000061c2:    7201        .r      STRB     r1,[r0,#8]
        0x000061c4:    72c4        .r      STRB     r4,[r0,#0xb]
        0x000061c6:    7305        .s      STRB     r5,[r0,#0xc]
        0x000061c8:    48ad        .H      LDR      r0,[pc,#692] ; [0x6480] = 0x20000b81
        0x000061ca:    7981        .y      LDRB     r1,[r0,#6]
        0x000061cc:    48aa        .H      LDR      r0,[pc,#680] ; [0x6478] = 0x20000b6a
        0x000061ce:    7341        As      STRB     r1,[r0,#0xd]
        0x000061d0:    49b3        .I      LDR      r1,[pc,#716] ; [0x64a0] = 0x200005e8
        0x000061d2:    6008        .`      STR      r0,[r1,#0]
        0x000061d4:    4608        .F      MOV      r0,r1
        0x000061d6:    6800        .h      LDR      r0,[r0,#0]
        0x000061d8:    1dc0        ..      ADDS     r0,r0,#7
        0x000061da:    6008        .`      STR      r0,[r1,#0]
        0x000061dc:    2100        .!      MOVS     r1,#0
        0x000061de:    48a6        .H      LDR      r0,[pc,#664] ; [0x6478] = 0x20000b6a
        0x000061e0:    7381        .s      STRB     r1,[r0,#0xe]
        0x000061e2:    48af        .H      LDR      r0,[pc,#700] ; [0x64a0] = 0x200005e8
        0x000061e4:    6800        .h      LDR      r0,[r0,#0]
        0x000061e6:    7800        .x      LDRB     r0,[r0,#0]
        0x000061e8:    49ad        .I      LDR      r1,[pc,#692] ; [0x64a0] = 0x200005e8
        0x000061ea:    6809        .h      LDR      r1,[r1,#0]
        0x000061ec:    7849        Ix      LDRB     r1,[r1,#1]
        0x000061ee:    1840        @.      ADDS     r0,r0,r1
        0x000061f0:    49ab        .I      LDR      r1,[pc,#684] ; [0x64a0] = 0x200005e8
        0x000061f2:    6809        .h      LDR      r1,[r1,#0]
        0x000061f4:    7889        .x      LDRB     r1,[r1,#2]
        0x000061f6:    1840        @.      ADDS     r0,r0,r1
        0x000061f8:    49a9        .I      LDR      r1,[pc,#676] ; [0x64a0] = 0x200005e8
        0x000061fa:    6809        .h      LDR      r1,[r1,#0]
        0x000061fc:    78c9        .x      LDRB     r1,[r1,#3]
        0x000061fe:    1840        @.      ADDS     r0,r0,r1
        0x00006200:    49a7        .I      LDR      r1,[pc,#668] ; [0x64a0] = 0x200005e8
        0x00006202:    6809        .h      LDR      r1,[r1,#0]
        0x00006204:    7909        .y      LDRB     r1,[r1,#4]
        0x00006206:    1840        @.      ADDS     r0,r0,r1
        0x00006208:    49a5        .I      LDR      r1,[pc,#660] ; [0x64a0] = 0x200005e8
        0x0000620a:    6809        .h      LDR      r1,[r1,#0]
        0x0000620c:    7949        Iy      LDRB     r1,[r1,#5]
        0x0000620e:    1840        @.      ADDS     r0,r0,r1
        0x00006210:    49a3        .I      LDR      r1,[pc,#652] ; [0x64a0] = 0x200005e8
        0x00006212:    6809        .h      LDR      r1,[r1,#0]
        0x00006214:    7989        .y      LDRB     r1,[r1,#6]
        0x00006216:    1840        @.      ADDS     r0,r0,r1
        0x00006218:    49a1        .I      LDR      r1,[pc,#644] ; [0x64a0] = 0x200005e8
        0x0000621a:    6809        .h      LDR      r1,[r1,#0]
        0x0000621c:    79c9        .y      LDRB     r1,[r1,#7]
        0x0000621e:    1840        @.      ADDS     r0,r0,r1
        0x00006220:    b2c1        ..      UXTB     r1,r0
        0x00006222:    4895        .H      LDR      r0,[pc,#596] ; [0x6478] = 0x20000b6a
        0x00006224:    7381        .s      STRB     r1,[r0,#0xe]
        0x00006226:    7801        .x      LDRB     r1,[r0,#0]
        0x00006228:    220f        ."      MOVS     r2,#0xf
        0x0000622a:    1c40        @.      ADDS     r0,r0,#1
        0x0000622c:    f7fffc49    ..I.    BL       writeDwhp83 ; 0x5ac2
        0x00006230:    4891        .H      LDR      r0,[pc,#580] ; [0x6478] = 0x20000b6a
        0x00006232:    73c7        .s      STRB     r7,[r0,#0xf]
        0x00006234:    4894        .H      LDR      r0,[pc,#592] ; [0x6488] = 0x200005b5
        0x00006236:    7800        .x      LDRB     r0,[r0,#0]
        0x00006238:    2801        .(      CMP      r0,#1
        0x0000623a:    da0b        ..      BGE      0x6254 ; DWHP83SendCmd2 + 216
        0x0000623c:    a093        ..      ADR      r0,{pc}+0x250 ; 0x648c
        0x0000623e:    f7fbfc31    ..1.    BL       iputs ; 0x1aa4
        0x00006242:    220f        ."      MOVS     r2,#0xf
        0x00006244:    498c        .I      LDR      r1,[pc,#560] ; [0x6478] = 0x20000b6a
        0x00006246:    1c49        I.      ADDS     r1,r1,#1
        0x00006248:    4894        .H      LDR      r0,[pc,#592] ; [0x649c] = 0x20000ac5
        0x0000624a:    f000fddd    ....    BL       __aeabi_memcpy ; 0x6e08
        0x0000624e:    2001        .       MOVS     r0,#1
        0x00006250:    498d        .I      LDR      r1,[pc,#564] ; [0x6488] = 0x200005b5
        0x00006252:    7008        .p      STRB     r0,[r1,#0]
        0x00006254:    f7fffbe6    ....    BL       exitGpioI2c ; 0x5a24
        0x00006258:    bdf8        ..      POP      {r3-r7,pc}
    DWPH83VolumeChange
        0x0000625a:    b5f8        ..      PUSH     {r3-r7,lr}
        0x0000625c:    4605        .F      MOV      r5,r0
        0x0000625e:    460e        .F      MOV      r6,r1
        0x00006260:    4617        .F      MOV      r7,r2
        0x00006262:    2002        .       MOVS     r0,#2
        0x00006264:    4984        .I      LDR      r1,[pc,#528] ; [0x6478] = 0x20000b6a
        0x00006266:    7008        .p      STRB     r0,[r1,#0]
        0x00006268:    2000        .       MOVS     r0,#0
        0x0000626a:    7048        Hp      STRB     r0,[r1,#1]
        0x0000626c:    7088        .p      STRB     r0,[r1,#2]
        0x0000626e:    70c8        .p      STRB     r0,[r1,#3]
        0x00006270:    2010        .       MOVS     r0,#0x10
        0x00006272:    7108        .q      STRB     r0,[r1,#4]
        0x00006274:    21cf        .!      MOVS     r1,#0xcf
        0x00006276:    4880        .H      LDR      r0,[pc,#512] ; [0x6478] = 0x20000b6a
        0x00006278:    7141        Aq      STRB     r1,[r0,#5]
        0x0000627a:    2113        .!      MOVS     r1,#0x13
        0x0000627c:    7181        .q      STRB     r1,[r0,#6]
        0x0000627e:    487f        .H      LDR      r0,[pc,#508] ; [0x647c] = 0x200005d8
        0x00006280:    8800        ..      LDRH     r0,[r0,#0]
        0x00006282:    1c40        @.      ADDS     r0,r0,#1
        0x00006284:    b281        ..      UXTH     r1,r0
        0x00006286:    487d        }H      LDR      r0,[pc,#500] ; [0x647c] = 0x200005d8
        0x00006288:    8001        ..      STRH     r1,[r0,#0]
        0x0000628a:    487b        {H      LDR      r0,[pc,#492] ; [0x6478] = 0x20000b6a
        0x0000628c:    7241        Ar      STRB     r1,[r0,#9]
        0x0000628e:    0a09        ..      LSRS     r1,r1,#8
        0x00006290:    7281        .r      STRB     r1,[r0,#0xa]
        0x00006292:    71c7        .q      STRB     r7,[r0,#7]
        0x00006294:    0a39        9.      LSRS     r1,r7,#8
        0x00006296:    7201        .r      STRB     r1,[r0,#8]
        0x00006298:    2004        .       MOVS     r0,#4
        0x0000629a:    4977        wI      LDR      r1,[pc,#476] ; [0x6478] = 0x20000b6a
        0x0000629c:    72c8        .r      STRB     r0,[r1,#0xb]
        0x0000629e:    4608        .F      MOV      r0,r1
        0x000062a0:    7305        .s      STRB     r5,[r0,#0xc]
        0x000062a2:    7346        Fs      STRB     r6,[r0,#0xd]
        0x000062a4:    4604        .F      MOV      r4,r0
        0x000062a6:    1de4        ..      ADDS     r4,r4,#7
        0x000062a8:    2100        .!      MOVS     r1,#0
        0x000062aa:    7381        .s      STRB     r1,[r0,#0xe]
        0x000062ac:    7820         x      LDRB     r0,[r4,#0]
        0x000062ae:    7861        ax      LDRB     r1,[r4,#1]
        0x000062b0:    1840        @.      ADDS     r0,r0,r1
        0x000062b2:    78a1        .x      LDRB     r1,[r4,#2]
        0x000062b4:    1840        @.      ADDS     r0,r0,r1
        0x000062b6:    78e1        .x      LDRB     r1,[r4,#3]
        0x000062b8:    1840        @.      ADDS     r0,r0,r1
        0x000062ba:    7921        !y      LDRB     r1,[r4,#4]
        0x000062bc:    1840        @.      ADDS     r0,r0,r1
        0x000062be:    7961        ay      LDRB     r1,[r4,#5]
        0x000062c0:    1840        @.      ADDS     r0,r0,r1
        0x000062c2:    79a1        .y      LDRB     r1,[r4,#6]
        0x000062c4:    1840        @.      ADDS     r0,r0,r1
        0x000062c6:    79e1        .y      LDRB     r1,[r4,#7]
        0x000062c8:    1840        @.      ADDS     r0,r0,r1
        0x000062ca:    b2c1        ..      UXTB     r1,r0
        0x000062cc:    1fe0        ..      SUBS     r0,r4,#7
        0x000062ce:    7381        .s      STRB     r1,[r0,#0xe]
        0x000062d0:    7801        .x      LDRB     r1,[r0,#0]
        0x000062d2:    220f        ."      MOVS     r2,#0xf
        0x000062d4:    1c40        @.      ADDS     r0,r0,#1
        0x000062d6:    f7fffbf4    ....    BL       writeDwhp83 ; 0x5ac2
        0x000062da:    f7fffba3    ....    BL       exitGpioI2c ; 0x5a24
        0x000062de:    bdf8        ..      POP      {r3-r7,pc}
    DWP83CuCV
        0x000062e0:    b570        p.      PUSH     {r4-r6,lr}
        0x000062e2:    4870        pH      LDR      r0,[pc,#448] ; [0x64a4] = 0x200005d0
        0x000062e4:    7800        .x      LDRB     r0,[r0,#0]
        0x000062e6:    28a0        .(      CMP      r0,#0xa0
        0x000062e8:    d100        ..      BNE      0x62ec ; DWP83CuCV + 12
        0x000062ea:    bd70        p.      POP      {r4-r6,pc}
        0x000062ec:    2001        .       MOVS     r0,#1
        0x000062ee:    496e        nI      LDR      r1,[pc,#440] ; [0x64a8] = 0x200005dc
        0x000062f0:    6008        .`      STR      r0,[r1,#0]
        0x000062f2:    2400        .$      MOVS     r4,#0
        0x000062f4:    e01f        ..      B        0x6336 ; DWP83CuCV + 86
        0x000062f6:    0061        a.      LSLS     r1,r4,#1
        0x000062f8:    486c        lH      LDR      r0,[pc,#432] ; [0x64ac] = 0x20000b22
        0x000062fa:    5a40        @Z      LDRH     r0,[r0,r1]
        0x000062fc:    2800        .(      CMP      r0,#0
        0x000062fe:    d019        ..      BEQ      0x6334 ; DWP83CuCV + 84
        0x00006300:    486a        jH      LDR      r0,[pc,#424] ; [0x64ac] = 0x20000b22
        0x00006302:    3030        00      ADDS     r0,r0,#0x30
        0x00006304:    5d00        .]      LDRB     r0,[r0,r4]
        0x00006306:    4967        gI      LDR      r1,[pc,#412] ; [0x64a4] = 0x200005d0
        0x00006308:    7809        .x      LDRB     r1,[r1,#0]
        0x0000630a:    4288        .B      CMP      r0,r1
        0x0000630c:    d112        ..      BNE      0x6334 ; DWP83CuCV + 84
        0x0000630e:    2104        .!      MOVS     r1,#4
        0x00006310:    4866        fH      LDR      r0,[pc,#408] ; [0x64ac] = 0x20000b22
        0x00006312:    3018        .0      ADDS     r0,r0,#0x18
        0x00006314:    5501        .U      STRB     r1,[r0,r4]
        0x00006316:    4866        fH      LDR      r0,[pc,#408] ; [0x64b0] = 0x2000037c
        0x00006318:    7801        .x      LDRB     r1,[r0,#0]
        0x0000631a:    4864        dH      LDR      r0,[pc,#400] ; [0x64ac] = 0x20000b22
        0x0000631c:    303c        <0      ADDS     r0,r0,#0x3c
        0x0000631e:    5501        .U      STRB     r1,[r0,r4]
        0x00006320:    0063        c.      LSLS     r3,r4,#1
        0x00006322:    4605        .F      MOV      r5,r0
        0x00006324:    3d54        T=      SUBS     r5,r5,#0x54
        0x00006326:    5aea        .Z      LDRH     r2,[r5,r3]
        0x00006328:    4603        .F      MOV      r3,r0
        0x0000632a:    5d19        .]      LDRB     r1,[r3,r4]
        0x0000632c:    3b0c        .;      SUBS     r3,r3,#0xc
        0x0000632e:    5d18        .]      LDRB     r0,[r3,r4]
        0x00006330:    f7ffff93    ....    BL       DWPH83VolumeChange ; 0x625a
        0x00006334:    1c64        d.      ADDS     r4,r4,#1
        0x00006336:    2c0c        .,      CMP      r4,#0xc
        0x00006338:    d3dd        ..      BCC      0x62f6 ; DWP83CuCV + 22
        0x0000633a:    bf00        ..      NOP      
        0x0000633c:    e7d5        ..      B        0x62ea ; DWP83CuCV + 10
    DWP83CuCV0
        0x0000633e:    b570        p.      PUSH     {r4-r6,lr}
        0x00006340:    4858        XH      LDR      r0,[pc,#352] ; [0x64a4] = 0x200005d0
        0x00006342:    7800        .x      LDRB     r0,[r0,#0]
        0x00006344:    28a0        .(      CMP      r0,#0xa0
        0x00006346:    d100        ..      BNE      0x634a ; DWP83CuCV0 + 12
        0x00006348:    bd70        p.      POP      {r4-r6,pc}
        0x0000634a:    2400        .$      MOVS     r4,#0
        0x0000634c:    e01d        ..      B        0x638a ; DWP83CuCV0 + 76
        0x0000634e:    0061        a.      LSLS     r1,r4,#1
        0x00006350:    4856        VH      LDR      r0,[pc,#344] ; [0x64ac] = 0x20000b22
        0x00006352:    5a40        @Z      LDRH     r0,[r0,r1]
        0x00006354:    2800        .(      CMP      r0,#0
        0x00006356:    d017        ..      BEQ      0x6388 ; DWP83CuCV0 + 74
        0x00006358:    4854        TH      LDR      r0,[pc,#336] ; [0x64ac] = 0x20000b22
        0x0000635a:    3030        00      ADDS     r0,r0,#0x30
        0x0000635c:    5d00        .]      LDRB     r0,[r0,r4]
        0x0000635e:    4951        QI      LDR      r1,[pc,#324] ; [0x64a4] = 0x200005d0
        0x00006360:    7809        .x      LDRB     r1,[r1,#0]
        0x00006362:    4288        .B      CMP      r0,r1
        0x00006364:    d110        ..      BNE      0x6388 ; DWP83CuCV0 + 74
        0x00006366:    2104        .!      MOVS     r1,#4
        0x00006368:    4850        PH      LDR      r0,[pc,#320] ; [0x64ac] = 0x20000b22
        0x0000636a:    3018        .0      ADDS     r0,r0,#0x18
        0x0000636c:    5501        .U      STRB     r1,[r0,r4]
        0x0000636e:    2101        .!      MOVS     r1,#1
        0x00006370:    3024        $0      ADDS     r0,r0,#0x24
        0x00006372:    5501        .U      STRB     r1,[r0,r4]
        0x00006374:    0063        c.      LSLS     r3,r4,#1
        0x00006376:    4605        .F      MOV      r5,r0
        0x00006378:    3d54        T=      SUBS     r5,r5,#0x54
        0x0000637a:    5aea        .Z      LDRH     r2,[r5,r3]
        0x0000637c:    4603        .F      MOV      r3,r0
        0x0000637e:    5d19        .]      LDRB     r1,[r3,r4]
        0x00006380:    3b0c        .;      SUBS     r3,r3,#0xc
        0x00006382:    5d18        .]      LDRB     r0,[r3,r4]
        0x00006384:    f7ffff69    ..i.    BL       DWPH83VolumeChange ; 0x625a
        0x00006388:    1c64        d.      ADDS     r4,r4,#1
        0x0000638a:    2c0c        .,      CMP      r4,#0xc
        0x0000638c:    d3df        ..      BCC      0x634e ; DWP83CuCV0 + 16
        0x0000638e:    bf00        ..      NOP      
        0x00006390:    e7da        ..      B        0x6348 ; DWP83CuCV0 + 10
    DWP83MuPowerOn
        0x00006392:    4848        HH      LDR      r0,[pc,#288] ; [0x64b4] = 0x200005cc
        0x00006394:    6800        .h      LDR      r0,[r0,#0]
        0x00006396:    2104        .!      MOVS     r1,#4
        0x00006398:    4308        .C      ORRS     r0,r0,r1
        0x0000639a:    4946        FI      LDR      r1,[pc,#280] ; [0x64b4] = 0x200005cc
        0x0000639c:    6008        .`      STR      r0,[r1,#0]
        0x0000639e:    4770        pG      BX       lr
    isDwhp83Linked
        0x000063a0:    4845        EH      LDR      r0,[pc,#276] ; [0x64b8] = 0x200005d4
        0x000063a2:    6800        .h      LDR      r0,[r0,#0]
        0x000063a4:    2804        .(      CMP      r0,#4
        0x000063a6:    d901        ..      BLS      0x63ac ; isDwhp83Linked + 12
        0x000063a8:    2000        .       MOVS     r0,#0
        0x000063aa:    4770        pG      BX       lr
        0x000063ac:    2001        .       MOVS     r0,#1
        0x000063ae:    e7fc        ..      B        0x63aa ; isDwhp83Linked + 10
    dwhp83CuAck
        0x000063b0:    b510        ..      PUSH     {r4,lr}
        0x000063b2:    4604        .F      MOV      r4,r0
        0x000063b4:    4b32        2K      LDR      r3,[pc,#200] ; [0x6480] = 0x20000b81
        0x000063b6:    7859        Yx      LDRB     r1,[r3,#1]
        0x000063b8:    781b        .x      LDRB     r3,[r3,#0]
        0x000063ba:    0209        ..      LSLS     r1,r1,#8
        0x000063bc:    4319        .C      ORRS     r1,r1,r3
        0x000063be:    460a        .F      MOV      r2,r1
        0x000063c0:    2180        .!      MOVS     r1,#0x80
        0x000063c2:    4321        !C      ORRS     r1,r1,r4
        0x000063c4:    4608        .F      MOV      r0,r1
        0x000063c6:    493d        =I      LDR      r1,[pc,#244] ; [0x64bc] = 0x20000568
        0x000063c8:    780b        .x      LDRB     r3,[r1,#0]
        0x000063ca:    2101        .!      MOVS     r1,#1
        0x000063cc:    f7fffed6    ....    BL       DWHP83SendCmd2 ; 0x617c
        0x000063d0:    bd10        ..      POP      {r4,pc}
    dealMuContainer
        0x000063d2:    b510        ..      PUSH     {r4,lr}
        0x000063d4:    2000        .       MOVS     r0,#0
        0x000063d6:    493a        :I      LDR      r1,[pc,#232] ; [0x64c0] = 0x200005ec
        0x000063d8:    6008        .`      STR      r0,[r1,#0]
        0x000063da:    e086        ..      B        0x64ea ; dealMuContainer + 280
        0x000063dc:    4838        8H      LDR      r0,[pc,#224] ; [0x64c0] = 0x200005ec
        0x000063de:    6800        .h      LDR      r0,[r0,#0]
        0x000063e0:    0041        A.      LSLS     r1,r0,#1
        0x000063e2:    4832        2H      LDR      r0,[pc,#200] ; [0x64ac] = 0x20000b22
        0x000063e4:    5a40        @Z      LDRH     r0,[r0,r1]
        0x000063e6:    2800        .(      CMP      r0,#0
        0x000063e8:    d06d        m.      BEQ      0x64c6 ; dealMuContainer + 244
        0x000063ea:    4835        5H      LDR      r0,[pc,#212] ; [0x64c0] = 0x200005ec
        0x000063ec:    6800        .h      LDR      r0,[r0,#0]
        0x000063ee:    0040        @.      LSLS     r0,r0,#1
        0x000063f0:    492e        .I      LDR      r1,[pc,#184] ; [0x64ac] = 0x20000b22
        0x000063f2:    3918        .9      SUBS     r1,r1,#0x18
        0x000063f4:    5a08        .Z      LDRH     r0,[r1,r0]
        0x000063f6:    2800        .(      CMP      r0,#0
        0x000063f8:    d065        e.      BEQ      0x64c6 ; dealMuContainer + 244
        0x000063fa:    4831        1H      LDR      r0,[pc,#196] ; [0x64c0] = 0x200005ec
        0x000063fc:    6800        .h      LDR      r0,[r0,#0]
        0x000063fe:    0041        A.      LSLS     r1,r0,#1
        0x00006400:    482a        *H      LDR      r0,[pc,#168] ; [0x64ac] = 0x20000b22
        0x00006402:    5a40        @Z      LDRH     r0,[r0,r1]
        0x00006404:    1e40        @.      SUBS     r0,r0,#1
        0x00006406:    b281        ..      UXTH     r1,r0
        0x00006408:    482d        -H      LDR      r0,[pc,#180] ; [0x64c0] = 0x200005ec
        0x0000640a:    6800        .h      LDR      r0,[r0,#0]
        0x0000640c:    0042        B.      LSLS     r2,r0,#1
        0x0000640e:    4827        'H      LDR      r0,[pc,#156] ; [0x64ac] = 0x20000b22
        0x00006410:    5281        .R      STRH     r1,[r0,r2]
        0x00006412:    3024        $0      ADDS     r0,r0,#0x24
        0x00006414:    492a        *I      LDR      r1,[pc,#168] ; [0x64c0] = 0x200005ec
        0x00006416:    6809        .h      LDR      r1,[r1,#0]
        0x00006418:    5c40        @\      LDRB     r0,[r0,r1]
        0x0000641a:    2805        .(      CMP      r0,#5
        0x0000641c:    d109        ..      BNE      0x6432 ; dealMuContainer + 96
        0x0000641e:    4828        (H      LDR      r0,[pc,#160] ; [0x64c0] = 0x200005ec
        0x00006420:    6800        .h      LDR      r0,[r0,#0]
        0x00006422:    0040        @.      LSLS     r0,r0,#1
        0x00006424:    4921        !I      LDR      r1,[pc,#132] ; [0x64ac] = 0x20000b22
        0x00006426:    3918        .9      SUBS     r1,r1,#0x18
        0x00006428:    5a0a        .Z      LDRH     r2,[r1,r0]
        0x0000642a:    2100        .!      MOVS     r1,#0
        0x0000642c:    2005        .       MOVS     r0,#5
        0x0000642e:    f7fffe39    ..9.    BL       DWHP83SendCmd ; 0x60a4
        0x00006432:    481e        .H      LDR      r0,[pc,#120] ; [0x64ac] = 0x20000b22
        0x00006434:    3018        .0      ADDS     r0,r0,#0x18
        0x00006436:    4922        "I      LDR      r1,[pc,#136] ; [0x64c0] = 0x200005ec
        0x00006438:    6809        .h      LDR      r1,[r1,#0]
        0x0000643a:    5c40        @\      LDRB     r0,[r0,r1]
        0x0000643c:    2804        .(      CMP      r0,#4
        0x0000643e:    d14f        O.      BNE      0x64e0 ; dealMuContainer + 270
        0x00006440:    4b1f        .K      LDR      r3,[pc,#124] ; [0x64c0] = 0x200005ec
        0x00006442:    681b        .h      LDR      r3,[r3,#0]
        0x00006444:    005b        [.      LSLS     r3,r3,#1
        0x00006446:    4c19        .L      LDR      r4,[pc,#100] ; [0x64ac] = 0x20000b22
        0x00006448:    3c18        .<      SUBS     r4,r4,#0x18
        0x0000644a:    5ae2        .Z      LDRH     r2,[r4,r3]
        0x0000644c:    4623        #F      MOV      r3,r4
        0x0000644e:    3354        T3      ADDS     r3,r3,#0x54
        0x00006450:    4c1b        .L      LDR      r4,[pc,#108] ; [0x64c0] = 0x200005ec
        0x00006452:    6824        $h      LDR      r4,[r4,#0]
        0x00006454:    5d19        .]      LDRB     r1,[r3,r4]
        0x00006456:    3b0c        .;      SUBS     r3,r3,#0xc
        0x00006458:    4c19        .L      LDR      r4,[pc,#100] ; [0x64c0] = 0x200005ec
        0x0000645a:    6824        $h      LDR      r4,[r4,#0]
        0x0000645c:    5d18        .]      LDRB     r0,[r3,r4]
        0x0000645e:    f7fffefc    ....    BL       DWPH83VolumeChange ; 0x625a
        0x00006462:    e03d        =.      B        0x64e0 ; dealMuContainer + 270
    $d
        0x00006464:    20000ae6    ...     DCD    536873702
        0x00006468:    73200a0d    .. s    DCD    1931479565
        0x0000646c:    20646e65    end     DCD    543452773
        0x00006470:    3a646d63    cmd:    DCD    979660131
        0x00006474:    00000020     ...    DCD    32
        0x00006478:    20000b6a    j..     DCD    536873834
        0x0000647c:    200005d8    ...     DCD    536872408
        0x00006480:    20000b81    ...     DCD    536873857
        0x00006484:    200005e4    ...     DCD    536872420
        0x00006488:    200005b5    ...     DCD    536872373
        0x0000648c:    63200a0d    .. c    DCD    1663044109
        0x00006490:    756f646d    mdou    DCD    1970234477
        0x00006494:    0a0d2e74    t...    DCD    168636020
        0x00006498:    00000000    ....    DCD    0
        0x0000649c:    20000ac5    ...     DCD    536873669
        0x000064a0:    200005e8    ...     DCD    536872424
        0x000064a4:    200005d0    ...     DCD    536872400
        0x000064a8:    200005dc    ...     DCD    536872412
        0x000064ac:    20000b22    "..     DCD    536873762
        0x000064b0:    2000037c    |..     DCD    536871804
        0x000064b4:    200005cc    ...     DCD    536872396
        0x000064b8:    200005d4    ...     DCD    536872404
        0x000064bc:    20000568    h..     DCD    536872296
        0x000064c0:    200005ec    ...     DCD    536872428
    $t
        0x000064c4:    e7ff        ..      B        0x64c6 ; dealMuContainer + 244
        0x000064c6:    2000        .       MOVS     r0,#0
        0x000064c8:    49fc        .I      LDR      r1,[pc,#1008] ; [0x68bc] = 0x200005ec
        0x000064ca:    6809        .h      LDR      r1,[r1,#0]
        0x000064cc:    0049        I.      LSLS     r1,r1,#1
        0x000064ce:    4afc        .J      LDR      r2,[pc,#1008] ; [0x68c0] = 0x20000b0a
        0x000064d0:    5250        PR      STRH     r0,[r2,r1]
        0x000064d2:    2100        .!      MOVS     r1,#0
        0x000064d4:    48f9        .H      LDR      r0,[pc,#996] ; [0x68bc] = 0x200005ec
        0x000064d6:    6800        .h      LDR      r0,[r0,#0]
        0x000064d8:    0042        B.      LSLS     r2,r0,#1
        0x000064da:    48f9        .H      LDR      r0,[pc,#996] ; [0x68c0] = 0x20000b0a
        0x000064dc:    3018        .0      ADDS     r0,r0,#0x18
        0x000064de:    5281        .R      STRH     r1,[r0,r2]
        0x000064e0:    48f6        .H      LDR      r0,[pc,#984] ; [0x68bc] = 0x200005ec
        0x000064e2:    6800        .h      LDR      r0,[r0,#0]
        0x000064e4:    1c40        @.      ADDS     r0,r0,#1
        0x000064e6:    49f5        .I      LDR      r1,[pc,#980] ; [0x68bc] = 0x200005ec
        0x000064e8:    6008        .`      STR      r0,[r1,#0]
        0x000064ea:    48f4        .H      LDR      r0,[pc,#976] ; [0x68bc] = 0x200005ec
        0x000064ec:    6800        .h      LDR      r0,[r0,#0]
        0x000064ee:    280c        .(      CMP      r0,#0xc
        0x000064f0:    d200        ..      BCS      0x64f4 ; dealMuContainer + 290
        0x000064f2:    e773        s.      B        0x63dc ; dealMuContainer + 10
        0x000064f4:    bd10        ..      POP      {r4,pc}
    addMuContainer
        0x000064f6:    b510        ..      PUSH     {r4,lr}
        0x000064f8:    21ff        .!      MOVS     r1,#0xff
        0x000064fa:    2000        .       MOVS     r0,#0
        0x000064fc:    e020         .      B        0x6540 ; addMuContainer + 74
        0x000064fe:    0042        B.      LSLS     r2,r0,#1
        0x00006500:    4bef        .K      LDR      r3,[pc,#956] ; [0x68c0] = 0x20000b0a
        0x00006502:    5a9a        .Z      LDRH     r2,[r3,r2]
        0x00006504:    2a00        .*      CMP      r2,#0
        0x00006506:    d100        ..      BNE      0x650a ; addMuContainer + 20
        0x00006508:    b281        ..      UXTH     r1,r0
        0x0000650a:    4bee        .K      LDR      r3,[pc,#952] ; [0x68c4] = 0x20000b81
        0x0000650c:    785a        Zx      LDRB     r2,[r3,#1]
        0x0000650e:    781b        .x      LDRB     r3,[r3,#0]
        0x00006510:    0212        ..      LSLS     r2,r2,#8
        0x00006512:    431a        .C      ORRS     r2,r2,r3
        0x00006514:    0043        C.      LSLS     r3,r0,#1
        0x00006516:    4cea        .L      LDR      r4,[pc,#936] ; [0x68c0] = 0x20000b0a
        0x00006518:    5ae3        .Z      LDRH     r3,[r4,r3]
        0x0000651a:    429a        .B      CMP      r2,r3
        0x0000651c:    d10f        ..      BNE      0x653e ; addMuContainer + 72
        0x0000651e:    0042        B.      LSLS     r2,r0,#1
        0x00006520:    4623        #F      MOV      r3,r4
        0x00006522:    5a9a        .Z      LDRH     r2,[r3,r2]
        0x00006524:    2a07        .*      CMP      r2,#7
        0x00006526:    dd0a        ..      BLE      0x653e ; addMuContainer + 72
        0x00006528:    2305        .#      MOVS     r3,#5
        0x0000652a:    0044        D.      LSLS     r4,r0,#1
        0x0000652c:    4ae4        .J      LDR      r2,[pc,#912] ; [0x68c0] = 0x20000b0a
        0x0000652e:    3218        .2      ADDS     r2,r2,#0x18
        0x00006530:    5313        .S      STRH     r3,[r2,r4]
        0x00006532:    4ae4        .J      LDR      r2,[pc,#912] ; [0x68c4] = 0x20000b81
        0x00006534:    7953        Sy      LDRB     r3,[r2,#5]
        0x00006536:    4ae2        .J      LDR      r2,[pc,#904] ; [0x68c0] = 0x20000b0a
        0x00006538:    3248        H2      ADDS     r2,r2,#0x48
        0x0000653a:    5413        .T      STRB     r3,[r2,r0]
        0x0000653c:    bd10        ..      POP      {r4,pc}
        0x0000653e:    1c40        @.      ADDS     r0,r0,#1
        0x00006540:    280c        .(      CMP      r0,#0xc
        0x00006542:    d3dc        ..      BCC      0x64fe ; addMuContainer + 8
        0x00006544:    29ff        .)      CMP      r1,#0xff
        0x00006546:    d010        ..      BEQ      0x656a ; addMuContainer + 116
        0x00006548:    4bde        .K      LDR      r3,[pc,#888] ; [0x68c4] = 0x20000b81
        0x0000654a:    785a        Zx      LDRB     r2,[r3,#1]
        0x0000654c:    781b        .x      LDRB     r3,[r3,#0]
        0x0000654e:    0212        ..      LSLS     r2,r2,#8
        0x00006550:    431a        .C      ORRS     r2,r2,r3
        0x00006552:    004b        K.      LSLS     r3,r1,#1
        0x00006554:    4cda        .L      LDR      r4,[pc,#872] ; [0x68c0] = 0x20000b0a
        0x00006556:    52e2        .R      STRH     r2,[r4,r3]
        0x00006558:    4ada        .J      LDR      r2,[pc,#872] ; [0x68c4] = 0x20000b81
        0x0000655a:    7953        Sy      LDRB     r3,[r2,#5]
        0x0000655c:    4622        "F      MOV      r2,r4
        0x0000655e:    3248        H2      ADDS     r2,r2,#0x48
        0x00006560:    5453        ST      STRB     r3,[r2,r1]
        0x00006562:    2305        .#      MOVS     r3,#5
        0x00006564:    004c        L.      LSLS     r4,r1,#1
        0x00006566:    3a30        0:      SUBS     r2,r2,#0x30
        0x00006568:    5313        .S      STRH     r3,[r2,r4]
        0x0000656a:    bf00        ..      NOP      
        0x0000656c:    e7e6        ..      B        0x653c ; addMuContainer + 70
    doCuMsg
        0x0000656e:    b570        p.      PUSH     {r4-r6,lr}
        0x00006570:    49d4        .I      LDR      r1,[pc,#848] ; [0x68c4] = 0x20000b81
        0x00006572:    7908        .y      LDRB     r0,[r1,#4]
        0x00006574:    a1d4        ..      ADR      r1,{pc}+0x354 ; 0x68c8
        0x00006576:    f7fbfd23    ..#.    BL       uartdecode ; 0x1fc0
        0x0000657a:    48d2        .H      LDR      r0,[pc,#840] ; [0x68c4] = 0x20000b81
        0x0000657c:    7900        .y      LDRB     r0,[r0,#4]
        0x0000657e:    2805        .(      CMP      r0,#5
        0x00006580:    d05c        \.      BEQ      0x663c ; doCuMsg + 206
        0x00006582:    dc06        ..      BGT      0x6592 ; doCuMsg + 36
        0x00006584:    2801        .(      CMP      r0,#1
        0x00006586:    d009        ..      BEQ      0x659c ; doCuMsg + 46
        0x00006588:    2802        .(      CMP      r0,#2
        0x0000658a:    d00d        ..      BEQ      0x65a8 ; doCuMsg + 58
        0x0000658c:    2804        .(      CMP      r0,#4
        0x0000658e:    d179        y.      BNE      0x6684 ; doCuMsg + 278
        0x00006590:    e01a        ..      B        0x65c8 ; doCuMsg + 90
        0x00006592:    2884        .(      CMP      r0,#0x84
        0x00006594:    d078        x.      BEQ      0x6688 ; doCuMsg + 282
        0x00006596:    2885        .(      CMP      r0,#0x85
        0x00006598:    d1f9        ..      BNE      0x658e ; doCuMsg + 32
        0x0000659a:    e092        ..      B        0x66c2 ; doCuMsg + 340
        0x0000659c:    2001        .       MOVS     r0,#1
        0x0000659e:    f7ffff07    ....    BL       dwhp83CuAck ; 0x63b0
        0x000065a2:    f7ffffa8    ....    BL       addMuContainer ; 0x64f6
        0x000065a6:    e0a3        ..      B        0x66f0 ; doCuMsg + 386
        0x000065a8:    a0cb        ..      ADR      r0,{pc}+0x330 ; 0x68d8
        0x000065aa:    f7fbfa7b    ..{.    BL       iputs ; 0x1aa4
        0x000065ae:    2002        .       MOVS     r0,#2
        0x000065b0:    f7fffefe    ....    BL       dwhp83CuAck ; 0x63b0
        0x000065b4:    2032        2       MOVS     r0,#0x32
        0x000065b6:    f7fbfe26    ..&.    BL       sysDelayMs ; 0x2206
        0x000065ba:    f7fffc04    ....    BL       changetoWirelessSlave ; 0x5dc6
        0x000065be:    207d        }       MOVS     r0,#0x7d
        0x000065c0:    0100        ..      LSLS     r0,r0,#4
        0x000065c2:    f7fbfe20    .. .    BL       sysDelayMs ; 0x2206
        0x000065c6:    e093        ..      B        0x66f0 ; doCuMsg + 386
        0x000065c8:    2004        .       MOVS     r0,#4
        0x000065ca:    f7fffef1    ....    BL       dwhp83CuAck ; 0x63b0
        0x000065ce:    48bd        .H      LDR      r0,[pc,#756] ; [0x68c4] = 0x20000b81
        0x000065d0:    7940        @y      LDRB     r0,[r0,#5]
        0x000065d2:    28a0        .(      CMP      r0,#0xa0
        0x000065d4:    d100        ..      BNE      0x65d8 ; doCuMsg + 106
        0x000065d6:    e08b        ..      B        0x66f0 ; doCuMsg + 386
        0x000065d8:    48ba        .H      LDR      r0,[pc,#744] ; [0x68c4] = 0x20000b81
        0x000065da:    7980        .y      LDRB     r0,[r0,#6]
        0x000065dc:    2800        .(      CMP      r0,#0
        0x000065de:    d102        ..      BNE      0x65e6 ; doCuMsg + 120
        0x000065e0:    2101        .!      MOVS     r1,#1
        0x000065e2:    48b8        .H      LDR      r0,[pc,#736] ; [0x68c4] = 0x20000b81
        0x000065e4:    7181        .q      STRB     r1,[r0,#6]
        0x000065e6:    2001        .       MOVS     r0,#1
        0x000065e8:    49c2        .I      LDR      r1,[pc,#776] ; [0x68f4] = 0x200005dc
        0x000065ea:    6008        .`      STR      r0,[r1,#0]
        0x000065ec:    2400        .$      MOVS     r4,#0
        0x000065ee:    e01f        ..      B        0x6630 ; doCuMsg + 194
        0x000065f0:    0061        a.      LSLS     r1,r4,#1
        0x000065f2:    48b3        .H      LDR      r0,[pc,#716] ; [0x68c0] = 0x20000b0a
        0x000065f4:    3018        .0      ADDS     r0,r0,#0x18
        0x000065f6:    5a40        @Z      LDRH     r0,[r0,r1]
        0x000065f8:    2800        .(      CMP      r0,#0
        0x000065fa:    d018        ..      BEQ      0x662e ; doCuMsg + 192
        0x000065fc:    48b0        .H      LDR      r0,[pc,#704] ; [0x68c0] = 0x20000b0a
        0x000065fe:    3048        H0      ADDS     r0,r0,#0x48
        0x00006600:    5d00        .]      LDRB     r0,[r0,r4]
        0x00006602:    49b0        .I      LDR      r1,[pc,#704] ; [0x68c4] = 0x20000b81
        0x00006604:    7949        Iy      LDRB     r1,[r1,#5]
        0x00006606:    4288        .B      CMP      r0,r1
        0x00006608:    d111        ..      BNE      0x662e ; doCuMsg + 192
        0x0000660a:    2104        .!      MOVS     r1,#4
        0x0000660c:    48ac        .H      LDR      r0,[pc,#688] ; [0x68c0] = 0x20000b0a
        0x0000660e:    3030        00      ADDS     r0,r0,#0x30
        0x00006610:    5501        .U      STRB     r1,[r0,r4]
        0x00006612:    48ac        .H      LDR      r0,[pc,#688] ; [0x68c4] = 0x20000b81
        0x00006614:    7981        .y      LDRB     r1,[r0,#6]
        0x00006616:    48aa        .H      LDR      r0,[pc,#680] ; [0x68c0] = 0x20000b0a
        0x00006618:    3054        T0      ADDS     r0,r0,#0x54
        0x0000661a:    5501        .U      STRB     r1,[r0,r4]
        0x0000661c:    0063        c.      LSLS     r3,r4,#1
        0x0000661e:    4da8        .M      LDR      r5,[pc,#672] ; [0x68c0] = 0x20000b0a
        0x00006620:    5aea        .Z      LDRH     r2,[r5,r3]
        0x00006622:    4603        .F      MOV      r3,r0
        0x00006624:    5d19        .]      LDRB     r1,[r3,r4]
        0x00006626:    3b0c        .;      SUBS     r3,r3,#0xc
        0x00006628:    5d18        .]      LDRB     r0,[r3,r4]
        0x0000662a:    f7fffe16    ....    BL       DWPH83VolumeChange ; 0x625a
        0x0000662e:    1c64        d.      ADDS     r4,r4,#1
        0x00006630:    2c0c        .,      CMP      r4,#0xc
        0x00006632:    d3dd        ..      BCC      0x65f0 ; doCuMsg + 130
        0x00006634:    2004        .       MOVS     r0,#4
        0x00006636:    49b0        .I      LDR      r1,[pc,#704] ; [0x68f8] = 0x20000237
        0x00006638:    7008        .p      STRB     r0,[r1,#0]
        0x0000663a:    e059        Y.      B        0x66f0 ; doCuMsg + 386
        0x0000663c:    2005        .       MOVS     r0,#5
        0x0000663e:    f7fffeb7    ....    BL       dwhp83CuAck ; 0x63b0
        0x00006642:    2400        .$      MOVS     r4,#0
        0x00006644:    e01b        ..      B        0x667e ; doCuMsg + 272
        0x00006646:    0061        a.      LSLS     r1,r4,#1
        0x00006648:    489d        .H      LDR      r0,[pc,#628] ; [0x68c0] = 0x20000b0a
        0x0000664a:    3018        .0      ADDS     r0,r0,#0x18
        0x0000664c:    5a40        @Z      LDRH     r0,[r0,r1]
        0x0000664e:    2800        .(      CMP      r0,#0
        0x00006650:    d014        ..      BEQ      0x667c ; doCuMsg + 270
        0x00006652:    0060        `.      LSLS     r0,r4,#1
        0x00006654:    499a        .I      LDR      r1,[pc,#616] ; [0x68c0] = 0x20000b0a
        0x00006656:    5a09        .Z      LDRH     r1,[r1,r0]
        0x00006658:    4a9a        .J      LDR      r2,[pc,#616] ; [0x68c4] = 0x20000b81
        0x0000665a:    7850        Px      LDRB     r0,[r2,#1]
        0x0000665c:    7812        .x      LDRB     r2,[r2,#0]
        0x0000665e:    0200        ..      LSLS     r0,r0,#8
        0x00006660:    4310        .C      ORRS     r0,r0,r2
        0x00006662:    4281        .B      CMP      r1,r0
        0x00006664:    d00a        ..      BEQ      0x667c ; doCuMsg + 270
        0x00006666:    2105        .!      MOVS     r1,#5
        0x00006668:    4895        .H      LDR      r0,[pc,#596] ; [0x68c0] = 0x20000b0a
        0x0000666a:    303c        <0      ADDS     r0,r0,#0x3c
        0x0000666c:    5501        .U      STRB     r1,[r0,r4]
        0x0000666e:    0060        `.      LSLS     r0,r4,#1
        0x00006670:    4993        .I      LDR      r1,[pc,#588] ; [0x68c0] = 0x20000b0a
        0x00006672:    5a0a        .Z      LDRH     r2,[r1,r0]
        0x00006674:    2100        .!      MOVS     r1,#0
        0x00006676:    2005        .       MOVS     r0,#5
        0x00006678:    f7fffd14    ....    BL       DWHP83SendCmd ; 0x60a4
        0x0000667c:    1c64        d.      ADDS     r4,r4,#1
        0x0000667e:    2c0c        .,      CMP      r4,#0xc
        0x00006680:    d3e1        ..      BCC      0x6646 ; doCuMsg + 216
        0x00006682:    e035        5.      B        0x66f0 ; doCuMsg + 386
        0x00006684:    e033        3.      B        0x66ee ; doCuMsg + 384
        0x00006686:    e7ff        ..      B        0x6688 ; doCuMsg + 282
        0x00006688:    2400        .$      MOVS     r4,#0
        0x0000668a:    e016        ..      B        0x66ba ; doCuMsg + 332
        0x0000668c:    0060        `.      LSLS     r0,r4,#1
        0x0000668e:    498c        .I      LDR      r1,[pc,#560] ; [0x68c0] = 0x20000b0a
        0x00006690:    5a09        .Z      LDRH     r1,[r1,r0]
        0x00006692:    4a8c        .J      LDR      r2,[pc,#560] ; [0x68c4] = 0x20000b81
        0x00006694:    7850        Px      LDRB     r0,[r2,#1]
        0x00006696:    7812        .x      LDRB     r2,[r2,#0]
        0x00006698:    0200        ..      LSLS     r0,r0,#8
        0x0000669a:    4310        .C      ORRS     r0,r0,r2
        0x0000669c:    4281        .B      CMP      r1,r0
        0x0000669e:    d10b        ..      BNE      0x66b8 ; doCuMsg + 330
        0x000066a0:    4887        .H      LDR      r0,[pc,#540] ; [0x68c0] = 0x20000b0a
        0x000066a2:    3054        T0      ADDS     r0,r0,#0x54
        0x000066a4:    5d01        .]      LDRB     r1,[r0,r4]
        0x000066a6:    4887        .H      LDR      r0,[pc,#540] ; [0x68c4] = 0x20000b81
        0x000066a8:    7980        .y      LDRB     r0,[r0,#6]
        0x000066aa:    4281        .B      CMP      r1,r0
        0x000066ac:    d104        ..      BNE      0x66b8 ; doCuMsg + 330
        0x000066ae:    2100        .!      MOVS     r1,#0
        0x000066b0:    4883        .H      LDR      r0,[pc,#524] ; [0x68c0] = 0x20000b0a
        0x000066b2:    3030        00      ADDS     r0,r0,#0x30
        0x000066b4:    5501        .U      STRB     r1,[r0,r4]
        0x000066b6:    e002        ..      B        0x66be ; doCuMsg + 336
        0x000066b8:    1c64        d.      ADDS     r4,r4,#1
        0x000066ba:    2c0c        .,      CMP      r4,#0xc
        0x000066bc:    d3e6        ..      BCC      0x668c ; doCuMsg + 286
        0x000066be:    bf00        ..      NOP      
        0x000066c0:    e016        ..      B        0x66f0 ; doCuMsg + 386
        0x000066c2:    2400        .$      MOVS     r4,#0
        0x000066c4:    e00f        ..      B        0x66e6 ; doCuMsg + 376
        0x000066c6:    0060        `.      LSLS     r0,r4,#1
        0x000066c8:    497d        }I      LDR      r1,[pc,#500] ; [0x68c0] = 0x20000b0a
        0x000066ca:    5a09        .Z      LDRH     r1,[r1,r0]
        0x000066cc:    4a7d        }J      LDR      r2,[pc,#500] ; [0x68c4] = 0x20000b81
        0x000066ce:    7850        Px      LDRB     r0,[r2,#1]
        0x000066d0:    7812        .x      LDRB     r2,[r2,#0]
        0x000066d2:    0200        ..      LSLS     r0,r0,#8
        0x000066d4:    4310        .C      ORRS     r0,r0,r2
        0x000066d6:    4281        .B      CMP      r1,r0
        0x000066d8:    d104        ..      BNE      0x66e4 ; doCuMsg + 374
        0x000066da:    2100        .!      MOVS     r1,#0
        0x000066dc:    4878        xH      LDR      r0,[pc,#480] ; [0x68c0] = 0x20000b0a
        0x000066de:    303c        <0      ADDS     r0,r0,#0x3c
        0x000066e0:    5501        .U      STRB     r1,[r0,r4]
        0x000066e2:    e002        ..      B        0x66ea ; doCuMsg + 380
        0x000066e4:    1c64        d.      ADDS     r4,r4,#1
        0x000066e6:    2c0c        .,      CMP      r4,#0xc
        0x000066e8:    d3ed        ..      BCC      0x66c6 ; doCuMsg + 344
        0x000066ea:    bf00        ..      NOP      
        0x000066ec:    e000        ..      B        0x66f0 ; doCuMsg + 386
        0x000066ee:    bf00        ..      NOP      
        0x000066f0:    bf00        ..      NOP      
        0x000066f2:    bd70        p.      POP      {r4-r6,pc}
    doMuMsg
        0x000066f4:    b510        ..      PUSH     {r4,lr}
        0x000066f6:    4973        sI      LDR      r1,[pc,#460] ; [0x68c4] = 0x20000b81
        0x000066f8:    7848        Hx      LDRB     r0,[r1,#1]
        0x000066fa:    7809        .x      LDRB     r1,[r1,#0]
        0x000066fc:    0200        ..      LSLS     r0,r0,#8
        0x000066fe:    4308        .C      ORRS     r0,r0,r1
        0x00006700:    497e        ~I      LDR      r1,[pc,#504] ; [0x68fc] = 0x200005f8
        0x00006702:    8809        ..      LDRH     r1,[r1,#0]
        0x00006704:    4288        .B      CMP      r0,r1
        0x00006706:    d144        D.      BNE      0x6792 ; doMuMsg + 158
        0x00006708:    486e        nH      LDR      r0,[pc,#440] ; [0x68c4] = 0x20000b81
        0x0000670a:    7900        .y      LDRB     r0,[r0,#4]
        0x0000670c:    2882        .(      CMP      r0,#0x82
        0x0000670e:    d023        #.      BEQ      0x6758 ; doMuMsg + 100
        0x00006710:    dc06        ..      BGT      0x6720 ; doMuMsg + 44
        0x00006712:    2804        .(      CMP      r0,#4
        0x00006714:    d00f        ..      BEQ      0x6736 ; doMuMsg + 66
        0x00006716:    2805        .(      CMP      r0,#5
        0x00006718:    d017        ..      BEQ      0x674a ; doMuMsg + 86
        0x0000671a:    2881        .(      CMP      r0,#0x81
        0x0000671c:    d137        7.      BNE      0x678e ; doMuMsg + 154
        0x0000671e:    e004        ..      B        0x672a ; doMuMsg + 54
        0x00006720:    2884        .(      CMP      r0,#0x84
        0x00006722:    d020         .      BEQ      0x6766 ; doMuMsg + 114
        0x00006724:    2885        .(      CMP      r0,#0x85
        0x00006726:    d132        2.      BNE      0x678e ; doMuMsg + 154
        0x00006728:    e02a        *.      B        0x6780 ; doMuMsg + 140
        0x0000672a:    2000        .       MOVS     r0,#0
        0x0000672c:    4974        tI      LDR      r1,[pc,#464] ; [0x6900] = 0x200005d4
        0x0000672e:    6008        .`      STR      r0,[r1,#0]
        0x00006730:    f7fffac0    ....    BL       saveCoCo ; 0x5cb4
        0x00006734:    e02c        ,.      B        0x6790 ; doMuMsg + 156
        0x00006736:    2000        .       MOVS     r0,#0
        0x00006738:    4971        qI      LDR      r1,[pc,#452] ; [0x6900] = 0x200005d4
        0x0000673a:    6008        .`      STR      r0,[r1,#0]
        0x0000673c:    486f        oH      LDR      r0,[pc,#444] ; [0x68fc] = 0x200005f8
        0x0000673e:    8802        ..      LDRH     r2,[r0,#0]
        0x00006740:    2100        .!      MOVS     r1,#0
        0x00006742:    2084        .       MOVS     r0,#0x84
        0x00006744:    f7fffcae    ....    BL       DWHP83SendCmd ; 0x60a4
        0x00006748:    e022        ".      B        0x6790 ; doMuMsg + 156
        0x0000674a:    486c        lH      LDR      r0,[pc,#432] ; [0x68fc] = 0x200005f8
        0x0000674c:    8802        ..      LDRH     r2,[r0,#0]
        0x0000674e:    2100        .!      MOVS     r1,#0
        0x00006750:    2085        .       MOVS     r0,#0x85
        0x00006752:    f7fffca7    ....    BL       DWHP83SendCmd ; 0x60a4
        0x00006756:    e01b        ..      B        0x6790 ; doMuMsg + 156
        0x00006758:    a06a        j.      ADR      r0,{pc}+0x1ac ; 0x6904
        0x0000675a:    f7fbf9a3    ....    BL       iputs ; 0x1aa4
        0x0000675e:    2000        .       MOVS     r0,#0
        0x00006760:    496f        oI      LDR      r1,[pc,#444] ; [0x6920] = 0x200005cc
        0x00006762:    6008        .`      STR      r0,[r1,#0]
        0x00006764:    e014        ..      B        0x6790 ; doMuMsg + 156
        0x00006766:    4857        WH      LDR      r0,[pc,#348] ; [0x68c4] = 0x20000b81
        0x00006768:    7980        .y      LDRB     r0,[r0,#6]
        0x0000676a:    496e        nI      LDR      r1,[pc,#440] ; [0x6924] = 0x2000037c
        0x0000676c:    6809        .h      LDR      r1,[r1,#0]
        0x0000676e:    4288        .B      CMP      r0,r1
        0x00006770:    d105        ..      BNE      0x677e ; doMuMsg + 138
        0x00006772:    486b        kH      LDR      r0,[pc,#428] ; [0x6920] = 0x200005cc
        0x00006774:    6800        .h      LDR      r0,[r0,#0]
        0x00006776:    2102        .!      MOVS     r1,#2
        0x00006778:    4388        .C      BICS     r0,r0,r1
        0x0000677a:    4969        iI      LDR      r1,[pc,#420] ; [0x6920] = 0x200005cc
        0x0000677c:    6008        .`      STR      r0,[r1,#0]
        0x0000677e:    e007        ..      B        0x6790 ; doMuMsg + 156
        0x00006780:    4867        gH      LDR      r0,[pc,#412] ; [0x6920] = 0x200005cc
        0x00006782:    6800        .h      LDR      r0,[r0,#0]
        0x00006784:    2105        .!      MOVS     r1,#5
        0x00006786:    4388        .C      BICS     r0,r0,r1
        0x00006788:    4965        eI      LDR      r1,[pc,#404] ; [0x6920] = 0x200005cc
        0x0000678a:    6008        .`      STR      r0,[r1,#0]
        0x0000678c:    e000        ..      B        0x6790 ; doMuMsg + 156
        0x0000678e:    bf00        ..      NOP      
        0x00006790:    bf00        ..      NOP      
        0x00006792:    bd10        ..      POP      {r4,pc}
    DWHP83DealMsg
        0x00006794:    b570        p.      PUSH     {r4-r6,lr}
        0x00006796:    f7fffae0    ....    BL       Dwhp83CuMuDetect ; 0x5d5a
        0x0000679a:    2800        .(      CMP      r0,#0
        0x0000679c:    d00f        ..      BEQ      0x67be ; DWHP83DealMsg + 42
        0x0000679e:    2121        !!      MOVS     r1,#0x21
        0x000067a0:    203e        >       MOVS     r0,#0x3e
        0x000067a2:    f7fff940    ..@.    BL       readDwhp83 ; 0x5a26
        0x000067a6:    4860        `H      LDR      r0,[pc,#384] ; [0x6928] = 0x200005b4
        0x000067a8:    7800        .x      LDRB     r0,[r0,#0]
        0x000067aa:    2801        .(      CMP      r0,#1
        0x000067ac:    da07        ..      BGE      0x67be ; DWHP83DealMsg + 42
        0x000067ae:    2221        !"      MOVS     r2,#0x21
        0x000067b0:    495e        ^I      LDR      r1,[pc,#376] ; [0x692c] = 0x20000ae6
        0x000067b2:    485f        _H      LDR      r0,[pc,#380] ; [0x6930] = 0x20000aa4
        0x000067b4:    f000fb28    ..(.    BL       __aeabi_memcpy ; 0x6e08
        0x000067b8:    2001        .       MOVS     r0,#1
        0x000067ba:    495b        [I      LDR      r1,[pc,#364] ; [0x6928] = 0x200005b4
        0x000067bc:    7008        .p      STRB     r0,[r1,#0]
        0x000067be:    f7fff931    ..1.    BL       exitGpioI2c ; 0x5a24
        0x000067c2:    2500        .%      MOVS     r5,#0
        0x000067c4:    2401        .$      MOVS     r4,#1
        0x000067c6:    e02e        ..      B        0x6826 ; DWHP83DealMsg + 146
        0x000067c8:    4858        XH      LDR      r0,[pc,#352] ; [0x692c] = 0x20000ae6
        0x000067ca:    5d00        .]      LDRB     r0,[r0,r4]
        0x000067cc:    1940        @.      ADDS     r0,r0,r5
        0x000067ce:    b2c5        ..      UXTB     r5,r0
        0x000067d0:    2c04        .,      CMP      r4,#4
        0x000067d2:    d127        '.      BNE      0x6824 ; DWHP83DealMsg + 144
        0x000067d4:    4855        UH      LDR      r0,[pc,#340] ; [0x692c] = 0x20000ae6
        0x000067d6:    7800        .x      LDRB     r0,[r0,#0]
        0x000067d8:    2800        .(      CMP      r0,#0
        0x000067da:    d123        #.      BNE      0x6824 ; DWHP83DealMsg + 144
        0x000067dc:    4853        SH      LDR      r0,[pc,#332] ; [0x692c] = 0x20000ae6
        0x000067de:    7840        @x      LDRB     r0,[r0,#1]
        0x000067e0:    4952        RI      LDR      r1,[pc,#328] ; [0x692c] = 0x20000ae6
        0x000067e2:    7889        .x      LDRB     r1,[r1,#2]
        0x000067e4:    4288        .B      CMP      r0,r1
        0x000067e6:    d11d        ..      BNE      0x6824 ; DWHP83DealMsg + 144
        0x000067e8:    4850        PH      LDR      r0,[pc,#320] ; [0x692c] = 0x20000ae6
        0x000067ea:    7880        .x      LDRB     r0,[r0,#2]
        0x000067ec:    494f        OI      LDR      r1,[pc,#316] ; [0x692c] = 0x20000ae6
        0x000067ee:    78c9        .x      LDRB     r1,[r1,#3]
        0x000067f0:    4288        .B      CMP      r0,r1
        0x000067f2:    d117        ..      BNE      0x6824 ; DWHP83DealMsg + 144
        0x000067f4:    f7fffab1    ....    BL       Dwhp83CuMuDetect ; 0x5d5a
        0x000067f8:    2800        .(      CMP      r0,#0
        0x000067fa:    d013        ..      BEQ      0x6824 ; DWHP83DealMsg + 144
        0x000067fc:    484d        MH      LDR      r0,[pc,#308] ; [0x6934] = 0x200005c8
        0x000067fe:    6800        .h      LDR      r0,[r0,#0]
        0x00006800:    494d        MI      LDR      r1,[pc,#308] ; [0x6938] = 0x55aa
        0x00006802:    4288        .B      CMP      r0,r1
        0x00006804:    d10e        ..      BNE      0x6824 ; DWHP83DealMsg + 144
        0x00006806:    4849        IH      LDR      r0,[pc,#292] ; [0x692c] = 0x20000ae6
        0x00006808:    7840        @x      LDRB     r0,[r0,#1]
        0x0000680a:    2811        .(      CMP      r0,#0x11
        0x0000680c:    d002        ..      BEQ      0x6814 ; DWHP83DealMsg + 128
        0x0000680e:    2812        .(      CMP      r0,#0x12
        0x00006810:    d106        ..      BNE      0x6820 ; DWHP83DealMsg + 140
        0x00006812:    e002        ..      B        0x681a ; DWHP83DealMsg + 134
        0x00006814:    f7fefe44    ..D.    BL       ampAddVolume ; 0x54a0
        0x00006818:    e003        ..      B        0x6822 ; DWHP83DealMsg + 142
        0x0000681a:    f7fefe18    ....    BL       ampDecVolume ; 0x544e
        0x0000681e:    e000        ..      B        0x6822 ; DWHP83DealMsg + 142
        0x00006820:    bf00        ..      NOP      
        0x00006822:    bf00        ..      NOP      
        0x00006824:    1c64        d.      ADDS     r4,r4,#1
        0x00006826:    2c08        .,      CMP      r4,#8
        0x00006828:    d3ce        ..      BCC      0x67c8 ; DWHP83DealMsg + 52
        0x0000682a:    4840        @H      LDR      r0,[pc,#256] ; [0x692c] = 0x20000ae6
        0x0000682c:    7a00        .z      LDRB     r0,[r0,#8]
        0x0000682e:    42a8        .B      CMP      r0,r5
        0x00006830:    d000        ..      BEQ      0x6834 ; DWHP83DealMsg + 160
        0x00006832:    bd70        p.      POP      {r4-r6,pc}
        0x00006834:    2208        ."      MOVS     r2,#8
        0x00006836:    493d        =I      LDR      r1,[pc,#244] ; [0x692c] = 0x20000ae6
        0x00006838:    1c49        I.      ADDS     r1,r1,#1
        0x0000683a:    4822        "H      LDR      r0,[pc,#136] ; [0x68c4] = 0x20000b81
        0x0000683c:    f000fae4    ....    BL       __aeabi_memcpy ; 0x6e08
        0x00006840:    483c        <H      LDR      r0,[pc,#240] ; [0x6934] = 0x200005c8
        0x00006842:    6800        .h      LDR      r0,[r0,#0]
        0x00006844:    493d        =I      LDR      r1,[pc,#244] ; [0x693c] = 0xaa55
        0x00006846:    4288        .B      CMP      r0,r1
        0x00006848:    d102        ..      BNE      0x6850 ; DWHP83DealMsg + 188
        0x0000684a:    f7ffff53    ..S.    BL       doMuMsg ; 0x66f4
        0x0000684e:    e001        ..      B        0x6854 ; DWHP83DealMsg + 192
        0x00006850:    f7fffe8d    ....    BL       doCuMsg ; 0x656e
        0x00006854:    bf00        ..      NOP      
        0x00006856:    e7ec        ..      B        0x6832 ; DWHP83DealMsg + 158
    DWP83SpiritTask
        0x00006858:    b510        ..      PUSH     {r4,lr}
        0x0000685a:    f7fffa7e    ..~.    BL       Dwhp83CuMuDetect ; 0x5d5a
        0x0000685e:    4838        8H      LDR      r0,[pc,#224] ; [0x6940] = 0x200005c0
        0x00006860:    7800        .x      LDRB     r0,[r0,#0]
        0x00006862:    2800        .(      CMP      r0,#0
        0x00006864:    d17e        ~.      BNE      0x6964 ; DWP83SpiritTask + 268
        0x00006866:    4833        3H      LDR      r0,[pc,#204] ; [0x6934] = 0x200005c8
        0x00006868:    6800        .h      LDR      r0,[r0,#0]
        0x0000686a:    4934        4I      LDR      r1,[pc,#208] ; [0x693c] = 0xaa55
        0x0000686c:    4288        .B      CMP      r0,r1
        0x0000686e:    d17a        z.      BNE      0x6966 ; DWP83SpiritTask + 270
        0x00006870:    4823        #H      LDR      r0,[pc,#140] ; [0x6900] = 0x200005d4
        0x00006872:    6800        .h      LDR      r0,[r0,#0]
        0x00006874:    1c40        @.      ADDS     r0,r0,#1
        0x00006876:    4922        "I      LDR      r1,[pc,#136] ; [0x6900] = 0x200005d4
        0x00006878:    6008        .`      STR      r0,[r1,#0]
        0x0000687a:    f7fff997    ....    BL       Dwhp83GetStatus ; 0x5bac
        0x0000687e:    4831        1H      LDR      r0,[pc,#196] ; [0x6944] = 0x200005f4
        0x00006880:    7800        .x      LDRB     r0,[r0,#0]
        0x00006882:    2801        .(      CMP      r0,#1
        0x00006884:    d170        p.      BNE      0x6968 ; DWP83SpiritTask + 272
        0x00006886:    4830        0H      LDR      r0,[pc,#192] ; [0x6948] = 0x200005f0
        0x00006888:    6800        .h      LDR      r0,[r0,#0]
        0x0000688a:    1c40        @.      ADDS     r0,r0,#1
        0x0000688c:    492e        .I      LDR      r1,[pc,#184] ; [0x6948] = 0x200005f0
        0x0000688e:    6008        .`      STR      r0,[r1,#0]
        0x00006890:    07c0        ..      LSLS     r0,r0,#31
        0x00006892:    0fc0        ..      LSRS     r0,r0,#31
        0x00006894:    d009        ..      BEQ      0x68aa ; DWP83SpiritTask + 82
        0x00006896:    a02d        -.      ADR      r0,{pc}+0xb6 ; 0x694c
        0x00006898:    f7fbf904    ....    BL       iputs ; 0x1aa4
        0x0000689c:    4817        .H      LDR      r0,[pc,#92] ; [0x68fc] = 0x200005f8
        0x0000689e:    8802        ..      LDRH     r2,[r0,#0]
        0x000068a0:    482f        /H      LDR      r0,[pc,#188] ; [0x6960] = 0x200005d0
        0x000068a2:    7801        .x      LDRB     r1,[r0,#0]
        0x000068a4:    2001        .       MOVS     r0,#1
        0x000068a6:    f7fffbfd    ....    BL       DWHP83SendCmd ; 0x60a4
        0x000068aa:    2003        .       MOVS     r0,#3
        0x000068ac:    f7fbfcab    ....    BL       sysDelayMs ; 0x2206
        0x000068b0:    481b        .H      LDR      r0,[pc,#108] ; [0x6920] = 0x200005cc
        0x000068b2:    7800        .x      LDRB     r0,[r0,#0]
        0x000068b4:    07c0        ..      LSLS     r0,r0,#31
        0x000068b6:    0fc0        ..      LSRS     r0,r0,#31
        0x000068b8:    d060        `.      BEQ      0x697c ; DWP83SpiritTask + 292
        0x000068ba:    e056        V.      B        0x696a ; DWP83SpiritTask + 274
    $d
        0x000068bc:    200005ec    ...     DCD    536872428
        0x000068c0:    20000b0a    ...     DCD    536873738
        0x000068c4:    20000b81    ...     DCD    536873857
        0x000068c8:    43200a0d    .. C    DCD    1126173197
        0x000068cc:    65722075    u re    DCD    1701978229
        0x000068d0:    6d632063    c cm    DCD    1835212899
        0x000068d4:    00203a64    d: .    DCD    2112100
        0x000068d8:    43200a0d    .. C    DCD    1126173197
        0x000068dc:    435f444d    MD_C    DCD    1130316877
        0x000068e0:    5f554d55    UMU_    DCD    1599425877
        0x000068e4:    54495753    SWIT    DCD    1414092627
        0x000068e8:    2d2d4843    CH--    DCD    757942339
        0x000068ec:    0d2e3130    01..    DCD    221131056
        0x000068f0:    0000000a    ....    DCD    10
        0x000068f4:    200005dc    ...     DCD    536872412
        0x000068f8:    20000237    7..     DCD    536871479
        0x000068fc:    200005f8    ...     DCD    536872440
        0x00006900:    200005d4    ...     DCD    536872404
        0x00006904:    43200a0d    .. C    DCD    1126173197
        0x00006908:    435f444d    MD_C    DCD    1130316877
        0x0000690c:    5f554d55    UMU_    DCD    1599425877
        0x00006910:    54495753    SWIT    DCD    1414092627
        0x00006914:    2d2d4843    CH--    DCD    757942339
        0x00006918:    0d2e3330    03..    DCD    221131568
        0x0000691c:    0000000a    ....    DCD    10
        0x00006920:    200005cc    ...     DCD    536872396
        0x00006924:    2000037c    |..     DCD    536871804
        0x00006928:    200005b4    ...     DCD    536872372
        0x0000692c:    20000ae6    ...     DCD    536873702
        0x00006930:    20000aa4    ...     DCD    536873636
        0x00006934:    200005c8    ...     DCD    536872392
        0x00006938:    000055aa    .U..    DCD    21930
        0x0000693c:    0000aa55    U...    DCD    43605
        0x00006940:    200005c0    ...     DCD    536872384
        0x00006944:    200005f4    ...     DCD    536872436
        0x00006948:    200005f0    ...     DCD    536872432
        0x0000694c:    43200a0d    .. C    DCD    1126173197
        0x00006950:    4f52444d    MDRO    DCD    1330791501
        0x00006954:    2d455455    UTE-    DCD    759518293
        0x00006958:    2e31302d    -01.    DCD    774975533
        0x0000695c:    00000a0d    ....    DCD    2573
        0x00006960:    200005d0    ...     DCD    536872400
    $t
        0x00006964:    e049        I.      B        0x69fa ; DWP83SpiritTask + 418
        0x00006966:    e031        1.      B        0x69cc ; DWP83SpiritTask + 372
        0x00006968:    e026        &.      B        0x69b8 ; DWP83SpiritTask + 352
        0x0000696a:    a041        A.      ADR      r0,{pc}+0x106 ; 0x6a70
        0x0000696c:    f7fbf89a    ....    BL       iputs ; 0x1aa4
        0x00006970:    4846        FH      LDR      r0,[pc,#280] ; [0x6a8c] = 0x200005f8
        0x00006972:    8802        ..      LDRH     r2,[r0,#0]
        0x00006974:    2100        .!      MOVS     r1,#0
        0x00006976:    2002        .       MOVS     r0,#2
        0x00006978:    f7fffb94    ....    BL       DWHP83SendCmd ; 0x60a4
        0x0000697c:    2003        .       MOVS     r0,#3
        0x0000697e:    f7fbfc42    ..B.    BL       sysDelayMs ; 0x2206
        0x00006982:    4843        CH      LDR      r0,[pc,#268] ; [0x6a90] = 0x200005cc
        0x00006984:    6800        .h      LDR      r0,[r0,#0]
        0x00006986:    2104        .!      MOVS     r1,#4
        0x00006988:    4208        .B      TST      r0,r1
        0x0000698a:    d005        ..      BEQ      0x6998 ; DWP83SpiritTask + 320
        0x0000698c:    483f        ?H      LDR      r0,[pc,#252] ; [0x6a8c] = 0x200005f8
        0x0000698e:    8802        ..      LDRH     r2,[r0,#0]
        0x00006990:    2100        .!      MOVS     r1,#0
        0x00006992:    2005        .       MOVS     r0,#5
        0x00006994:    f7fffb86    ....    BL       DWHP83SendCmd ; 0x60a4
        0x00006998:    2003        .       MOVS     r0,#3
        0x0000699a:    f7fbfc34    ..4.    BL       sysDelayMs ; 0x2206
        0x0000699e:    483c        <H      LDR      r0,[pc,#240] ; [0x6a90] = 0x200005cc
        0x000069a0:    6800        .h      LDR      r0,[r0,#0]
        0x000069a2:    2102        .!      MOVS     r1,#2
        0x000069a4:    4208        .B      TST      r0,r1
        0x000069a6:    d007        ..      BEQ      0x69b8 ; DWP83SpiritTask + 352
        0x000069a8:    483a        :H      LDR      r0,[pc,#232] ; [0x6a94] = 0x2000037c
        0x000069aa:    7801        .x      LDRB     r1,[r0,#0]
        0x000069ac:    4837        7H      LDR      r0,[pc,#220] ; [0x6a8c] = 0x200005f8
        0x000069ae:    8802        ..      LDRH     r2,[r0,#0]
        0x000069b0:    4839        9H      LDR      r0,[pc,#228] ; [0x6a98] = 0x200005d0
        0x000069b2:    7800        .x      LDRB     r0,[r0,#0]
        0x000069b4:    f7fffc51    ..Q.    BL       DWPH83VolumeChange ; 0x625a
        0x000069b8:    4838        8H      LDR      r0,[pc,#224] ; [0x6a9c] = 0x200005d4
        0x000069ba:    6800        .h      LDR      r0,[r0,#0]
        0x000069bc:    1c40        @.      ADDS     r0,r0,#1
        0x000069be:    4937        7I      LDR      r1,[pc,#220] ; [0x6a9c] = 0x200005d4
        0x000069c0:    6008        .`      STR      r0,[r1,#0]
        0x000069c2:    280a        .(      CMP      r0,#0xa
        0x000069c4:    d91c        ..      BLS      0x6a00 ; DWP83SpiritTask + 424
        0x000069c6:    2008        .       MOVS     r0,#8
        0x000069c8:    6008        .`      STR      r0,[r1,#0]
        0x000069ca:    e019        ..      B        0x6a00 ; DWP83SpiritTask + 424
        0x000069cc:    f7fffd01    ....    BL       dealMuContainer ; 0x63d2
        0x000069d0:    4833        3H      LDR      r0,[pc,#204] ; [0x6aa0] = 0x200005dc
        0x000069d2:    6800        .h      LDR      r0,[r0,#0]
        0x000069d4:    2801        .(      CMP      r0,#1
        0x000069d6:    d104        ..      BNE      0x69e2 ; DWP83SpiritTask + 394
        0x000069d8:    2000        .       MOVS     r0,#0
        0x000069da:    4932        2I      LDR      r1,[pc,#200] ; [0x6aa4] = 0x200005f0
        0x000069dc:    6008        .`      STR      r0,[r1,#0]
        0x000069de:    4930        0I      LDR      r1,[pc,#192] ; [0x6aa0] = 0x200005dc
        0x000069e0:    6008        .`      STR      r0,[r1,#0]
        0x000069e2:    4830        0H      LDR      r0,[pc,#192] ; [0x6aa4] = 0x200005f0
        0x000069e4:    6800        .h      LDR      r0,[r0,#0]
        0x000069e6:    1c40        @.      ADDS     r0,r0,#1
        0x000069e8:    492e        .I      LDR      r1,[pc,#184] ; [0x6aa4] = 0x200005f0
        0x000069ea:    6008        .`      STR      r0,[r1,#0]
        0x000069ec:    2803        .(      CMP      r0,#3
        0x000069ee:    d907        ..      BLS      0x6a00 ; DWP83SpiritTask + 424
        0x000069f0:    2000        .       MOVS     r0,#0
        0x000069f2:    6008        .`      STR      r0,[r1,#0]
        0x000069f4:    f7fffc74    ..t.    BL       DWP83CuCV ; 0x62e0
        0x000069f8:    e002        ..      B        0x6a00 ; DWP83SpiritTask + 424
        0x000069fa:    200a        .       MOVS     r0,#0xa
        0x000069fc:    4927        'I      LDR      r1,[pc,#156] ; [0x6a9c] = 0x200005d4
        0x000069fe:    6008        .`      STR      r0,[r1,#0]
        0x00006a00:    4b29        )K      LDR      r3,[pc,#164] ; [0x6aa8] = 0x6859
        0x00006a02:    2200        ."      MOVS     r2,#0
        0x00006a04:    4929        )I      LDR      r1,[pc,#164] ; [0x6aac] = 0x5dc
        0x00006a06:    482a        *H      LDR      r0,[pc,#168] ; [0x6ab0] = 0x200005e0
        0x00006a08:    7800        .x      LDRB     r0,[r0,#0]
        0x00006a0a:    f7fbfcf5    ....    BL       startATask ; 0x23f8
        0x00006a0e:    bd10        ..      POP      {r4,pc}
    DWPH83Init
        0x00006a10:    b510        ..      PUSH     {r4,lr}
        0x00006a12:    2400        .$      MOVS     r4,#0
        0x00006a14:    f7fbfcc0    ....    BL       getATask ; 0x2398
        0x00006a18:    4925        %I      LDR      r1,[pc,#148] ; [0x6ab0] = 0x200005e0
        0x00006a1a:    7008        .p      STRB     r0,[r1,#0]
        0x00006a1c:    f7fbfcbc    ....    BL       getATask ; 0x2398
        0x00006a20:    4924        $I      LDR      r1,[pc,#144] ; [0x6ab4] = 0x200005fa
        0x00006a22:    7008        .p      STRB     r0,[r1,#0]
        0x00006a24:    2000        .       MOVS     r0,#0
        0x00006a26:    491d        .I      LDR      r1,[pc,#116] ; [0x6a9c] = 0x200005d4
        0x00006a28:    6008        .`      STR      r0,[r1,#0]
        0x00006a2a:    bf00        ..      NOP      
        0x00006a2c:    e009        ..      B        0x6a42 ; DWPH83Init + 50
        0x00006a2e:    2000        .       MOVS     r0,#0
        0x00006a30:    0061        a.      LSLS     r1,r4,#1
        0x00006a32:    4a21        !J      LDR      r2,[pc,#132] ; [0x6ab8] = 0x20000b0a
        0x00006a34:    5250        PR      STRH     r0,[r2,r1]
        0x00006a36:    2105        .!      MOVS     r1,#5
        0x00006a38:    0062        b.      LSLS     r2,r4,#1
        0x00006a3a:    481f        .H      LDR      r0,[pc,#124] ; [0x6ab8] = 0x20000b0a
        0x00006a3c:    3018        .0      ADDS     r0,r0,#0x18
        0x00006a3e:    5281        .R      STRH     r1,[r0,r2]
        0x00006a40:    1c64        d.      ADDS     r4,r4,#1
        0x00006a42:    2c0a        .,      CMP      r4,#0xa
        0x00006a44:    d3f3        ..      BCC      0x6a2e ; DWPH83Init + 30
        0x00006a46:    20ff        .       MOVS     r0,#0xff
        0x00006a48:    491c        .I      LDR      r1,[pc,#112] ; [0x6abc] = 0x200005c1
        0x00006a4a:    7088        .p      STRB     r0,[r1,#2]
        0x00006a4c:    7048        Hp      STRB     r0,[r1,#1]
        0x00006a4e:    7008        .p      STRB     r0,[r1,#0]
        0x00006a50:    4b15        .K      LDR      r3,[pc,#84] ; [0x6aa8] = 0x6859
        0x00006a52:    2200        ."      MOVS     r2,#0
        0x00006a54:    217d        }!      MOVS     r1,#0x7d
        0x00006a56:    00c9        ..      LSLS     r1,r1,#3
        0x00006a58:    4815        .H      LDR      r0,[pc,#84] ; [0x6ab0] = 0x200005e0
        0x00006a5a:    7800        .x      LDRB     r0,[r0,#0]
        0x00006a5c:    f7fbfccc    ....    BL       startATask ; 0x23f8
        0x00006a60:    bd10        ..      POP      {r4,pc}
    GPIO_SET_PIN
        0x00006a62:    2101        .!      MOVS     r1,#1
        0x00006a64:    6001        .`      STR      r1,[r0,#0]
        0x00006a66:    4770        pG      BX       lr
    GPIO_CLR_PIN
        0x00006a68:    2100        .!      MOVS     r1,#0
        0x00006a6a:    6001        .`      STR      r1,[r0,#0]
        0x00006a6c:    4770        pG      BX       lr
    $d
        0x00006a6e:    0000        ..      DCW    0
        0x00006a70:    43200a0d    .. C    DCD    1126173197
        0x00006a74:    435f444d    MD_C    DCD    1130316877
        0x00006a78:    5f554d55    UMU_    DCD    1599425877
        0x00006a7c:    54495753    SWIT    DCD    1414092627
        0x00006a80:    2d2d4843    CH--    DCD    757942339
        0x00006a84:    0d2e3230    02..    DCD    221131312
        0x00006a88:    0000000a    ....    DCD    10
        0x00006a8c:    200005f8    ...     DCD    536872440
        0x00006a90:    200005cc    ...     DCD    536872396
        0x00006a94:    2000037c    |..     DCD    536871804
        0x00006a98:    200005d0    ...     DCD    536872400
        0x00006a9c:    200005d4    ...     DCD    536872404
        0x00006aa0:    200005dc    ...     DCD    536872412
        0x00006aa4:    200005f0    ...     DCD    536872432
        0x00006aa8:    00006859    Yh..    DCD    26713
        0x00006aac:    000005dc    ....    DCD    1500
        0x00006ab0:    200005e0    ...     DCD    536872416
        0x00006ab4:    200005fa    ...     DCD    536872442
        0x00006ab8:    20000b0a    ...     DCD    536873738
        0x00006abc:    200005c1    ...     DCD    536872385
    $t
    .text
    cs8422SendCmd
        0x00006ac0:    b57c        |.      PUSH     {r2-r6,lr}
        0x00006ac2:    4604        .F      MOV      r4,r0
        0x00006ac4:    460d        .F      MOV      r5,r1
        0x00006ac6:    48b5        .H      LDR      r0,[pc,#724] ; [0x6d9c] = 0x200005ff
        0x00006ac8:    2101        .!      MOVS     r1,#1
        0x00006aca:    2302        .#      MOVS     r3,#2
        0x00006acc:    2200        ."      MOVS     r2,#0
        0x00006ace:    9100        ..      STR      r1,[sp,#0]
        0x00006ad0:    9001        ..      STR      r0,[sp,#4]
        0x00006ad2:    212e        .!      MOVS     r1,#0x2e
        0x00006ad4:    48b2        .H      LDR      r0,[pc,#712] ; [0x6da0] = 0x20000b94
        0x00006ad6:    f7fcfa4a    ..J.    BL       initI2cDataBlock ; 0x2f6e
        0x00006ada:    48b0        .H      LDR      r0,[pc,#704] ; [0x6d9c] = 0x200005ff
        0x00006adc:    7044        Dp      STRB     r4,[r0,#1]
        0x00006ade:    7085        .p      STRB     r5,[r0,#2]
        0x00006ae0:    20a2        .       MOVS     r0,#0xa2
        0x00006ae2:    49ae        .I      LDR      r1,[pc,#696] ; [0x6d9c] = 0x200005ff
        0x00006ae4:    7008        .p      STRB     r0,[r1,#0]
        0x00006ae6:    2100        .!      MOVS     r1,#0
        0x00006ae8:    48ad        .H      LDR      r0,[pc,#692] ; [0x6da0] = 0x20000b94
        0x00006aea:    f7fcfb07    ....    BL       addI2cChain ; 0x30fc
        0x00006aee:    bf00        ..      NOP      
        0x00006af0:    48aa        .H      LDR      r0,[pc,#680] ; [0x6d9c] = 0x200005ff
        0x00006af2:    7800        .x      LDRB     r0,[r0,#0]
        0x00006af4:    28a2        .(      CMP      r0,#0xa2
        0x00006af6:    d0fb        ..      BEQ      0x6af0 ; cs8422SendCmd + 48
        0x00006af8:    bd7c        |.      POP      {r2-r6,pc}
    cs8422SRCSourceSDIN
        0x00006afa:    b510        ..      PUSH     {r4,lr}
        0x00006afc:    2100        .!      MOVS     r1,#0
        0x00006afe:    200a        .       MOVS     r0,#0xa
        0x00006b00:    f7ffffde    ....    BL       cs8422SendCmd ; 0x6ac0
        0x00006b04:    bd10        ..      POP      {r4,pc}
    cs8422SRCSourceAES3
        0x00006b06:    b510        ..      PUSH     {r4,lr}
        0x00006b08:    2102        .!      MOVS     r1,#2
        0x00006b0a:    200a        .       MOVS     r0,#0xa
        0x00006b0c:    f7ffffd8    ....    BL       cs8422SendCmd ; 0x6ac0
        0x00006b10:    bd10        ..      POP      {r4,pc}
    cs8422AESRX2
        0x00006b12:    b510        ..      PUSH     {r4,lr}
        0x00006b14:    21d4        .!      MOVS     r1,#0xd4
        0x00006b16:    2003        .       MOVS     r0,#3
        0x00006b18:    f7ffffd2    ....    BL       cs8422SendCmd ; 0x6ac0
        0x00006b1c:    bd10        ..      POP      {r4,pc}
    getMuAddr
        0x00006b1e:    b510        ..      PUSH     {r4,lr}
        0x00006b20:    bf00        ..      NOP      
        0x00006b22:    bf00        ..      NOP      
        0x00006b24:    f7ffffe9    ....    BL       cs8422SRCSourceSDIN ; 0x6afa
        0x00006b28:    489e        .H      LDR      r0,[pc,#632] ; [0x6da4] = 0x5dc
        0x00006b2a:    f7fbfb6c    ..l.    BL       sysDelayMs ; 0x2206
        0x00006b2e:    489e        .H      LDR      r0,[pc,#632] ; [0x6da8] = 0x200005b0
        0x00006b30:    6800        .h      LDR      r0,[r0,#0]
        0x00006b32:    0200        ..      LSLS     r0,r0,#8
        0x00006b34:    0c00        ..      LSRS     r0,r0,#16
        0x00006b36:    499d        .I      LDR      r1,[pc,#628] ; [0x6dac] = 0x200005f8
        0x00006b38:    8008        ..      STRH     r0,[r1,#0]
        0x00006b3a:    4608        .F      MOV      r0,r1
        0x00006b3c:    8800        ..      LDRH     r0,[r0,#0]
        0x00006b3e:    2808        .(      CMP      r0,#8
        0x00006b40:    da05        ..      BGE      0x6b4e ; getMuAddr + 48
        0x00006b42:    4608        .F      MOV      r0,r1
        0x00006b44:    7800        .x      LDRB     r0,[r0,#0]
        0x00006b46:    1cc0        ..      ADDS     r0,r0,#3
        0x00006b48:    0600        ..      LSLS     r0,r0,#24
        0x00006b4a:    0c00        ..      LSRS     r0,r0,#16
        0x00006b4c:    8008        ..      STRH     r0,[r1,#0]
        0x00006b4e:    bd10        ..      POP      {r4,pc}
    cs8422InitAllConf
        0x00006b50:    b510        ..      PUSH     {r4,lr}
        0x00006b52:    2100        .!      MOVS     r1,#0
        0x00006b54:    2002        .       MOVS     r0,#2
        0x00006b56:    f7ffffb3    ....    BL       cs8422SendCmd ; 0x6ac0
        0x00006b5a:    21c4        .!      MOVS     r1,#0xc4
        0x00006b5c:    2003        .       MOVS     r0,#3
        0x00006b5e:    f7ffffaf    ....    BL       cs8422SendCmd ; 0x6ac0
        0x00006b62:    2104        .!      MOVS     r1,#4
        0x00006b64:    4608        .F      MOV      r0,r1
        0x00006b66:    f7ffffab    ....    BL       cs8422SendCmd ; 0x6ac0
        0x00006b6a:    2140        @!      MOVS     r1,#0x40
        0x00006b6c:    2008        .       MOVS     r0,#8
        0x00006b6e:    f7ffffa7    ....    BL       cs8422SendCmd ; 0x6ac0
        0x00006b72:    2108        .!      MOVS     r1,#8
        0x00006b74:    2009        .       MOVS     r0,#9
        0x00006b76:    f7ffffa3    ....    BL       cs8422SendCmd ; 0x6ac0
        0x00006b7a:    2100        .!      MOVS     r1,#0
        0x00006b7c:    200a        .       MOVS     r0,#0xa
        0x00006b7e:    f7ffff9f    ....    BL       cs8422SendCmd ; 0x6ac0
        0x00006b82:    2108        .!      MOVS     r1,#8
        0x00006b84:    200b        .       MOVS     r0,#0xb
        0x00006b86:    f7ffff9b    ....    BL       cs8422SendCmd ; 0x6ac0
        0x00006b8a:    2104        .!      MOVS     r1,#4
        0x00006b8c:    200c        .       MOVS     r0,#0xc
        0x00006b8e:    f7ffff97    ....    BL       cs8422SendCmd ; 0x6ac0
        0x00006b92:    f7ffffc4    ....    BL       getMuAddr ; 0x6b1e
        0x00006b96:    4886        .H      LDR      r0,[pc,#536] ; [0x6db0] = 0x20000566
        0x00006b98:    7800        .x      LDRB     r0,[r0,#0]
        0x00006b9a:    2800        .(      CMP      r0,#0
        0x00006b9c:    d107        ..      BNE      0x6bae ; cs8422InitAllConf + 94
        0x00006b9e:    2014        .       MOVS     r0,#0x14
        0x00006ba0:    f7fbfb31    ..1.    BL       sysDelayMs ; 0x2206
        0x00006ba4:    bf00        ..      NOP      
        0x00006ba6:    bf00        ..      NOP      
        0x00006ba8:    f7ffffa7    ....    BL       cs8422SRCSourceSDIN ; 0x6afa
        0x00006bac:    e036        6.      B        0x6c1c ; cs8422InitAllConf + 204
        0x00006bae:    4880        .H      LDR      r0,[pc,#512] ; [0x6db0] = 0x20000566
        0x00006bb0:    7800        .x      LDRB     r0,[r0,#0]
        0x00006bb2:    2802        .(      CMP      r0,#2
        0x00006bb4:    d10a        ..      BNE      0x6bcc ; cs8422InitAllConf + 124
        0x00006bb6:    2014        .       MOVS     r0,#0x14
        0x00006bb8:    f7fbfb25    ..%.    BL       sysDelayMs ; 0x2206
        0x00006bbc:    2000        .       MOVS     r0,#0
        0x00006bbe:    497d        }I      LDR      r1,[pc,#500] ; [0x6db4] = 0x20000264
        0x00006bc0:    6008        .`      STR      r0,[r1,#0]
        0x00006bc2:    bf00        ..      NOP      
        0x00006bc4:    bf00        ..      NOP      
        0x00006bc6:    f7ffff98    ....    BL       cs8422SRCSourceSDIN ; 0x6afa
        0x00006bca:    e027        '.      B        0x6c1c ; cs8422InitAllConf + 204
        0x00006bcc:    4878        xH      LDR      r0,[pc,#480] ; [0x6db0] = 0x20000566
        0x00006bce:    7800        .x      LDRB     r0,[r0,#0]
        0x00006bd0:    2803        .(      CMP      r0,#3
        0x00006bd2:    d10a        ..      BNE      0x6bea ; cs8422InitAllConf + 154
        0x00006bd4:    2014        .       MOVS     r0,#0x14
        0x00006bd6:    f7fbfb16    ....    BL       sysDelayMs ; 0x2206
        0x00006bda:    2000        .       MOVS     r0,#0
        0x00006bdc:    4975        uI      LDR      r1,[pc,#468] ; [0x6db4] = 0x20000264
        0x00006bde:    6008        .`      STR      r0,[r1,#0]
        0x00006be0:    f7ffff97    ....    BL       cs8422AESRX2 ; 0x6b12
        0x00006be4:    f7ffff8f    ....    BL       cs8422SRCSourceAES3 ; 0x6b06
        0x00006be8:    e018        ..      B        0x6c1c ; cs8422InitAllConf + 204
        0x00006bea:    4871        qH      LDR      r0,[pc,#452] ; [0x6db0] = 0x20000566
        0x00006bec:    7800        .x      LDRB     r0,[r0,#0]
        0x00006bee:    2801        .(      CMP      r0,#1
        0x00006bf0:    d114        ..      BNE      0x6c1c ; cs8422InitAllConf + 204
        0x00006bf2:    2014        .       MOVS     r0,#0x14
        0x00006bf4:    f7fbfb07    ....    BL       sysDelayMs ; 0x2206
        0x00006bf8:    2000        .       MOVS     r0,#0
        0x00006bfa:    496e        nI      LDR      r1,[pc,#440] ; [0x6db4] = 0x20000264
        0x00006bfc:    6008        .`      STR      r0,[r1,#0]
        0x00006bfe:    f7fff8ac    ....    BL       Dwhp83CuMuDetect ; 0x5d5a
        0x00006c02:    486d        mH      LDR      r0,[pc,#436] ; [0x6db8] = 0x200005c8
        0x00006c04:    6800        .h      LDR      r0,[r0,#0]
        0x00006c06:    496d        mI      LDR      r1,[pc,#436] ; [0x6dbc] = 0x55aa
        0x00006c08:    4288        .B      CMP      r0,r1
        0x00006c0a:    d101        ..      BNE      0x6c10 ; cs8422InitAllConf + 192
        0x00006c0c:    f7fff802    ....    BL       Dwhp83Slave ; 0x5c14
        0x00006c10:    bf00        ..      NOP      
        0x00006c12:    bf00        ..      NOP      
        0x00006c14:    bf00        ..      NOP      
        0x00006c16:    bf00        ..      NOP      
        0x00006c18:    f7ffff6f    ..o.    BL       cs8422SRCSourceSDIN ; 0x6afa
        0x00006c1c:    bd10        ..      POP      {r4,pc}
    DETECT_USER_MODULE
        0x00006c1e:    b510        ..      PUSH     {r4,lr}
        0x00006c20:    f7fff89b    ....    BL       Dwhp83CuMuDetect ; 0x5d5a
        0x00006c24:    2800        .(      CMP      r0,#0
        0x00006c26:    d100        ..      BNE      0x6c2a ; DETECT_USER_MODULE + 12
        0x00006c28:    bd10        ..      POP      {r4,pc}
        0x00006c2a:    2001        .       MOVS     r0,#1
        0x00006c2c:    e7fc        ..      B        0x6c28 ; DETECT_USER_MODULE + 10
    getNextInput
        0x00006c2e:    b510        ..      PUSH     {r4,lr}
        0x00006c30:    f7fffff5    ....    BL       DETECT_USER_MODULE ; 0x6c1e
        0x00006c34:    2800        .(      CMP      r0,#0
        0x00006c36:    d023        #.      BEQ      0x6c80 ; getNextInput + 82
        0x00006c38:    4861        aH      LDR      r0,[pc,#388] ; [0x6dc0] = 0x20000578
        0x00006c3a:    7800        .x      LDRB     r0,[r0,#0]
        0x00006c3c:    4961        aI      LDR      r1,[pc,#388] ; [0x6dc4] = 0x200005fd
        0x00006c3e:    7008        .p      STRB     r0,[r1,#0]
        0x00006c40:    2004        .       MOVS     r0,#4
        0x00006c42:    495f        _I      LDR      r1,[pc,#380] ; [0x6dc0] = 0x20000578
        0x00006c44:    6008        .`      STR      r0,[r1,#0]
        0x00006c46:    485a        ZH      LDR      r0,[pc,#360] ; [0x6db0] = 0x20000566
        0x00006c48:    7800        .x      LDRB     r0,[r0,#0]
        0x00006c4a:    2800        .(      CMP      r0,#0
        0x00006c4c:    d006        ..      BEQ      0x6c5c ; getNextInput + 46
        0x00006c4e:    2801        .(      CMP      r0,#1
        0x00006c50:    d008        ..      BEQ      0x6c64 ; getNextInput + 54
        0x00006c52:    2802        .(      CMP      r0,#2
        0x00006c54:    d00a        ..      BEQ      0x6c6c ; getNextInput + 62
        0x00006c56:    2803        .(      CMP      r0,#3
        0x00006c58:    d110        ..      BNE      0x6c7c ; getNextInput + 78
        0x00006c5a:    e00b        ..      B        0x6c74 ; getNextInput + 70
        0x00006c5c:    2001        .       MOVS     r0,#1
        0x00006c5e:    4954        TI      LDR      r1,[pc,#336] ; [0x6db0] = 0x20000566
        0x00006c60:    7008        .p      STRB     r0,[r1,#0]
        0x00006c62:    bd10        ..      POP      {r4,pc}
        0x00006c64:    2002        .       MOVS     r0,#2
        0x00006c66:    4952        RI      LDR      r1,[pc,#328] ; [0x6db0] = 0x20000566
        0x00006c68:    7008        .p      STRB     r0,[r1,#0]
        0x00006c6a:    e7fa        ..      B        0x6c62 ; getNextInput + 52
        0x00006c6c:    2003        .       MOVS     r0,#3
        0x00006c6e:    4950        PI      LDR      r1,[pc,#320] ; [0x6db0] = 0x20000566
        0x00006c70:    7008        .p      STRB     r0,[r1,#0]
        0x00006c72:    e7f6        ..      B        0x6c62 ; getNextInput + 52
        0x00006c74:    2000        .       MOVS     r0,#0
        0x00006c76:    494e        NI      LDR      r1,[pc,#312] ; [0x6db0] = 0x20000566
        0x00006c78:    7008        .p      STRB     r0,[r1,#0]
        0x00006c7a:    e7f2        ..      B        0x6c62 ; getNextInput + 52
        0x00006c7c:    bf00        ..      NOP      
        0x00006c7e:    e020         .      B        0x6cc2 ; getNextInput + 148
        0x00006c80:    484f        OH      LDR      r0,[pc,#316] ; [0x6dc0] = 0x20000578
        0x00006c82:    7800        .x      LDRB     r0,[r0,#0]
        0x00006c84:    494f        OI      LDR      r1,[pc,#316] ; [0x6dc4] = 0x200005fd
        0x00006c86:    7008        .p      STRB     r0,[r1,#0]
        0x00006c88:    2003        .       MOVS     r0,#3
        0x00006c8a:    494d        MI      LDR      r1,[pc,#308] ; [0x6dc0] = 0x20000578
        0x00006c8c:    6008        .`      STR      r0,[r1,#0]
        0x00006c8e:    4848        HH      LDR      r0,[pc,#288] ; [0x6db0] = 0x20000566
        0x00006c90:    7800        .x      LDRB     r0,[r0,#0]
        0x00006c92:    2800        .(      CMP      r0,#0
        0x00006c94:    d004        ..      BEQ      0x6ca0 ; getNextInput + 114
        0x00006c96:    2802        .(      CMP      r0,#2
        0x00006c98:    d006        ..      BEQ      0x6ca8 ; getNextInput + 122
        0x00006c9a:    2803        .(      CMP      r0,#3
        0x00006c9c:    d10c        ..      BNE      0x6cb8 ; getNextInput + 138
        0x00006c9e:    e007        ..      B        0x6cb0 ; getNextInput + 130
        0x00006ca0:    2002        .       MOVS     r0,#2
        0x00006ca2:    4943        CI      LDR      r1,[pc,#268] ; [0x6db0] = 0x20000566
        0x00006ca4:    7008        .p      STRB     r0,[r1,#0]
        0x00006ca6:    e7dc        ..      B        0x6c62 ; getNextInput + 52
        0x00006ca8:    2003        .       MOVS     r0,#3
        0x00006caa:    4941        AI      LDR      r1,[pc,#260] ; [0x6db0] = 0x20000566
        0x00006cac:    7008        .p      STRB     r0,[r1,#0]
        0x00006cae:    e7d8        ..      B        0x6c62 ; getNextInput + 52
        0x00006cb0:    2000        .       MOVS     r0,#0
        0x00006cb2:    493f        ?I      LDR      r1,[pc,#252] ; [0x6db0] = 0x20000566
        0x00006cb4:    7008        .p      STRB     r0,[r1,#0]
        0x00006cb6:    e7d4        ..      B        0x6c62 ; getNextInput + 52
        0x00006cb8:    2002        .       MOVS     r0,#2
        0x00006cba:    493d        =I      LDR      r1,[pc,#244] ; [0x6db0] = 0x20000566
        0x00006cbc:    7008        .p      STRB     r0,[r1,#0]
        0x00006cbe:    bf00        ..      NOP      
        0x00006cc0:    bf00        ..      NOP      
        0x00006cc2:    2000        .       MOVS     r0,#0
        0x00006cc4:    e7cd        ..      B        0x6c62 ; getNextInput + 52
    changeInputChannel
        0x00006cc6:    b510        ..      PUSH     {r4,lr}
        0x00006cc8:    2032        2       MOVS     r0,#0x32
        0x00006cca:    f7fbfa9c    ....    BL       sysDelayMs ; 0x2206
        0x00006cce:    4838        8H      LDR      r0,[pc,#224] ; [0x6db0] = 0x20000566
        0x00006cd0:    7800        .x      LDRB     r0,[r0,#0]
        0x00006cd2:    2800        .(      CMP      r0,#0
        0x00006cd4:    d106        ..      BNE      0x6ce4 ; changeInputChannel + 30
        0x00006cd6:    493c        <I      LDR      r1,[pc,#240] ; [0x6dc8] = 0x20000171
        0x00006cd8:    7008        .p      STRB     r0,[r1,#0]
        0x00006cda:    bf00        ..      NOP      
        0x00006cdc:    bf00        ..      NOP      
        0x00006cde:    f7ffff0c    ....    BL       cs8422SRCSourceSDIN ; 0x6afa
        0x00006ce2:    e031        1.      B        0x6d48 ; changeInputChannel + 130
        0x00006ce4:    4832        2H      LDR      r0,[pc,#200] ; [0x6db0] = 0x20000566
        0x00006ce6:    7800        .x      LDRB     r0,[r0,#0]
        0x00006ce8:    2802        .(      CMP      r0,#2
        0x00006cea:    d107        ..      BNE      0x6cfc ; changeInputChannel + 54
        0x00006cec:    2000        .       MOVS     r0,#0
        0x00006cee:    4931        1I      LDR      r1,[pc,#196] ; [0x6db4] = 0x20000264
        0x00006cf0:    6008        .`      STR      r0,[r1,#0]
        0x00006cf2:    bf00        ..      NOP      
        0x00006cf4:    bf00        ..      NOP      
        0x00006cf6:    f7ffff00    ....    BL       cs8422SRCSourceSDIN ; 0x6afa
        0x00006cfa:    e025        %.      B        0x6d48 ; changeInputChannel + 130
        0x00006cfc:    482c        ,H      LDR      r0,[pc,#176] ; [0x6db0] = 0x20000566
        0x00006cfe:    7800        .x      LDRB     r0,[r0,#0]
        0x00006d00:    2803        .(      CMP      r0,#3
        0x00006d02:    d107        ..      BNE      0x6d14 ; changeInputChannel + 78
        0x00006d04:    2000        .       MOVS     r0,#0
        0x00006d06:    492b        +I      LDR      r1,[pc,#172] ; [0x6db4] = 0x20000264
        0x00006d08:    6008        .`      STR      r0,[r1,#0]
        0x00006d0a:    f7ffff02    ....    BL       cs8422AESRX2 ; 0x6b12
        0x00006d0e:    f7fffefa    ....    BL       cs8422SRCSourceAES3 ; 0x6b06
        0x00006d12:    e019        ..      B        0x6d48 ; changeInputChannel + 130
        0x00006d14:    4826        &H      LDR      r0,[pc,#152] ; [0x6db0] = 0x20000566
        0x00006d16:    7800        .x      LDRB     r0,[r0,#0]
        0x00006d18:    2801        .(      CMP      r0,#1
        0x00006d1a:    d115        ..      BNE      0x6d48 ; changeInputChannel + 130
        0x00006d1c:    2000        .       MOVS     r0,#0
        0x00006d1e:    4925        %I      LDR      r1,[pc,#148] ; [0x6db4] = 0x20000264
        0x00006d20:    6008        .`      STR      r0,[r1,#0]
        0x00006d22:    f7fff81a    ....    BL       Dwhp83CuMuDetect ; 0x5d5a
        0x00006d26:    4824        $H      LDR      r0,[pc,#144] ; [0x6db8] = 0x200005c8
        0x00006d28:    6800        .h      LDR      r0,[r0,#0]
        0x00006d2a:    4924        $I      LDR      r1,[pc,#144] ; [0x6dbc] = 0x55aa
        0x00006d2c:    4288        .B      CMP      r0,r1
        0x00006d2e:    d105        ..      BNE      0x6d3c ; changeInputChannel + 118
        0x00006d30:    4826        &H      LDR      r0,[pc,#152] ; [0x6dcc] = 0x20000058
        0x00006d32:    7800        .x      LDRB     r0,[r0,#0]
        0x00006d34:    2800        .(      CMP      r0,#0
        0x00006d36:    d101        ..      BNE      0x6d3c ; changeInputChannel + 118
        0x00006d38:    f7feff6c    ..l.    BL       Dwhp83Slave ; 0x5c14
        0x00006d3c:    bf00        ..      NOP      
        0x00006d3e:    bf00        ..      NOP      
        0x00006d40:    bf00        ..      NOP      
        0x00006d42:    bf00        ..      NOP      
        0x00006d44:    f7fffed9    ....    BL       cs8422SRCSourceSDIN ; 0x6afa
        0x00006d48:    f7fefbd3    ....    BL       unMute ; 0x54f2
        0x00006d4c:    f7fefc57    ..W.    BL       changeInputVolumeUp ; 0x55fe
        0x00006d50:    f7fefff8    ....    BL       DWHP83UnMute ; 0x5d44
        0x00006d54:    bd10        ..      POP      {r4,pc}
    InputChannelCheck
        0x00006d56:    b510        ..      PUSH     {r4,lr}
        0x00006d58:    4811        .H      LDR      r0,[pc,#68] ; [0x6da0] = 0x20000b94
        0x00006d5a:    6880        .h      LDR      r0,[r0,#8]
        0x00006d5c:    7800        .x      LDRB     r0,[r0,#0]
        0x00006d5e:    28a0        .(      CMP      r0,#0xa0
        0x00006d60:    d100        ..      BNE      0x6d64 ; InputChannelCheck + 14
        0x00006d62:    bd10        ..      POP      {r4,pc}
        0x00006d64:    480e        .H      LDR      r0,[pc,#56] ; [0x6da0] = 0x20000b94
        0x00006d66:    6880        .h      LDR      r0,[r0,#8]
        0x00006d68:    7800        .x      LDRB     r0,[r0,#0]
        0x00006d6a:    28a2        .(      CMP      r0,#0xa2
        0x00006d6c:    d107        ..      BNE      0x6d7e ; InputChannelCheck + 40
        0x00006d6e:    4b18        .K      LDR      r3,[pc,#96] ; [0x6dd0] = 0x6d57
        0x00006d70:    2200        ."      MOVS     r2,#0
        0x00006d72:    2102        .!      MOVS     r1,#2
        0x00006d74:    4817        .H      LDR      r0,[pc,#92] ; [0x6dd4] = 0x200005fc
        0x00006d76:    7800        .x      LDRB     r0,[r0,#0]
        0x00006d78:    f7fbfb3e    ..>.    BL       startATask ; 0x23f8
        0x00006d7c:    e7f1        ..      B        0x6d62 ; InputChannelCheck + 12
        0x00006d7e:    f7ffffa2    ....    BL       changeInputChannel ; 0x6cc6
        0x00006d82:    bf00        ..      NOP      
        0x00006d84:    e7ed        ..      B        0x6d62 ; InputChannelCheck + 12
    cs8422Init
        0x00006d86:    b510        ..      PUSH     {r4,lr}
        0x00006d88:    f7fbfb06    ....    BL       getATask ; 0x2398
        0x00006d8c:    4912        .I      LDR      r1,[pc,#72] ; [0x6dd8] = 0x200005fb
        0x00006d8e:    7008        .p      STRB     r0,[r1,#0]
        0x00006d90:    f7fbfb02    ....    BL       getATask ; 0x2398
        0x00006d94:    490f        .I      LDR      r1,[pc,#60] ; [0x6dd4] = 0x200005fc
        0x00006d96:    7008        .p      STRB     r0,[r1,#0]
        0x00006d98:    bd10        ..      POP      {r4,pc}
    $d
        0x00006d9a:    0000        ..      DCW    0
        0x00006d9c:    200005ff    ...     DCD    536872447
        0x00006da0:    20000b94    ...     DCD    536873876
        0x00006da4:    000005dc    ....    DCD    1500
        0x00006da8:    200005b0    ...     DCD    536872368
        0x00006dac:    200005f8    ...     DCD    536872440
        0x00006db0:    20000566    f..     DCD    536872294
        0x00006db4:    20000264    d..     DCD    536871524
        0x00006db8:    200005c8    ...     DCD    536872392
        0x00006dbc:    000055aa    .U..    DCD    21930
        0x00006dc0:    20000578    x..     DCD    536872312
        0x00006dc4:    200005fd    ...     DCD    536872445
        0x00006dc8:    20000171    q..     DCD    536871281
        0x00006dcc:    20000058    X..     DCD    536871000
        0x00006dd0:    00006d57    Wm..    DCD    27991
        0x00006dd4:    200005fc    ...     DCD    536872444
        0x00006dd8:    200005fb    ...     DCD    536872443
    $t
    .text
    __aeabi_uidiv
    __aeabi_uidivmod
        0x00006ddc:    b530        0.      PUSH     {r4,r5,lr}
        0x00006dde:    460b        .F      MOV      r3,r1
        0x00006de0:    4601        .F      MOV      r1,r0
        0x00006de2:    2000        .       MOVS     r0,#0
        0x00006de4:    2220         "      MOVS     r2,#0x20
        0x00006de6:    2401        .$      MOVS     r4,#1
        0x00006de8:    e009        ..      B        0x6dfe ; __aeabi_uidiv + 34
        0x00006dea:    460d        .F      MOV      r5,r1
        0x00006dec:    40d5        .@      LSRS     r5,r5,r2
        0x00006dee:    429d        .B      CMP      r5,r3
        0x00006df0:    d305        ..      BCC      0x6dfe ; __aeabi_uidiv + 34
        0x00006df2:    461d        .F      MOV      r5,r3
        0x00006df4:    4095        .@      LSLS     r5,r5,r2
        0x00006df6:    1b49        I.      SUBS     r1,r1,r5
        0x00006df8:    4625        %F      MOV      r5,r4
        0x00006dfa:    4095        .@      LSLS     r5,r5,r2
        0x00006dfc:    1940        @.      ADDS     r0,r0,r5
        0x00006dfe:    4615        .F      MOV      r5,r2
        0x00006e00:    1e52        R.      SUBS     r2,r2,#1
        0x00006e02:    2d00        .-      CMP      r5,#0
        0x00006e04:    dcf1        ..      BGT      0x6dea ; __aeabi_uidiv + 14
        0x00006e06:    bd30        0.      POP      {r4,r5,pc}
    .text
    __aeabi_memcpy
    __aeabi_memcpy4
    __aeabi_memcpy8
        0x00006e08:    4603        .F      MOV      r3,r0
        0x00006e0a:    430b        .C      ORRS     r3,r3,r1
        0x00006e0c:    079b        ..      LSLS     r3,r3,#30
        0x00006e0e:    d003        ..      BEQ      0x6e18 ; __aeabi_memcpy + 16
        0x00006e10:    e009        ..      B        0x6e26 ; __aeabi_memcpy + 30
        0x00006e12:    c908        ..      LDM      r1!,{r3}
        0x00006e14:    1f12        ..      SUBS     r2,r2,#4
        0x00006e16:    c008        ..      STM      r0!,{r3}
        0x00006e18:    2a04        .*      CMP      r2,#4
        0x00006e1a:    d2fa        ..      BCS      0x6e12 ; __aeabi_memcpy + 10
        0x00006e1c:    e003        ..      B        0x6e26 ; __aeabi_memcpy + 30
        0x00006e1e:    780b        .x      LDRB     r3,[r1,#0]
        0x00006e20:    1c49        I.      ADDS     r1,r1,#1
        0x00006e22:    7003        .p      STRB     r3,[r0,#0]
        0x00006e24:    1c40        @.      ADDS     r0,r0,#1
        0x00006e26:    1e52        R.      SUBS     r2,r2,#1
        0x00006e28:    d2f9        ..      BCS      0x6e1e ; __aeabi_memcpy + 22
        0x00006e2a:    4770        pG      BX       lr
    .text
    __scatterload
    __scatterload_rt2
        0x00006e2c:    4c06        .L      LDR      r4,[pc,#24] ; [0x6e48] = 0x6ee4
        0x00006e2e:    2501        .%      MOVS     r5,#1
        0x00006e30:    4e06        .N      LDR      r6,[pc,#24] ; [0x6e4c] = 0x6f04
        0x00006e32:    e005        ..      B        0x6e40 ; __scatterload + 20
        0x00006e34:    4620         F      MOV      r0,r4
        0x00006e36:    68e3        .h      LDR      r3,[r4,#0xc]
        0x00006e38:    c807        ..      LDM      r0,{r0-r2}
        0x00006e3a:    432b        +C      ORRS     r3,r3,r5
        0x00006e3c:    4798        .G      BLX      r3
        0x00006e3e:    3410        .4      ADDS     r4,r4,#0x10
        0x00006e40:    42b4        .B      CMP      r4,r6
        0x00006e42:    d3f7        ..      BCC      0x6e34 ; __scatterload + 8
        0x00006e44:    f7f9f940    ..@.    BL       __main_after_scatterload ; 0xc8
    $d
        0x00006e48:    00006ee4    .n..    DCD    28388
        0x00006e4c:    00006f04    .o..    DCD    28420
    $t
    i.__ARM_common_switch8
    __ARM_common_switch8
        0x00006e50:    b430        0.      PUSH     {r4,r5}
        0x00006e52:    4674        tF      MOV      r4,lr
        0x00006e54:    1e64        d.      SUBS     r4,r4,#1
        0x00006e56:    7825        %x      LDRB     r5,[r4,#0]
        0x00006e58:    1c64        d.      ADDS     r4,r4,#1
        0x00006e5a:    42ab        .B      CMP      r3,r5
        0x00006e5c:    d304        ..      BCC      0x6e68 ; __ARM_common_switch8 + 24
        0x00006e5e:    5d63        c]      LDRB     r3,[r4,r5]
        0x00006e60:    005b        [.      LSLS     r3,r3,#1
        0x00006e62:    18e3        ..      ADDS     r3,r4,r3
        0x00006e64:    bc30        0.      POP      {r4,r5}
        0x00006e66:    4718        .G      BX       r3
        0x00006e68:    461d        .F      MOV      r5,r3
        0x00006e6a:    e7f8        ..      B        0x6e5e ; __ARM_common_switch8 + 14
    i.__scatterload_copy
    __scatterload_copy
        0x00006e6c:    e002        ..      B        0x6e74 ; __scatterload_copy + 8
        0x00006e6e:    c808        ..      LDM      r0!,{r3}
        0x00006e70:    1f12        ..      SUBS     r2,r2,#4
        0x00006e72:    c108        ..      STM      r1!,{r3}
        0x00006e74:    2a00        .*      CMP      r2,#0
        0x00006e76:    d1fa        ..      BNE      0x6e6e ; __scatterload_copy + 2
        0x00006e78:    4770        pG      BX       lr
    i.__scatterload_null
    __scatterload_null
        0x00006e7a:    4770        pG      BX       lr
    i.__scatterload_zeroinit
    __scatterload_zeroinit
        0x00006e7c:    2000        .       MOVS     r0,#0
        0x00006e7e:    e001        ..      B        0x6e84 ; __scatterload_zeroinit + 8
        0x00006e80:    c101        ..      STM      r1!,{r0}
        0x00006e82:    1f12        ..      SUBS     r2,r2,#4
        0x00006e84:    2a00        .*      CMP      r2,#0
        0x00006e86:    d1fb        ..      BNE      0x6e80 ; __scatterload_zeroinit + 4
        0x00006e88:    4770        pG      BX       lr
    $d.realdata
    .constdata
    HEXSTR
        0x00006e8a:    3130        01      DCW    12592
        0x00006e8c:    35343332    2345    DCD    892613426
        0x00006e90:    39383736    6789    DCD    959985462
        0x00006e94:    44434241    ABCD    DCD    1145258561
        0x00006e98:    4645        EF      DCW    17989
    HEXSTR
        0x00006e9a:    3130        01      DCW    12592
        0x00006e9c:    35343332    2345    DCD    892613426
        0x00006ea0:    39383736    6789    DCD    959985462
        0x00006ea4:    44434241    ABCD    DCD    1145258561
        0x00006ea8:    4645        EF      DCW    17989
    HEXSTR
        0x00006eaa:    3130        01      DCW    12592
        0x00006eac:    35343332    2345    DCD    892613426
        0x00006eb0:    39383736    6789    DCD    959985462
        0x00006eb4:    44434241    ABCD    DCD    1145258561
        0x00006eb8:    4645        EF      DCW    17989
    HEXSTR
        0x00006eba:    3130        01      DCW    12592
        0x00006ebc:    35343332    2345    DCD    892613426
        0x00006ec0:    39383736    6789    DCD    959985462
        0x00006ec4:    44434241    ABCD    DCD    1145258561
        0x00006ec8:    4645        EF      DCW    17989
    HEXSTR
        0x00006eca:    3130        01      DCW    12592
        0x00006ecc:    35343332    2345    DCD    892613426
        0x00006ed0:    39383736    6789    DCD    959985462
        0x00006ed4:    44434241    ABCD    DCD    1145258561
        0x00006ed8:    00004645    EF..    DCD    17989
    .constdata
        0x00006edc:    10000000    ....    DCD    268435456
        0x00006ee0:    000001c6    ....    DCD    454
    Region$$Table$$Base
        0x00006ee4:    00006f04    .o..    DCD    28420
        0x00006ee8:    20000000    ...     DCD    536870912
        0x00006eec:    00000604    ....    DCD    1540
        0x00006ef0:    00006e6c    ln..    DCD    28268
        0x00006ef4:    00007508    .u..    DCD    29960
        0x00006ef8:    20000604    ...     DCD    536872452
        0x00006efc:    000009a4    ....    DCD    2468
        0x00006f00:    00006e7c    |n..    DCD    28284
    Region$$Table$$Limit

** Section #2 'ER_RW' (SHT_PROGBITS) [SHF_ALLOC + SHF_WRITE]
    Size   : 1540 bytes (alignment 4)
    Address: 0x20000000


** Section #3 'ER_ZI' (SHT_NOBITS) [SHF_ALLOC + SHF_WRITE]
    Size   : 2468 bytes (alignment 8)
    Address: 0x20000604


** Section #4 '.debug_abbrev' (SHT_PROGBITS)
    Size   : 1476 bytes


** Section #5 '.debug_frame' (SHT_PROGBITS)
    Size   : 9944 bytes


** Section #6 '.debug_info' (SHT_PROGBITS)
    Size   : 188500 bytes


** Section #7 '.debug_line' (SHT_PROGBITS)
    Size   : 35756 bytes


** Section #8 '.debug_loc' (SHT_PROGBITS)
    Size   : 21988 bytes


** Section #9 '.debug_macinfo' (SHT_PROGBITS)
    Size   : 621136 bytes


** Section #10 '.debug_pubnames' (SHT_PROGBITS)
    Size   : 10174 bytes


** Section #11 '.symtab' (SHT_SYMTAB)
    Size   : 15568 bytes (alignment 4)
    String table #12 '.strtab'
    Last local symbol no. 406


** Section #12 '.strtab' (SHT_STRTAB)
    Size   : 11012 bytes


** Section #13 '.note' (SHT_NOTE)
    Size   : 28 bytes (alignment 4)


** Section #14 '.comment' (SHT_PROGBITS)
    Size   : 11652 bytes


** Section #15 '.shstrtab' (SHT_STRTAB)
    Size   : 156 bytes


